


ARM Macro Assembler    Page 1 


    1 00000000         ; generated by Component: ARM Compiler 5.06 update 5 (bu
                       ild 528) Tool: ArmCC [4d3621]
    2 00000000         ; commandline ArmCC [--cpp --split_sections --debug -c -
                       S -o.\objects\ipaddress.s --depend=.\objects\ipaddress.d
                        --cpu=Cortex-M4.fp --apcs=interwork -O0 --diag_suppress
                       =9931 -I.\cores -I.\RTE\Device\XMC4700-F144x2048 -I.\RTE
                       \_Target_1 -IC:\Keil_v5\ARM\PACK\ARM\CMSIS\5.0.1\CMSIS\I
                       nclude -IC:\Keil_v5\ARM\PACK\Infineon\XMC4000_DFP\2.9.1\
                       Device\XMC4700_series\Include -IC:\Keil_v5\ARM\PACK\Infi
                       neon\XMC4000_DFP\2.9.1\Device\XMClib\inc -IC:\Keil_v5\AR
                       M\PACK\Infineon\XMC4000_DFP\2.9.1\RTE_Driver -D__UVISION
                       _VERSION=524 -D_RTE_ -DXMC4700_F144x2048 --omf_browse=.\
                       objects\ipaddress.crf cores\IPAddress.cpp]
    3 00000000                 THUMB
    4 00000000                 REQUIRE8
    5 00000000                 PRESERVE8
    6 00000000         
    7 00000000                 AREA             ||i.NOPS_FOR_USEC||, CODE, READ
ONLY, ALIGN=1
    8 00000000         
    9 00000000         NOPS_FOR_USEC
                               PROC
   10 00000000 BF00            NOP
   11 00000002 BF00            NOP
   12 00000004 BF00            NOP
   13 00000006 BF00            NOP
   14 00000008 BF00            NOP
   15 0000000A BF00            NOP
   16 0000000C BF00            NOP
   17 0000000E BF00            NOP
   18 00000010 BF00            NOP
   19 00000012 BF00            NOP
   20 00000014 BF00            NOP
   21 00000016 BF00            NOP
   22 00000018 BF00            NOP
   23 0000001A BF00            NOP
   24 0000001C BF00            NOP
   25 0000001E BF00            NOP
   26 00000020 BF00            NOP
   27 00000022 BF00            NOP
   28 00000024 BF00            NOP
   29 00000026 BF00            NOP
   30 00000028 BF00            NOP
   31 0000002A BF00            NOP
   32 0000002C BF00            NOP
   33 0000002E BF00            NOP
   34 00000030 BF00            NOP
   35 00000032 BF00            NOP
   36 00000034 BF00            NOP
   37 00000036 BF00            NOP
   38 00000038 BF00            NOP
   39 0000003A BF00            NOP
   40 0000003C BF00            NOP
   41 0000003E BF00            NOP
   42 00000040 BF00            NOP
   43 00000042 BF00            NOP
   44 00000044 BF00            NOP
   45 00000046 BF00            NOP
   46 00000048 BF00            NOP



ARM Macro Assembler    Page 2 


   47 0000004A BF00            NOP
   48 0000004C BF00            NOP
   49 0000004E BF00            NOP
   50 00000050 BF00            NOP
   51 00000052 BF00            NOP
   52 00000054 BF00            NOP
   53 00000056 BF00            NOP
   54 00000058 BF00            NOP
   55 0000005A BF00            NOP
   56 0000005C BF00            NOP
   57 0000005E BF00            NOP
   58 00000060 BF00            NOP
   59 00000062 BF00            NOP
   60 00000064 BF00            NOP
   61 00000066 BF00            NOP
   62 00000068 BF00            NOP
   63 0000006A BF00            NOP
   64 0000006C BF00            NOP
   65 0000006E BF00            NOP
   66 00000070 BF00            NOP
   67 00000072 BF00            NOP
   68 00000074 BF00            NOP
   69 00000076 BF00            NOP
   70 00000078 BF00            NOP
   71 0000007A BF00            NOP
   72 0000007C BF00            NOP
   73 0000007E BF00            NOP
   74 00000080 BF00            NOP
   75 00000082 BF00            NOP
   76 00000084 BF00            NOP
   77 00000086 BF00            NOP
   78 00000088 BF00            NOP
   79 0000008A BF00            NOP
   80 0000008C BF00            NOP
   81 0000008E BF00            NOP
   82 00000090 BF00            NOP
   83 00000092 BF00            NOP
   84 00000094 BF00            NOP
   85 00000096 BF00            NOP
   86 00000098 BF00            NOP
   87 0000009A BF00            NOP
   88 0000009C BF00            NOP
   89 0000009E BF00            NOP
   90 000000A0 BF00            NOP
   91 000000A2 BF00            NOP
   92 000000A4 BF00            NOP
   93 000000A6 BF00            NOP
   94 000000A8 BF00            NOP
   95 000000AA BF00            NOP
   96 000000AC BF00            NOP
   97 000000AE BF00            NOP
   98 000000B0 BF00            NOP
   99 000000B2 BF00            NOP
  100 000000B4 BF00            NOP
  101 000000B6 BF00            NOP
  102 000000B8 BF00            NOP
  103 000000BA BF00            NOP
  104 000000BC BF00            NOP
  105 000000BE BF00            NOP



ARM Macro Assembler    Page 3 


  106 000000C0 BF00            NOP
  107 000000C2 BF00            NOP
  108 000000C4 BF00            NOP
  109 000000C6 BF00            NOP
  110 000000C8 BF00            NOP
  111 000000CA BF00            NOP
  112 000000CC BF00            NOP
  113 000000CE BF00            NOP
  114 000000D0 BF00            NOP
  115 000000D2 BF00            NOP
  116 000000D4 BF00            NOP
  117 000000D6 BF00            NOP
  118 000000D8 BF00            NOP
  119 000000DA BF00            NOP
  120 000000DC BF00            NOP
  121 000000DE BF00            NOP
  122 000000E0 BF00            NOP
  123 000000E2 BF00            NOP
  124 000000E4 BF00            NOP
  125 000000E6 BF00            NOP
  126 000000E8 BF00            NOP
  127 000000EA BF00            NOP
  128 000000EC BF00            NOP
  129 000000EE BF00            NOP
  130 000000F0 BF00            NOP
  131 000000F2 BF00            NOP
  132 000000F4 BF00            NOP
  133 000000F6 BF00            NOP
  134 000000F8 BF00            NOP
  135 000000FA BF00            NOP
  136 000000FC BF00            NOP
  137 000000FE BF00            NOP
  138 00000100 BF00            NOP
  139 00000102 BF00            NOP
  140 00000104 BF00            NOP
  141 00000106 BF00            NOP
  142 00000108 BF00            NOP
  143 0000010A BF00            NOP
  144 0000010C BF00            NOP
  145 0000010E BF00            NOP
  146 00000110 BF00            NOP
  147 00000112 BF00            NOP
  148 00000114 BF00            NOP
  149 00000116 BF00            NOP
  150 00000118 BF00            NOP
  151 0000011A BF00            NOP
  152 0000011C 4770            BX               lr
  153 0000011E                 ENDP
  154 0000011E         
  155 0000011E         
  156 0000011E                 AREA             ||i._ZN9IPAddress10fromStringEP
Kc||, CODE, READONLY, ALIGN=1
  157 00000000         
  158 00000000         _ZN9IPAddress10fromStringEPKc
                               PROC
  159 00000000 B5F0            PUSH             {r4-r7,lr}
  160 00000002 4604            MOV              r4,r0
  161 00000004 2200            MOVS             r2,#0
  162 00000006 2500            MOVS             r5,#0



ARM Macro Assembler    Page 4 


  163 00000008 E020            B                |L1.76|
  164 0000000A         |L1.10|
  165 0000000A F811 3B01       LDRB             r3,[r1],#1
  166 0000000E 2B30            CMP              r3,#0x30
  167 00000010 DB0C            BLT              |L1.44|
  168 00000012 2B39            CMP              r3,#0x39
  169 00000014 DC0A            BGT              |L1.44|
  170 00000016 F1A3 0030       SUB              r0,r3,#0x30
  171 0000001A EB02 0682       ADD              r6,r2,r2,LSL #2
  172 0000001E EB00 0046       ADD              r0,r0,r6,LSL #1
  173 00000022 B282            UXTH             r2,r0
  174 00000024 2AFF            CMP              r2,#0xff
  175 00000026 DD10            BLE              |L1.74|
  176 00000028 2000            MOVS             r0,#0
  177 0000002A         |L1.42|
  178 0000002A BDF0            POP              {r4-r7,pc}
  179 0000002C         |L1.44|
  180 0000002C 2B2E            CMP              r3,#0x2e
  181 0000002E D10A            BNE              |L1.70|
  182 00000030 2D03            CMP              r5,#3
  183 00000032 D101            BNE              |L1.56|
  184 00000034 2000            MOVS             r0,#0
  185 00000036 E7F8            B                |L1.42|
  186 00000038         |L1.56|
  187 00000038 4628            MOV              r0,r5
  188 0000003A 1C6E            ADDS             r6,r5,#1
  189 0000003C B2F5            UXTB             r5,r6
  190 0000003E 1D26            ADDS             r6,r4,#4
  191 00000040 5432            STRB             r2,[r6,r0]
  192 00000042 2200            MOVS             r2,#0
  193 00000044 E001            B                |L1.74|
  194 00000046         |L1.70|
  195 00000046 2000            MOVS             r0,#0
  196 00000048 E7EF            B                |L1.42|
  197 0000004A         |L1.74|
  198 0000004A BF00            NOP
  199 0000004C         |L1.76|
  200 0000004C 7808            LDRB             r0,[r1,#0]
  201 0000004E 2800            CMP              r0,#0
  202 00000050 D1DB            BNE              |L1.10|
  203 00000052 2D03            CMP              r5,#3
  204 00000054 D000            BEQ              |L1.88|
  205 00000056 E7E8            B                |L1.42|
  206 00000058         |L1.88|
  207 00000058 71E2            STRB             r2,[r4,#7]
  208 0000005A 2001            MOVS             r0,#1
  209 0000005C E7E5            B                |L1.42|
  210 0000005E                 ENDP
  211 0000005E         
  212 0000005E         
  213 0000005E                 AREA             ||i._ZN9IPAddressC1EPKh||, CODE
, READONLY, ALIGN=2
  214 00000000         
  215 00000000         _ZN9IPAddressC2EPKh                  ; Alternate entry p
                                                            oint
  216 00000000         _ZN9IPAddressC1EPKh
                               PROC
  217 00000000 B570            PUSH             {r4-r6,lr}
  218 00000002 4604            MOV              r4,r0



ARM Macro Assembler    Page 5 


  219 00000004 460D            MOV              r5,r1
  220 00000006 4620            MOV              r0,r4
  221 00000008 F7FF FFFE       BL               _ZN9PrintableC2Ev
  222 0000000C 4604            MOV              r4,r0
  223 0000000E 4803            LDR              r0,|L2.28|
  224 00000010 6020            STR              r0,[r4,#0]
  225 00000012 6828            LDR              r0,[r5,#0]
  226 00000014 6060            STR              r0,[r4,#4]
  227 00000016 4620            MOV              r0,r4
  228 00000018 BD70            POP              {r4-r6,pc}
  229 0000001A                 ENDP
  230 0000001A         
  231 0000001A 00 00           DCW              0x0000
  232 0000001C         |L2.28|
  233 0000001C 00000008        DCD              _ZTV9IPAddress+0x8
  234 00000020         
  235 00000020                 AREA             ||i._ZN9IPAddressC1Ehhhh||, COD
E, READONLY, ALIGN=2
  236 00000000         
  237 00000000         _ZN9IPAddressC2Ehhhh                 ; Alternate entry p
                                                            oint
  238 00000000         _ZN9IPAddressC1Ehhhh
                               PROC
  239 00000000 E92D 41F0       PUSH             {r4-r8,lr}
  240 00000004 4604            MOV              r4,r0
  241 00000006 460D            MOV              r5,r1
  242 00000008 4616            MOV              r6,r2
  243 0000000A 461F            MOV              r7,r3
  244 0000000C F8DD 8018       LDR              r8,[sp,#0x18]
  245 00000010 4620            MOV              r0,r4
  246 00000012 F7FF FFFE       BL               _ZN9PrintableC2Ev
  247 00000016 4604            MOV              r4,r0
  248 00000018 4804            LDR              r0,|L3.44|
  249 0000001A 6020            STR              r0,[r4,#0]
  250 0000001C 7125            STRB             r5,[r4,#4]
  251 0000001E 7166            STRB             r6,[r4,#5]
  252 00000020 71A7            STRB             r7,[r4,#6]
  253 00000022 F884 8007       STRB             r8,[r4,#7]
  254 00000026 4620            MOV              r0,r4
  255 00000028 E8BD 81F0       POP              {r4-r8,pc}
  256 0000002C                 ENDP
  257 0000002C         
  258 0000002C         |L3.44|
  259 0000002C 00000008        DCD              _ZTV9IPAddress+0x8
  260 00000030         
  261 00000030                 AREA             ||i._ZN9IPAddressC1Ej||, CODE, 
READONLY, ALIGN=2
  262 00000000         
  263 00000000         _ZN9IPAddressC2Ej                    ; Alternate entry p
                                                            oint
  264 00000000         _ZN9IPAddressC1Ej
                               PROC
  265 00000000 B570            PUSH             {r4-r6,lr}
  266 00000002 4604            MOV              r4,r0
  267 00000004 460D            MOV              r5,r1
  268 00000006 4620            MOV              r0,r4
  269 00000008 F7FF FFFE       BL               _ZN9PrintableC2Ev
  270 0000000C 4604            MOV              r4,r0
  271 0000000E 4802            LDR              r0,|L4.24|



ARM Macro Assembler    Page 6 


  272 00000010 6020            STR              r0,[r4,#0]
  273 00000012 6065            STR              r5,[r4,#4]
  274 00000014 4620            MOV              r0,r4
  275 00000016 BD70            POP              {r4-r6,pc}
  276 00000018                 ENDP
  277 00000018         
  278 00000018         |L4.24|
  279 00000018 00000008        DCD              _ZTV9IPAddress+0x8
  280 0000001C         
  281 0000001C                 AREA             ||i._ZN9IPAddressC1Ev||, CODE, 
READONLY, ALIGN=2
  282 00000000         
  283 00000000         _ZN9IPAddressC2Ev                    ; Alternate entry p
                                                            oint
  284 00000000         _ZN9IPAddressC1Ev
                               PROC
  285 00000000 B510            PUSH             {r4,lr}
  286 00000002 4604            MOV              r4,r0
  287 00000004 4620            MOV              r0,r4
  288 00000006 F7FF FFFE       BL               _ZN9PrintableC2Ev
  289 0000000A 4604            MOV              r4,r0
  290 0000000C 4802            LDR              r0,|L5.24|
  291 0000000E 6020            STR              r0,[r4,#0]
  292 00000010 2000            MOVS             r0,#0
  293 00000012 6060            STR              r0,[r4,#4]
  294 00000014 4620            MOV              r0,r4
  295 00000016 BD10            POP              {r4,pc}
  296 00000018                 ENDP
  297 00000018         
  298 00000018         |L5.24|
  299 00000018 00000008        DCD              _ZTV9IPAddress+0x8
  300 0000001C         
  301 0000001C                 AREA             ||i._ZN9IPAddressaSEPKh||, CODE
, READONLY, ALIGN=1
  302 00000000         
  303 00000000         _ZN9IPAddressaSEPKh
                               PROC
  304 00000000 680A            LDR              r2,[r1,#0]
  305 00000002 6042            STR              r2,[r0,#4]
  306 00000004 4770            BX               lr
  307 00000006                 ENDP
  308 00000006         
  309 00000006         
  310 00000006                 AREA             ||i._ZN9IPAddressaSEj||, CODE, 
READONLY, ALIGN=1
  311 00000000         
  312 00000000         _ZN9IPAddressaSEj
                               PROC
  313 00000000 6041            STR              r1,[r0,#4]
  314 00000002 4770            BX               lr
  315 00000004                 ENDP
  316 00000004         
  317 00000004         
  318 00000004                 AREA             ||i._ZNK9IPAddress7printToER5Pr
int||, CODE, READONLY, ALIGN=1
  319 00000000         
  320 00000000         _ZNK9IPAddress7printToER5Print
                               PROC
  321 00000000 E92D 41F0       PUSH             {r4-r8,lr}



ARM Macro Assembler    Page 7 


  322 00000004 4605            MOV              r5,r0
  323 00000006 460F            MOV              r7,r1
  324 00000008 2400            MOVS             r4,#0
  325 0000000A 2600            MOVS             r6,#0
  326 0000000C E00C            B                |L8.40|
  327 0000000E         |L8.14|
  328 0000000E 1D28            ADDS             r0,r5,#4
  329 00000010 5D81            LDRB             r1,[r0,r6]
  330 00000012 220A            MOVS             r2,#0xa
  331 00000014 4638            MOV              r0,r7
  332 00000016 F7FF FFFE       BL               _ZN5Print5printEhi
  333 0000001A 4404            ADD              r4,r4,r0
  334 0000001C 212E            MOVS             r1,#0x2e
  335 0000001E 4638            MOV              r0,r7
  336 00000020 F7FF FFFE       BL               _ZN5Print5printEc
  337 00000024 4404            ADD              r4,r4,r0
  338 00000026 1C76            ADDS             r6,r6,#1
  339 00000028         |L8.40|
  340 00000028 2E03            CMP              r6,#3
  341 0000002A DBF0            BLT              |L8.14|
  342 0000002C 79E9            LDRB             r1,[r5,#7]
  343 0000002E 220A            MOVS             r2,#0xa
  344 00000030 4638            MOV              r0,r7
  345 00000032 F7FF FFFE       BL               _ZN5Print5printEhi
  346 00000036 4404            ADD              r4,r4,r0
  347 00000038 4620            MOV              r0,r4
  348 0000003A E8BD 81F0       POP              {r4-r8,pc}
  349 0000003E                 ENDP
  350 0000003E         
  351 0000003E         
  352 0000003E                 AREA             ||i._ZNK9IPAddresseqEPKh||, COD
E, READONLY, ALIGN=1
  353 00000000         
  354 00000000         _ZNK9IPAddresseqEPKh
                               PROC
  355 00000000 B570            PUSH             {r4-r6,lr}
  356 00000002 4605            MOV              r5,r0
  357 00000004 460C            MOV              r4,r1
  358 00000006 2204            MOVS             r2,#4
  359 00000008 1D29            ADDS             r1,r5,#4
  360 0000000A 4620            MOV              r0,r4
  361 0000000C F7FF FFFE       BL               memcmp
  362 00000010 B908            CBNZ             r0,|L9.22|
  363 00000012 2001            MOVS             r0,#1
  364 00000014         |L9.20|
  365 00000014 BD70            POP              {r4-r6,pc}
  366 00000016         |L9.22|
  367 00000016 2000            MOVS             r0,#0
  368 00000018 E7FC            B                |L9.20|
  369 0000001A                 ENDP
  370 0000001A         
  371 0000001A         
  372 0000001A                 AREA             ||i.__sti___13_IPAddress_cpp_db
d866df||, CODE, READONLY, ALIGN=2
  373 00000000         
  374 00000000         __sti___13_IPAddress_cpp_dbd866df
                               PROC
  375 00000000 B508            PUSH             {r3,lr}
  376 00000002 2000            MOVS             r0,#0



ARM Macro Assembler    Page 8 


  377 00000004 4603            MOV              r3,r0
  378 00000006 4602            MOV              r2,r0
  379 00000008 4601            MOV              r1,r0
  380 0000000A 9000            STR              r0,[sp,#0]
  381 0000000C 4801            LDR              r0,|L10.20|
  382 0000000E F7FF FFFE       BL               _ZN9IPAddressC1Ehhhh
  383 00000012 BD08            POP              {r3,pc}
  384 00000014                 ENDP
  385 00000014         
  386 00000014         |L10.20|
  387 00000014 00000000        DCD              INADDR_NONE
  388 00000018         
  389 00000018                 AREA             ||.ARM.exidx||, LINKORDER=||i.N
OPS_FOR_USEC||, DATA, READONLY, SECTYPE={SHT_ARM_EXIDX}, ALIGN=2
  390 00000000         
  391 00000000 00000000        DCD              0x00000000
  392 00000004                 RELOC            42, ||i.NOPS_FOR_USEC||
  393 00000004 00000001        DCD              0x00000001
  394 00000008         
  395 00000008                 AREA             ||area_number.12||, LINKORDER=|
|i._ZN9IPAddressC1Ev||, DATA, READONLY, SECTYPE={SHT_ARM_EXIDX}, ALIGN=2
  396 00000000         
  397 00000000                 EXPORTAS         ||area_number.12||, ||.ARM.exid
x||
  398 00000000 00000000        DCD              0x00000000
  399 00000004                 RELOC            42, ||i._ZN9IPAddressC1Ev||
  400 00000004 00000001        DCD              0x00000001
  401 00000008         
  402 00000008                 AREA             ||area_number.13||, LINKORDER=|
|i._ZN9IPAddressC1Ehhhh||, DATA, READONLY, SECTYPE={SHT_ARM_EXIDX}, ALIGN=2
  403 00000000         
  404 00000000                 EXPORTAS         ||area_number.13||, ||.ARM.exid
x||
  405 00000000 00000000        DCD              0x00000000
  406 00000004                 RELOC            42, ||i._ZN9IPAddressC1Ehhhh||
  407 00000004 00000001        DCD              0x00000001
  408 00000008         
  409 00000008                 AREA             ||area_number.14||, LINKORDER=|
|i._ZN9IPAddressC1Ej||, DATA, READONLY, SECTYPE={SHT_ARM_EXIDX}, ALIGN=2
  410 00000000         
  411 00000000                 EXPORTAS         ||area_number.14||, ||.ARM.exid
x||
  412 00000000 00000000        DCD              0x00000000
  413 00000004                 RELOC            42, ||i._ZN9IPAddressC1Ej||
  414 00000004 00000001        DCD              0x00000001
  415 00000008         
  416 00000008                 AREA             ||area_number.15||, LINKORDER=|
|i._ZN9IPAddressC1EPKh||, DATA, READONLY, SECTYPE={SHT_ARM_EXIDX}, ALIGN=2
  417 00000000         
  418 00000000                 EXPORTAS         ||area_number.15||, ||.ARM.exid
x||
  419 00000000 00000000        DCD              0x00000000
  420 00000004                 RELOC            42, ||i._ZN9IPAddressC1EPKh||
  421 00000004 00000001        DCD              0x00000001
  422 00000008         
  423 00000008                 AREA             ||area_number.16||, LINKORDER=|
|i._ZN9IPAddress10fromStringEPKc||, DATA, READONLY, SECTYPE={SHT_ARM_EXIDX}, AL
IGN=2
  424 00000000         



ARM Macro Assembler    Page 9 


  425 00000000                 EXPORTAS         ||area_number.16||, ||.ARM.exid
x||
  426 00000000 00000000        DCD              0x00000000
  427 00000004                 RELOC            42, ||i._ZN9IPAddress10fromStri
ngEPKc||
  428 00000004 00000001        DCD              0x00000001
  429 00000008         
  430 00000008                 AREA             ||area_number.17||, LINKORDER=|
|i._ZNK9IPAddresseqEPKh||, DATA, READONLY, SECTYPE={SHT_ARM_EXIDX}, ALIGN=2
  431 00000000         
  432 00000000                 EXPORTAS         ||area_number.17||, ||.ARM.exid
x||
  433 00000000 00000000        DCD              0x00000000
  434 00000004                 RELOC            42, ||i._ZNK9IPAddresseqEPKh||
  435 00000004 00000001        DCD              0x00000001
  436 00000008         
  437 00000008                 AREA             ||area_number.18||, LINKORDER=|
|i._ZN9IPAddressaSEPKh||, DATA, READONLY, SECTYPE={SHT_ARM_EXIDX}, ALIGN=2
  438 00000000         
  439 00000000                 EXPORTAS         ||area_number.18||, ||.ARM.exid
x||
  440 00000000 00000000        DCD              0x00000000
  441 00000004                 RELOC            42, ||i._ZN9IPAddressaSEPKh||
  442 00000004 00000001        DCD              0x00000001
  443 00000008         
  444 00000008                 AREA             ||area_number.19||, LINKORDER=|
|i._ZN9IPAddressaSEj||, DATA, READONLY, SECTYPE={SHT_ARM_EXIDX}, ALIGN=2
  445 00000000         
  446 00000000                 EXPORTAS         ||area_number.19||, ||.ARM.exid
x||
  447 00000000 00000000        DCD              0x00000000
  448 00000004                 RELOC            42, ||i._ZN9IPAddressaSEj||
  449 00000004 00000001        DCD              0x00000001
  450 00000008         
  451 00000008                 AREA             ||area_number.20||, LINKORDER=|
|i._ZNK9IPAddress7printToER5Print||, DATA, READONLY, SECTYPE={SHT_ARM_EXIDX}, A
LIGN=2
  452 00000000         
  453 00000000                 EXPORTAS         ||area_number.20||, ||.ARM.exid
x||
  454 00000000 00000000        DCD              0x00000000
  455 00000004                 RELOC            42, ||i._ZNK9IPAddress7printToE
R5Print||
  456 00000004 00000001        DCD              0x00000001
  457 00000008         
  458 00000008                 AREA             ||area_number.21||, LINKORDER=|
|i.__sti___13_IPAddress_cpp_dbd866df||, DATA, READONLY, SECTYPE={SHT_ARM_EXIDX}
, ALIGN=2
  459 00000000         
  460 00000000                 EXPORTAS         ||area_number.21||, ||.ARM.exid
x||
  461 00000000 00000000        DCD              0x00000000
  462 00000004                 RELOC            42, ||i.__sti___13_IPAddress_cp
p_dbd866df||
  463 00000004 00000001        DCD              0x00000001
  464 00000008         
  465 00000008                 AREA             ||.arm_vfe_header||, DATA, READ
ONLY, NOALLOC, ALIGN=2
  466 00000000         



ARM Macro Assembler    Page 10 


  467 00000000 00000000        DCD              0x00000000
  468 00000004         
  469 00000004                 AREA             ||.data||, DATA, ALIGN=2
  470 00000000         
  471 00000000         INADDR_NONE
  472 00000000 00 00 00 
              00 00 00 
              00 00            %                8
  473 00000008         
  474 00000008                 AREA             ||.init_array||, DATA, READONLY
, INIT_ARRAY, ALIGN=2
  475 00000000         
  476 00000000 00000000        DCD              0x00000000
  477 00000004                 RELOC            38, __sti___13_IPAddress_cpp_db
d866df
  478 00000004         
  479 00000004                 AREA             ||.arm_vfe_vtableinfo_ZTV9IPAdd
ress||, COMGROUP=_ZTV9IPAddress, DATA, READONLY, NOALLOC, ALIGN=2
  480 00000000         
  481 00000000 00000000        DCD              ||$weak$_ZTV9IPAddress||
  482 00000004 00000003        DCD              0x00000003
  483 00000008 00000002        DCD              0x00000002
  484 0000000C 00000000        DCD              ||$weak$_ZTI9IPAddress||
  485 00000010 00000001        DCD              0x00000001
  486 00000014 00000002        DCD              0x00000002
  487 00000018 00000000        DCD              0x00000000
  488 0000001C 00000000        DCD              ||$weak$_ZTI9Printable||
  489 00000020 00000000        DCD              0x00000000
  490 00000024 00000001        DCD              0x00000001
  491 00000028 00000000        DCD              ||$weak$_ZTI9IPAddress||
  492 0000002C 00000001        DCD              0x00000001
  493 00000030 00000002        DCD              0x00000002
  494 00000034 00000000        DCD              0x00000000
  495 00000038         
  496 00000038                 AREA             ||.constdata__ZTV9IPAddress||, 
COMGROUP=_ZTV9IPAddress, DATA, READONLY, ALIGN=2
  497 00000000         
  498 00000000         _ZTV9IPAddress
  499 00000000 00000000        DCD              0x00000000
  500 00000004 00000000        DCD              _ZTI9IPAddress
  501 00000008 00000000        DCD              _ZNK9IPAddress7printToER5Print
  502 0000000C         
  503 0000000C                 AREA             ||i._ZN9PrintableC2Ev||, COMGRO
UP=_ZN9PrintableC2Ev, CODE, READONLY, ALIGN=2
  504 00000000         
  505 00000000         _ZN9PrintableC2Ev
                               PROC
  506 00000000 4901            LDR              r1,|L74.8|
  507 00000002 6001            STR              r1,[r0,#0]
  508 00000004 4770            BX               lr
  509 00000006                 ENDP
  510 00000006         
  511 00000006 00 00           DCW              0x0000
  512 00000008         |L74.8|
  513 00000008 00000008        DCD              _ZTV9Printable+0x8
  514 0000000C         
  515 0000000C                 AREA             ||area_number.75||, COMGROUP=_Z
N9PrintableC2Ev, LINKORDER=||i._ZN9PrintableC2Ev||, DATA, READONLY, SECTYPE={SH
T_ARM_EXIDX}, ALIGN=2



ARM Macro Assembler    Page 11 


  516 00000000         
  517 00000000                 EXPORTAS         ||area_number.75||, ||.ARM.exid
x||
  518 00000000 00000000        DCD              0x00000000
  519 00000004                 RELOC            42, ||i._ZN9PrintableC2Ev||
  520 00000004 00000001        DCD              0x00000001
  521 00000008         
  522 00000008                 AREA             ||.arm_vfe_vtableinfo_ZTV9Print
able||, COMGROUP=_ZTV9Printable, DATA, READONLY, NOALLOC, ALIGN=2
  523 00000000         
  524 00000000 00000000        DCD              ||$weak$_ZTV9Printable||
  525 00000004 00000003        DCD              0x00000003
  526 00000008 00000001        DCD              0x00000001
  527 0000000C 00000000        DCD              ||$weak$_ZTI9Printable||
  528 00000010 00000001        DCD              0x00000001
  529 00000014 00000002        DCD              0x00000002
  530 00000018 00000000        DCD              0x00000000
  531 0000001C         
  532 0000001C                 AREA             ||.constdata__ZTV9Printable||, 
COMGROUP=_ZTV9Printable, DATA, READONLY, ALIGN=2
  533 00000000         
  534 00000000         _ZTV9Printable
  535 00000000 00000000        DCD              0x00000000
  536 00000004 00000000        DCD              _ZTI9Printable
  537 00000008 00000000        DCD              __cxa_pure_virtual
  538 0000000C         
  539 0000000C                 AREA             ||.constdata__ZTI9IPAddress||, 
COMGROUP=_ZTI9IPAddress, DATA, READONLY, ALIGN=2
  540 00000000         
  541 00000000         _ZTI9IPAddress
  542 00000000 00000008        DCD              _ZTVN10__cxxabiv120__si_class_t
ype_infoE+0x8
  543 00000004 00000000        DCD              _ZTS9IPAddress
  544 00000008 00000000        DCD              _ZTI9Printable
  545 0000000C         
  546 0000000C                 AREA             ||.constdata__ZTI9Printable||, 
COMGROUP=_ZTI9Printable, DATA, READONLY, ALIGN=2
  547 00000000         
  548 00000000         _ZTI9Printable
  549 00000000 00000008        DCD              _ZTVN10__cxxabiv117__class_type
_infoE+0x8
  550 00000004 00000000        DCD              _ZTS9Printable
  551 00000008         
  552 00000008                 AREA             ||.constdata__ZTS9IPAddress||, 
COMGROUP=_ZTS9IPAddress, DATA, READONLY, ALIGN=0
  553 00000000         
  554 00000000         _ZTS9IPAddress
  555 00000000 39 49 50 
              41               DCB              0x39,0x49,0x50,0x41
  556 00000004 64 64 72 
              65               DCB              0x64,0x64,0x72,0x65
  557 00000008 73 73 00        DCB              0x73,0x73,0x00
  558 0000000B         
  559 0000000B                 AREA             ||.constdata__ZTS9Printable||, 
COMGROUP=_ZTS9Printable, DATA, READONLY, ALIGN=0
  560 00000000         
  561 00000000         _ZTS9Printable
  562 00000000 39 50 72 
              69               DCB              0x39,0x50,0x72,0x69



ARM Macro Assembler    Page 12 


  563 00000004 6E 74 61 
              62               DCB              0x6e,0x74,0x61,0x62
  564 00000008 6C 65 00        DCB              0x6c,0x65,0x00
  565 0000000B         
  566 0000000B         ;*** Start embedded assembler ***
  567 0000000B         
  568 0000000B         #line   1                "cores\\IPAddress.cpp"
    1 0000000B                 AREA             ||.rev16_text||, CODE
    2 00000000                 THUMB
    3 00000000                 EXPORT           |__asm___13_IPAddress_cpp_dbd86
6df___Z7__REV16j|
    4 00000000         #line   447              "C:\\Keil_v5\\ARM\\PACK\\ARM\\C
MSIS\\5.0.1\\CMSIS\\Include\\cmsis_armcc.h"
  447 00000000         |__asm___13_IPAddress_cpp_dbd866df___Z7__REV16j|
                               PROC
  448 00000000         #line   448
  448 00000000         
  449 00000000 BA40            rev16            r0, r0
  450 00000002 4770            bx               lr
  451 00000004                 ENDP
  452 00000004                 AREA             ||.revsh_text||, CODE
  453 00000000                 THUMB
  454 00000000                 EXPORT           |__asm___13_IPAddress_cpp_dbd86
6df___Z7__REVSHi|
  455 00000000         #line   462
  462 00000000         |__asm___13_IPAddress_cpp_dbd866df___Z7__REVSHi|
                               PROC
  463 00000000         #line   463
  463 00000000         
  464 00000000 BAC0            revsh            r0, r0
  465 00000002 4770            bx               lr
  466 00000004                 ENDP
  467 00000004                 AREA             ||.rrx_text||, CODE
  468 00000000                 THUMB
  469 00000000                 EXPORT           |__asm___13_IPAddress_cpp_dbd86
6df___Z5__RRXj|
  470 00000000         #line   649
  649 00000000         |__asm___13_IPAddress_cpp_dbd866df___Z5__RRXj|
                               PROC
  650 00000000         #line   650
  650 00000000         
  651 00000000 EA4F 0030       rrx              r0, r0
  652 00000004 4770            bx               lr
  653 00000006                 ENDP
  654 00000006         
  655 00000006         ;*** End   embedded assembler ***
  656 00000006         
  657 00000006                 EXPORT           NOPS_FOR_USEC [CODE]
  658 00000006                 EXPORT           _ZN9IPAddress10fromStringEPKc [
CODE]
  659 00000006                 EXPORT           _ZN9IPAddressC2EPKh [CODE]
  660 00000006                 EXPORT           _ZN9IPAddressC1EPKh [CODE]
  661 00000006                 EXPORT           _ZN9IPAddressC2Ehhhh [CODE]
  662 00000006                 EXPORT           _ZN9IPAddressC1Ehhhh [CODE]
  663 00000006                 EXPORT           _ZN9IPAddressC2Ej [CODE]
  664 00000006                 EXPORT           _ZN9IPAddressC1Ej [CODE]
  665 00000006                 EXPORT           _ZN9IPAddressC2Ev [CODE]
  666 00000006                 EXPORT           _ZN9IPAddressC1Ev [CODE]
  667 00000006                 EXPORT           _ZN9IPAddressaSEPKh [CODE]



ARM Macro Assembler    Page 13 


  668 00000006                 EXPORT           _ZN9IPAddressaSEj [CODE]
  669 00000006                 EXPORT           _ZNK9IPAddress7printToER5Print 
[CODE]
  670 00000006                 EXPORT           _ZNK9IPAddresseqEPKh [CODE]
  671 00000006                 EXPORT           _ZTV9IPAddress [DATA,SIZE=12]
  672 00000006                 EXPORT           _ZN9PrintableC2Ev [CODE]
  673 00000006                 EXPORT           _ZTV9Printable [DATA,SIZE=12]
  674 00000006                 EXPORT           _ZTI9IPAddress [DATA,SIZE=12]
  675 00000006                 EXPORT           _ZTI9Printable [DATA,SIZE=8]
  676 00000006                 EXPORT           _ZTS9IPAddress [DATA,SIZE=11]
  677 00000006                 EXPORT           _ZTS9Printable [DATA,SIZE=11]
  678 00000006         
  679 00000006                 IMPORT           ||Lib$$Request$$armlib|| [CODE,
WEAK]
  680 00000006                 IMPORT           ||Lib$$Request$$cpplib|| [CODE,
WEAK]
  681 00000006                 IMPORT           ||$weak$_ZTV9IPAddress|| [DATA,
WEAK]
  682 00000006                 EXPORTAS         ||$weak$_ZTV9IPAddress||, _ZTV9
IPAddress
  683 00000006                 IMPORT           ||$weak$_ZTI9IPAddress|| [DATA,
WEAK]
  684 00000006                 EXPORTAS         ||$weak$_ZTI9IPAddress||, _ZTI9
IPAddress
  685 00000006                 IMPORT           ||$weak$_ZTI9Printable|| [DATA,
WEAK]
  686 00000006                 EXPORTAS         ||$weak$_ZTI9Printable||, _ZTI9
Printable
  687 00000006                 IMPORT           memcmp [CODE]
  688 00000006                 IMPORT           _ZN5Print5printEhi [CODE]
  689 00000006                 IMPORT           _ZN5Print5printEc [CODE]
  690 00000006                 IMPORT           ||$weak$_ZTV9Printable|| [DATA,
WEAK]
  691 00000006                 EXPORTAS         ||$weak$_ZTV9Printable||, _ZTV9
Printable
  692 00000006                 IMPORT           __cxa_pure_virtual [CODE]
  693 00000006                 IMPORT           _ZTVN10__cxxabiv120__si_class_t
ype_infoE [DATA]
  694 00000006                 IMPORT           _ZTVN10__cxxabiv117__class_type
_infoE [DATA]
  695 00000006         
  696 00000006                 KEEP             __sti___13_IPAddress_cpp_dbd866
df
  697 00000006                 KEEP             INADDR_NONE
  698 00000006         
  699 00000006                 ATTR             FILESCOPE
  700 00000006                 ATTR             SETVALUE Tag_ABI_PCS_wchar_t,2
  701 00000006                 ATTR             SETVALUE Tag_ABI_enum_size,1
  702 00000006                 ATTR             SETVALUE Tag_ABI_optimization_g
oals,6
  703 00000006                 ATTR             SETSTRING Tag_conformance,"2.09
"
  704 00000006                 ATTR             SETVALUE AV,6,0
  705 00000006                 ATTR             SETVALUE AV,18,1
  706 00000006         
  707 00000006                 ASSERT           {ENDIAN} = "little"
  708 00000006                 ASSERT           {INTER} = {TRUE}
  709 00000006                 ASSERT           {ROPI} = {FALSE}
  710 00000006                 ASSERT           {RWPI} = {FALSE}



ARM Macro Assembler    Page 14 


  711 00000006                 ASSERT           {IEEE_FULL} = {FALSE}
  712 00000006                 ASSERT           {IEEE_PART} = {FALSE}
  713 00000006                 ASSERT           {IEEE_JAVA} = {FALSE}
  714 00000006                 END
Command Line: --debug --xref --diag_suppress=9931 --cpu=Cortex-M4.fp --apcs=int
erwork -o.\objects\ipaddress.o -I.\cores -I.\RTE\Device\XMC4700-F144x2048 -I.\R
TE\_Target_1 -IC:\Keil_v5\ARM\PACK\ARM\CMSIS\5.0.1\CMSIS\Include -IC:\Keil_v5\A
RM\PACK\Infineon\XMC4000_DFP\2.9.1\Device\XMC4700_series\Include -IC:\Keil_v5\A
RM\PACK\Infineon\XMC4000_DFP\2.9.1\Device\XMClib\inc -IC:\Keil_v5\ARM\PACK\Infi
neon\XMC4000_DFP\2.9.1\RTE_Driver --predefine="__UVISION_VERSION SETA 524" --pr
edefine="_RTE_ SETA 1" --predefine="XMC4700_F144x2048 SETA 1" --list=.\listings
\ipaddress.lst .\objects\ipaddress.s



ARM Macro Assembler    Page 1 Alphabetic symbol ordering
Relocatable symbols

NOPS_FOR_USEC 00000000

Symbol: NOPS_FOR_USEC
   Definitions
      At line 9 in file .\objects\ipaddress.s
   Uses
      At line 657 in file C:\\Keil_v5\\ARM\\PACK\\ARM\\CMSIS\\5.0.1\\CMSIS\\Inc
lude\\cmsis_armcc.h
Comment: NOPS_FOR_USEC used once
|i.NOPS_FOR_USEC| 00000000

Symbol: |i.NOPS_FOR_USEC|
   Definitions
      At line 7 in file .\objects\ipaddress.s
   Uses
      At line 392 in file .\objects\ipaddress.s
Comment: |i.NOPS_FOR_USEC| used once
2 symbols



ARM Macro Assembler    Page 1 Alphabetic symbol ordering
Relocatable symbols

L1.10 0000000A

Symbol: L1.10
   Definitions
      At line 164 in file .\objects\ipaddress.s
   Uses
      At line 202 in file .\objects\ipaddress.s
Comment: L1.10 used once
L1.42 0000002A

Symbol: L1.42
   Definitions
      At line 177 in file .\objects\ipaddress.s
   Uses
      At line 185 in file .\objects\ipaddress.s
      At line 196 in file .\objects\ipaddress.s
      At line 205 in file .\objects\ipaddress.s
      At line 209 in file .\objects\ipaddress.s

L1.44 0000002C

Symbol: L1.44
   Definitions
      At line 179 in file .\objects\ipaddress.s
   Uses
      At line 167 in file .\objects\ipaddress.s
      At line 169 in file .\objects\ipaddress.s

L1.56 00000038

Symbol: L1.56
   Definitions
      At line 186 in file .\objects\ipaddress.s
   Uses
      At line 183 in file .\objects\ipaddress.s
Comment: L1.56 used once
L1.70 00000046

Symbol: L1.70
   Definitions
      At line 194 in file .\objects\ipaddress.s
   Uses
      At line 181 in file .\objects\ipaddress.s
Comment: L1.70 used once
L1.74 0000004A

Symbol: L1.74
   Definitions
      At line 197 in file .\objects\ipaddress.s
   Uses
      At line 175 in file .\objects\ipaddress.s
      At line 193 in file .\objects\ipaddress.s

L1.76 0000004C

Symbol: L1.76
   Definitions
      At line 199 in file .\objects\ipaddress.s
   Uses



ARM Macro Assembler    Page 2 Alphabetic symbol ordering
Relocatable symbols

      At line 163 in file .\objects\ipaddress.s
Comment: L1.76 used once
L1.88 00000058

Symbol: L1.88
   Definitions
      At line 206 in file .\objects\ipaddress.s
   Uses
      At line 204 in file .\objects\ipaddress.s
Comment: L1.88 used once
_ZN9IPAddress10fromStringEPKc 00000000

Symbol: _ZN9IPAddress10fromStringEPKc
   Definitions
      At line 158 in file .\objects\ipaddress.s
   Uses
      At line 658 in file C:\\Keil_v5\\ARM\\PACK\\ARM\\CMSIS\\5.0.1\\CMSIS\\Inc
lude\\cmsis_armcc.h
Comment: _ZN9IPAddress10fromStringEPKc used once
|i._ZN9IPAddress10fromStringEPKc| 00000000

Symbol: |i._ZN9IPAddress10fromStringEPKc|
   Definitions
      At line 156 in file .\objects\ipaddress.s
   Uses
      At line 427 in file .\objects\ipaddress.s
Comment: |i._ZN9IPAddress10fromStringEPKc| used once
10 symbols



ARM Macro Assembler    Page 1 Alphabetic symbol ordering
Relocatable symbols

L2.28 0000001C

Symbol: L2.28
   Definitions
      At line 232 in file .\objects\ipaddress.s
   Uses
      At line 223 in file .\objects\ipaddress.s
Comment: L2.28 used once
_ZN9IPAddressC1EPKh 00000000

Symbol: _ZN9IPAddressC1EPKh
   Definitions
      At line 216 in file .\objects\ipaddress.s
   Uses
      At line 660 in file C:\\Keil_v5\\ARM\\PACK\\ARM\\CMSIS\\5.0.1\\CMSIS\\Inc
lude\\cmsis_armcc.h
Comment: _ZN9IPAddressC1EPKh used once
_ZN9IPAddressC2EPKh 00000000

Symbol: _ZN9IPAddressC2EPKh
   Definitions
      At line 215 in file .\objects\ipaddress.s
   Uses
      At line 659 in file C:\\Keil_v5\\ARM\\PACK\\ARM\\CMSIS\\5.0.1\\CMSIS\\Inc
lude\\cmsis_armcc.h
Comment: _ZN9IPAddressC2EPKh used once
|i._ZN9IPAddressC1EPKh| 00000000

Symbol: |i._ZN9IPAddressC1EPKh|
   Definitions
      At line 213 in file .\objects\ipaddress.s
   Uses
      At line 420 in file .\objects\ipaddress.s
Comment: |i._ZN9IPAddressC1EPKh| used once
4 symbols



ARM Macro Assembler    Page 1 Alphabetic symbol ordering
Relocatable symbols

L3.44 0000002C

Symbol: L3.44
   Definitions
      At line 258 in file .\objects\ipaddress.s
   Uses
      At line 248 in file .\objects\ipaddress.s
Comment: L3.44 used once
_ZN9IPAddressC1Ehhhh 00000000

Symbol: _ZN9IPAddressC1Ehhhh
   Definitions
      At line 238 in file .\objects\ipaddress.s
   Uses
      At line 382 in file .\objects\ipaddress.s
      At line 662 in file C:\\Keil_v5\\ARM\\PACK\\ARM\\CMSIS\\5.0.1\\CMSIS\\Inc
lude\\cmsis_armcc.h

_ZN9IPAddressC2Ehhhh 00000000

Symbol: _ZN9IPAddressC2Ehhhh
   Definitions
      At line 237 in file .\objects\ipaddress.s
   Uses
      At line 661 in file C:\\Keil_v5\\ARM\\PACK\\ARM\\CMSIS\\5.0.1\\CMSIS\\Inc
lude\\cmsis_armcc.h
Comment: _ZN9IPAddressC2Ehhhh used once
|i._ZN9IPAddressC1Ehhhh| 00000000

Symbol: |i._ZN9IPAddressC1Ehhhh|
   Definitions
      At line 235 in file .\objects\ipaddress.s
   Uses
      At line 406 in file .\objects\ipaddress.s
Comment: |i._ZN9IPAddressC1Ehhhh| used once
4 symbols



ARM Macro Assembler    Page 1 Alphabetic symbol ordering
Relocatable symbols

L4.24 00000018

Symbol: L4.24
   Definitions
      At line 278 in file .\objects\ipaddress.s
   Uses
      At line 271 in file .\objects\ipaddress.s
Comment: L4.24 used once
_ZN9IPAddressC1Ej 00000000

Symbol: _ZN9IPAddressC1Ej
   Definitions
      At line 264 in file .\objects\ipaddress.s
   Uses
      At line 664 in file C:\\Keil_v5\\ARM\\PACK\\ARM\\CMSIS\\5.0.1\\CMSIS\\Inc
lude\\cmsis_armcc.h
Comment: _ZN9IPAddressC1Ej used once
_ZN9IPAddressC2Ej 00000000

Symbol: _ZN9IPAddressC2Ej
   Definitions
      At line 263 in file .\objects\ipaddress.s
   Uses
      At line 663 in file C:\\Keil_v5\\ARM\\PACK\\ARM\\CMSIS\\5.0.1\\CMSIS\\Inc
lude\\cmsis_armcc.h
Comment: _ZN9IPAddressC2Ej used once
|i._ZN9IPAddressC1Ej| 00000000

Symbol: |i._ZN9IPAddressC1Ej|
   Definitions
      At line 261 in file .\objects\ipaddress.s
   Uses
      At line 413 in file .\objects\ipaddress.s
Comment: |i._ZN9IPAddressC1Ej| used once
4 symbols



ARM Macro Assembler    Page 1 Alphabetic symbol ordering
Relocatable symbols

L5.24 00000018

Symbol: L5.24
   Definitions
      At line 298 in file .\objects\ipaddress.s
   Uses
      At line 290 in file .\objects\ipaddress.s
Comment: L5.24 used once
_ZN9IPAddressC1Ev 00000000

Symbol: _ZN9IPAddressC1Ev
   Definitions
      At line 284 in file .\objects\ipaddress.s
   Uses
      At line 666 in file C:\\Keil_v5\\ARM\\PACK\\ARM\\CMSIS\\5.0.1\\CMSIS\\Inc
lude\\cmsis_armcc.h
Comment: _ZN9IPAddressC1Ev used once
_ZN9IPAddressC2Ev 00000000

Symbol: _ZN9IPAddressC2Ev
   Definitions
      At line 283 in file .\objects\ipaddress.s
   Uses
      At line 665 in file C:\\Keil_v5\\ARM\\PACK\\ARM\\CMSIS\\5.0.1\\CMSIS\\Inc
lude\\cmsis_armcc.h
Comment: _ZN9IPAddressC2Ev used once
|i._ZN9IPAddressC1Ev| 00000000

Symbol: |i._ZN9IPAddressC1Ev|
   Definitions
      At line 281 in file .\objects\ipaddress.s
   Uses
      At line 399 in file .\objects\ipaddress.s
Comment: |i._ZN9IPAddressC1Ev| used once
4 symbols



ARM Macro Assembler    Page 1 Alphabetic symbol ordering
Relocatable symbols

_ZN9IPAddressaSEPKh 00000000

Symbol: _ZN9IPAddressaSEPKh
   Definitions
      At line 303 in file .\objects\ipaddress.s
   Uses
      At line 667 in file C:\\Keil_v5\\ARM\\PACK\\ARM\\CMSIS\\5.0.1\\CMSIS\\Inc
lude\\cmsis_armcc.h
Comment: _ZN9IPAddressaSEPKh used once
|i._ZN9IPAddressaSEPKh| 00000000

Symbol: |i._ZN9IPAddressaSEPKh|
   Definitions
      At line 301 in file .\objects\ipaddress.s
   Uses
      At line 441 in file .\objects\ipaddress.s
Comment: |i._ZN9IPAddressaSEPKh| used once
2 symbols



ARM Macro Assembler    Page 1 Alphabetic symbol ordering
Relocatable symbols

_ZN9IPAddressaSEj 00000000

Symbol: _ZN9IPAddressaSEj
   Definitions
      At line 312 in file .\objects\ipaddress.s
   Uses
      At line 668 in file C:\\Keil_v5\\ARM\\PACK\\ARM\\CMSIS\\5.0.1\\CMSIS\\Inc
lude\\cmsis_armcc.h
Comment: _ZN9IPAddressaSEj used once
|i._ZN9IPAddressaSEj| 00000000

Symbol: |i._ZN9IPAddressaSEj|
   Definitions
      At line 310 in file .\objects\ipaddress.s
   Uses
      At line 448 in file .\objects\ipaddress.s
Comment: |i._ZN9IPAddressaSEj| used once
2 symbols



ARM Macro Assembler    Page 1 Alphabetic symbol ordering
Relocatable symbols

L8.14 0000000E

Symbol: L8.14
   Definitions
      At line 327 in file .\objects\ipaddress.s
   Uses
      At line 341 in file .\objects\ipaddress.s
Comment: L8.14 used once
L8.40 00000028

Symbol: L8.40
   Definitions
      At line 339 in file .\objects\ipaddress.s
   Uses
      At line 326 in file .\objects\ipaddress.s
Comment: L8.40 used once
_ZNK9IPAddress7printToER5Print 00000000

Symbol: _ZNK9IPAddress7printToER5Print
   Definitions
      At line 320 in file .\objects\ipaddress.s
   Uses
      At line 501 in file .\objects\ipaddress.s
      At line 669 in file C:\\Keil_v5\\ARM\\PACK\\ARM\\CMSIS\\5.0.1\\CMSIS\\Inc
lude\\cmsis_armcc.h

|i._ZNK9IPAddress7printToER5Print| 00000000

Symbol: |i._ZNK9IPAddress7printToER5Print|
   Definitions
      At line 318 in file .\objects\ipaddress.s
   Uses
      At line 455 in file .\objects\ipaddress.s
Comment: |i._ZNK9IPAddress7printToER5Print| used once
4 symbols



ARM Macro Assembler    Page 1 Alphabetic symbol ordering
Relocatable symbols

L9.20 00000014

Symbol: L9.20
   Definitions
      At line 364 in file .\objects\ipaddress.s
   Uses
      At line 368 in file .\objects\ipaddress.s
Comment: L9.20 used once
L9.22 00000016

Symbol: L9.22
   Definitions
      At line 366 in file .\objects\ipaddress.s
   Uses
      At line 362 in file .\objects\ipaddress.s
Comment: L9.22 used once
_ZNK9IPAddresseqEPKh 00000000

Symbol: _ZNK9IPAddresseqEPKh
   Definitions
      At line 354 in file .\objects\ipaddress.s
   Uses
      At line 670 in file C:\\Keil_v5\\ARM\\PACK\\ARM\\CMSIS\\5.0.1\\CMSIS\\Inc
lude\\cmsis_armcc.h
Comment: _ZNK9IPAddresseqEPKh used once
|i._ZNK9IPAddresseqEPKh| 00000000

Symbol: |i._ZNK9IPAddresseqEPKh|
   Definitions
      At line 352 in file .\objects\ipaddress.s
   Uses
      At line 434 in file .\objects\ipaddress.s
Comment: |i._ZNK9IPAddresseqEPKh| used once
4 symbols



ARM Macro Assembler    Page 1 Alphabetic symbol ordering
Relocatable symbols

L10.20 00000014

Symbol: L10.20
   Definitions
      At line 386 in file .\objects\ipaddress.s
   Uses
      At line 381 in file .\objects\ipaddress.s
Comment: L10.20 used once
__sti___13_IPAddress_cpp_dbd866df 00000000

Symbol: __sti___13_IPAddress_cpp_dbd866df
   Definitions
      At line 374 in file .\objects\ipaddress.s
   Uses
      At line 477 in file .\objects\ipaddress.s
      At line 696 in file C:\\Keil_v5\\ARM\\PACK\\ARM\\CMSIS\\5.0.1\\CMSIS\\Inc
lude\\cmsis_armcc.h

|i.__sti___13_IPAddress_cpp_dbd866df| 00000000

Symbol: |i.__sti___13_IPAddress_cpp_dbd866df|
   Definitions
      At line 372 in file .\objects\ipaddress.s
   Uses
      At line 462 in file .\objects\ipaddress.s
Comment: |i.__sti___13_IPAddress_cpp_dbd866df| used once
3 symbols



ARM Macro Assembler    Page 1 Alphabetic symbol ordering
Relocatable symbols

|.ARM.exidx| 00000000

Symbol: |.ARM.exidx|
   Definitions
      At line 389 in file .\objects\ipaddress.s
   Uses
      None
Comment: |.ARM.exidx| unused
1 symbol



ARM Macro Assembler    Page 1 Alphabetic symbol ordering
Relocatable symbols

|area_number.12| 00000000

Symbol: |area_number.12|
   Definitions
      At line 395 in file .\objects\ipaddress.s
   Uses
      None
Comment: |area_number.12| unused
1 symbol



ARM Macro Assembler    Page 1 Alphabetic symbol ordering
Relocatable symbols

|area_number.13| 00000000

Symbol: |area_number.13|
   Definitions
      At line 402 in file .\objects\ipaddress.s
   Uses
      None
Comment: |area_number.13| unused
1 symbol



ARM Macro Assembler    Page 1 Alphabetic symbol ordering
Relocatable symbols

|area_number.14| 00000000

Symbol: |area_number.14|
   Definitions
      At line 409 in file .\objects\ipaddress.s
   Uses
      None
Comment: |area_number.14| unused
1 symbol



ARM Macro Assembler    Page 1 Alphabetic symbol ordering
Relocatable symbols

|area_number.15| 00000000

Symbol: |area_number.15|
   Definitions
      At line 416 in file .\objects\ipaddress.s
   Uses
      None
Comment: |area_number.15| unused
1 symbol



ARM Macro Assembler    Page 1 Alphabetic symbol ordering
Relocatable symbols

|area_number.16| 00000000

Symbol: |area_number.16|
   Definitions
      At line 423 in file .\objects\ipaddress.s
   Uses
      None
Comment: |area_number.16| unused
1 symbol



ARM Macro Assembler    Page 1 Alphabetic symbol ordering
Relocatable symbols

|area_number.17| 00000000

Symbol: |area_number.17|
   Definitions
      At line 430 in file .\objects\ipaddress.s
   Uses
      None
Comment: |area_number.17| unused
1 symbol



ARM Macro Assembler    Page 1 Alphabetic symbol ordering
Relocatable symbols

|area_number.18| 00000000

Symbol: |area_number.18|
   Definitions
      At line 437 in file .\objects\ipaddress.s
   Uses
      None
Comment: |area_number.18| unused
1 symbol



ARM Macro Assembler    Page 1 Alphabetic symbol ordering
Relocatable symbols

|area_number.19| 00000000

Symbol: |area_number.19|
   Definitions
      At line 444 in file .\objects\ipaddress.s
   Uses
      None
Comment: |area_number.19| unused
1 symbol



ARM Macro Assembler    Page 1 Alphabetic symbol ordering
Relocatable symbols

|area_number.20| 00000000

Symbol: |area_number.20|
   Definitions
      At line 451 in file .\objects\ipaddress.s
   Uses
      None
Comment: |area_number.20| unused
1 symbol



ARM Macro Assembler    Page 1 Alphabetic symbol ordering
Relocatable symbols

|area_number.21| 00000000

Symbol: |area_number.21|
   Definitions
      At line 458 in file .\objects\ipaddress.s
   Uses
      None
Comment: |area_number.21| unused
1 symbol



ARM Macro Assembler    Page 1 Alphabetic symbol ordering
Relocatable symbols

|.arm_vfe_header| 00000000

Symbol: |.arm_vfe_header|
   Definitions
      At line 465 in file .\objects\ipaddress.s
   Uses
      None
Comment: |.arm_vfe_header| unused
1 symbol



ARM Macro Assembler    Page 1 Alphabetic symbol ordering
Relocatable symbols

INADDR_NONE 00000000

Symbol: INADDR_NONE
   Definitions
      At line 471 in file .\objects\ipaddress.s
   Uses
      At line 387 in file .\objects\ipaddress.s
      At line 697 in file C:\\Keil_v5\\ARM\\PACK\\ARM\\CMSIS\\5.0.1\\CMSIS\\Inc
lude\\cmsis_armcc.h

|.data| 00000000

Symbol: |.data|
   Definitions
      At line 469 in file .\objects\ipaddress.s
   Uses
      None
Comment: |.data| unused
2 symbols



ARM Macro Assembler    Page 1 Alphabetic symbol ordering
Relocatable symbols

|.init_array| 00000000

Symbol: |.init_array|
   Definitions
      At line 474 in file .\objects\ipaddress.s
   Uses
      None
Comment: |.init_array| unused
1 symbol



ARM Macro Assembler    Page 1 Alphabetic symbol ordering
Relocatable symbols

|.arm_vfe_vtableinfo_ZTV9IPAddress| 00000000

Symbol: |.arm_vfe_vtableinfo_ZTV9IPAddress|
   Definitions
      At line 479 in file .\objects\ipaddress.s
   Uses
      None
Comment: |.arm_vfe_vtableinfo_ZTV9IPAddress| unused
1 symbol



ARM Macro Assembler    Page 1 Alphabetic symbol ordering
Relocatable symbols

_ZTV9IPAddress 00000000

Symbol: _ZTV9IPAddress
   Definitions
      At line 498 in file .\objects\ipaddress.s
   Uses
      At line 233 in file .\objects\ipaddress.s
      At line 259 in file .\objects\ipaddress.s
      At line 279 in file .\objects\ipaddress.s
      At line 299 in file .\objects\ipaddress.s
      At line 671 in file C:\\Keil_v5\\ARM\\PACK\\ARM\\CMSIS\\5.0.1\\CMSIS\\Inc
lude\\cmsis_armcc.h

|.constdata__ZTV9IPAddress| 00000000

Symbol: |.constdata__ZTV9IPAddress|
   Definitions
      At line 496 in file .\objects\ipaddress.s
   Uses
      None
Comment: |.constdata__ZTV9IPAddress| unused
2 symbols



ARM Macro Assembler    Page 1 Alphabetic symbol ordering
Relocatable symbols

L74.8 00000008

Symbol: L74.8
   Definitions
      At line 512 in file .\objects\ipaddress.s
   Uses
      At line 506 in file .\objects\ipaddress.s
Comment: L74.8 used once
_ZN9PrintableC2Ev 00000000

Symbol: _ZN9PrintableC2Ev
   Definitions
      At line 505 in file .\objects\ipaddress.s
   Uses
      At line 221 in file .\objects\ipaddress.s
      At line 246 in file .\objects\ipaddress.s
      At line 269 in file .\objects\ipaddress.s
      At line 288 in file .\objects\ipaddress.s
      At line 672 in file C:\\Keil_v5\\ARM\\PACK\\ARM\\CMSIS\\5.0.1\\CMSIS\\Inc
lude\\cmsis_armcc.h

|i._ZN9PrintableC2Ev| 00000000

Symbol: |i._ZN9PrintableC2Ev|
   Definitions
      At line 503 in file .\objects\ipaddress.s
   Uses
      At line 519 in file .\objects\ipaddress.s
Comment: |i._ZN9PrintableC2Ev| used once
3 symbols



ARM Macro Assembler    Page 1 Alphabetic symbol ordering
Relocatable symbols

|area_number.75| 00000000

Symbol: |area_number.75|
   Definitions
      At line 515 in file .\objects\ipaddress.s
   Uses
      None
Comment: |area_number.75| unused
1 symbol



ARM Macro Assembler    Page 1 Alphabetic symbol ordering
Relocatable symbols

|.arm_vfe_vtableinfo_ZTV9Printable| 00000000

Symbol: |.arm_vfe_vtableinfo_ZTV9Printable|
   Definitions
      At line 522 in file .\objects\ipaddress.s
   Uses
      None
Comment: |.arm_vfe_vtableinfo_ZTV9Printable| unused
1 symbol



ARM Macro Assembler    Page 1 Alphabetic symbol ordering
Relocatable symbols

_ZTV9Printable 00000000

Symbol: _ZTV9Printable
   Definitions
      At line 534 in file .\objects\ipaddress.s
   Uses
      At line 513 in file .\objects\ipaddress.s
      At line 673 in file C:\\Keil_v5\\ARM\\PACK\\ARM\\CMSIS\\5.0.1\\CMSIS\\Inc
lude\\cmsis_armcc.h

|.constdata__ZTV9Printable| 00000000

Symbol: |.constdata__ZTV9Printable|
   Definitions
      At line 532 in file .\objects\ipaddress.s
   Uses
      None
Comment: |.constdata__ZTV9Printable| unused
2 symbols



ARM Macro Assembler    Page 1 Alphabetic symbol ordering
Relocatable symbols

_ZTI9IPAddress 00000000

Symbol: _ZTI9IPAddress
   Definitions
      At line 541 in file .\objects\ipaddress.s
   Uses
      At line 500 in file .\objects\ipaddress.s
      At line 674 in file C:\\Keil_v5\\ARM\\PACK\\ARM\\CMSIS\\5.0.1\\CMSIS\\Inc
lude\\cmsis_armcc.h

|.constdata__ZTI9IPAddress| 00000000

Symbol: |.constdata__ZTI9IPAddress|
   Definitions
      At line 539 in file .\objects\ipaddress.s
   Uses
      None
Comment: |.constdata__ZTI9IPAddress| unused
2 symbols



ARM Macro Assembler    Page 1 Alphabetic symbol ordering
Relocatable symbols

_ZTI9Printable 00000000

Symbol: _ZTI9Printable
   Definitions
      At line 548 in file .\objects\ipaddress.s
   Uses
      At line 536 in file .\objects\ipaddress.s
      At line 544 in file .\objects\ipaddress.s
      At line 675 in file C:\\Keil_v5\\ARM\\PACK\\ARM\\CMSIS\\5.0.1\\CMSIS\\Inc
lude\\cmsis_armcc.h

|.constdata__ZTI9Printable| 00000000

Symbol: |.constdata__ZTI9Printable|
   Definitions
      At line 546 in file .\objects\ipaddress.s
   Uses
      None
Comment: |.constdata__ZTI9Printable| unused
2 symbols



ARM Macro Assembler    Page 1 Alphabetic symbol ordering
Relocatable symbols

_ZTS9IPAddress 00000000

Symbol: _ZTS9IPAddress
   Definitions
      At line 554 in file .\objects\ipaddress.s
   Uses
      At line 543 in file .\objects\ipaddress.s
      At line 676 in file C:\\Keil_v5\\ARM\\PACK\\ARM\\CMSIS\\5.0.1\\CMSIS\\Inc
lude\\cmsis_armcc.h

|.constdata__ZTS9IPAddress| 00000000

Symbol: |.constdata__ZTS9IPAddress|
   Definitions
      At line 552 in file .\objects\ipaddress.s
   Uses
      None
Comment: |.constdata__ZTS9IPAddress| unused
2 symbols



ARM Macro Assembler    Page 1 Alphabetic symbol ordering
Relocatable symbols

_ZTS9Printable 00000000

Symbol: _ZTS9Printable
   Definitions
      At line 561 in file .\objects\ipaddress.s
   Uses
      At line 550 in file .\objects\ipaddress.s
      At line 677 in file C:\\Keil_v5\\ARM\\PACK\\ARM\\CMSIS\\5.0.1\\CMSIS\\Inc
lude\\cmsis_armcc.h

|.constdata__ZTS9Printable| 00000000

Symbol: |.constdata__ZTS9Printable|
   Definitions
      At line 559 in file .\objects\ipaddress.s
   Uses
      None
Comment: |.constdata__ZTS9Printable| unused
2 symbols



ARM Macro Assembler    Page 1 Alphabetic symbol ordering
Relocatable symbols

__asm___13_IPAddress_cpp_dbd866df___Z7__REV16j 00000000

Symbol: __asm___13_IPAddress_cpp_dbd866df___Z7__REV16j
   Definitions
      At line 447 in file C:\\Keil_v5\\ARM\\PACK\\ARM\\CMSIS\\5.0.1\\CMSIS\\Inc
lude\\cmsis_armcc.h
   Uses
      At line 3 in file cores\\IPAddress.cpp
Comment: __asm___13_IPAddress_cpp_dbd866df___Z7__REV16j used once
|.rev16_text| 00000000

Symbol: |.rev16_text|
   Definitions
      At line 1 in file cores\\IPAddress.cpp
   Uses
      None
Comment: |.rev16_text| unused
2 symbols



ARM Macro Assembler    Page 1 Alphabetic symbol ordering
Relocatable symbols

__asm___13_IPAddress_cpp_dbd866df___Z7__REVSHi 00000000

Symbol: __asm___13_IPAddress_cpp_dbd866df___Z7__REVSHi
   Definitions
      At line 462 in file C:\\Keil_v5\\ARM\\PACK\\ARM\\CMSIS\\5.0.1\\CMSIS\\Inc
lude\\cmsis_armcc.h
   Uses
      At line 454 in file C:\\Keil_v5\\ARM\\PACK\\ARM\\CMSIS\\5.0.1\\CMSIS\\Inc
lude\\cmsis_armcc.h
Comment: __asm___13_IPAddress_cpp_dbd866df___Z7__REVSHi used once
|.revsh_text| 00000000

Symbol: |.revsh_text|
   Definitions
      At line 452 in file C:\\Keil_v5\\ARM\\PACK\\ARM\\CMSIS\\5.0.1\\CMSIS\\Inc
lude\\cmsis_armcc.h
   Uses
      None
Comment: |.revsh_text| unused
2 symbols



ARM Macro Assembler    Page 1 Alphabetic symbol ordering
Relocatable symbols

__asm___13_IPAddress_cpp_dbd866df___Z5__RRXj 00000000

Symbol: __asm___13_IPAddress_cpp_dbd866df___Z5__RRXj
   Definitions
      At line 649 in file C:\\Keil_v5\\ARM\\PACK\\ARM\\CMSIS\\5.0.1\\CMSIS\\Inc
lude\\cmsis_armcc.h
   Uses
      At line 469 in file C:\\Keil_v5\\ARM\\PACK\\ARM\\CMSIS\\5.0.1\\CMSIS\\Inc
lude\\cmsis_armcc.h
Comment: __asm___13_IPAddress_cpp_dbd866df___Z5__RRXj used once
|.rrx_text| 00000000

Symbol: |.rrx_text|
   Definitions
      At line 467 in file C:\\Keil_v5\\ARM\\PACK\\ARM\\CMSIS\\5.0.1\\CMSIS\\Inc
lude\\cmsis_armcc.h
   Uses
      None
Comment: |.rrx_text| unused
2 symbols



ARM Macro Assembler    Page 1 Alphabetic symbol ordering
External symbols

_ZN5Print5printEc 00000000

Symbol: _ZN5Print5printEc
   Definitions
      At line 689 in file C:\\Keil_v5\\ARM\\PACK\\ARM\\CMSIS\\5.0.1\\CMSIS\\Inc
lude\\cmsis_armcc.h
   Uses
      At line 336 in file .\objects\ipaddress.s
Comment: _ZN5Print5printEc used once
_ZN5Print5printEhi 00000000

Symbol: _ZN5Print5printEhi
   Definitions
      At line 688 in file C:\\Keil_v5\\ARM\\PACK\\ARM\\CMSIS\\5.0.1\\CMSIS\\Inc
lude\\cmsis_armcc.h
   Uses
      At line 332 in file .\objects\ipaddress.s
      At line 345 in file .\objects\ipaddress.s

_ZTVN10__cxxabiv117__class_type_infoE 00000000

Symbol: _ZTVN10__cxxabiv117__class_type_infoE
   Definitions
      At line 694 in file C:\\Keil_v5\\ARM\\PACK\\ARM\\CMSIS\\5.0.1\\CMSIS\\Inc
lude\\cmsis_armcc.h
   Uses
      At line 549 in file .\objects\ipaddress.s
Comment: _ZTVN10__cxxabiv117__class_type_infoE used once
_ZTVN10__cxxabiv120__si_class_type_infoE 00000000

Symbol: _ZTVN10__cxxabiv120__si_class_type_infoE
   Definitions
      At line 693 in file C:\\Keil_v5\\ARM\\PACK\\ARM\\CMSIS\\5.0.1\\CMSIS\\Inc
lude\\cmsis_armcc.h
   Uses
      At line 542 in file .\objects\ipaddress.s
Comment: _ZTVN10__cxxabiv120__si_class_type_infoE used once
__cxa_pure_virtual 00000000

Symbol: __cxa_pure_virtual
   Definitions
      At line 692 in file C:\\Keil_v5\\ARM\\PACK\\ARM\\CMSIS\\5.0.1\\CMSIS\\Inc
lude\\cmsis_armcc.h
   Uses
      At line 537 in file .\objects\ipaddress.s
Comment: __cxa_pure_virtual used once
memcmp 00000000

Symbol: memcmp
   Definitions
      At line 687 in file C:\\Keil_v5\\ARM\\PACK\\ARM\\CMSIS\\5.0.1\\CMSIS\\Inc
lude\\cmsis_armcc.h
   Uses
      At line 361 in file .\objects\ipaddress.s
Comment: memcmp used once
|$weak$_ZTI9IPAddress| 00000000

Symbol: |$weak$_ZTI9IPAddress|
   Definitions



ARM Macro Assembler    Page 2 Alphabetic symbol ordering
External symbols

      At line 683 in file C:\\Keil_v5\\ARM\\PACK\\ARM\\CMSIS\\5.0.1\\CMSIS\\Inc
lude\\cmsis_armcc.h
   Uses
      At line 484 in file .\objects\ipaddress.s
      At line 491 in file .\objects\ipaddress.s

|$weak$_ZTI9Printable| 00000000

Symbol: |$weak$_ZTI9Printable|
   Definitions
      At line 685 in file C:\\Keil_v5\\ARM\\PACK\\ARM\\CMSIS\\5.0.1\\CMSIS\\Inc
lude\\cmsis_armcc.h
   Uses
      At line 488 in file .\objects\ipaddress.s
      At line 527 in file .\objects\ipaddress.s

|$weak$_ZTV9IPAddress| 00000000

Symbol: |$weak$_ZTV9IPAddress|
   Definitions
      At line 681 in file C:\\Keil_v5\\ARM\\PACK\\ARM\\CMSIS\\5.0.1\\CMSIS\\Inc
lude\\cmsis_armcc.h
   Uses
      At line 481 in file .\objects\ipaddress.s
Comment: |$weak$_ZTV9IPAddress| used once
|$weak$_ZTV9Printable| 00000000

Symbol: |$weak$_ZTV9Printable|
   Definitions
      At line 690 in file C:\\Keil_v5\\ARM\\PACK\\ARM\\CMSIS\\5.0.1\\CMSIS\\Inc
lude\\cmsis_armcc.h
   Uses
      At line 524 in file .\objects\ipaddress.s
Comment: |$weak$_ZTV9Printable| used once
|Lib$$Request$$armlib| 00000000

Symbol: |Lib$$Request$$armlib|
   Definitions
      At line 679 in file C:\\Keil_v5\\ARM\\PACK\\ARM\\CMSIS\\5.0.1\\CMSIS\\Inc
lude\\cmsis_armcc.h
   Uses
      None
Comment: |Lib$$Request$$armlib| unused
|Lib$$Request$$cpplib| 00000000

Symbol: |Lib$$Request$$cpplib|
   Definitions
      At line 680 in file C:\\Keil_v5\\ARM\\PACK\\ARM\\CMSIS\\5.0.1\\CMSIS\\Inc
lude\\cmsis_armcc.h
   Uses
      None
Comment: |Lib$$Request$$cpplib| unused
12 symbols
428 symbols in table
