


ARM Macro Assembler    Page 1 


    1 00000000         ; generated by Component: ARM Compiler 5.06 update 5 (bu
                       ild 528) Tool: ArmCC [4d3621]
    2 00000000         ; commandline ArmCC [--cpp --split_sections --debug -c -
                       S -o.\objects\print.s --depend=.\objects\print.d --cpu=C
                       ortex-M4.fp --apcs=interwork -O0 --diag_suppress=9931 -I
                       .\cores -I.\RTE\Device\XMC4700-F144x2048 -I.\RTE\_Target
                       _1 -IC:\Keil_v5\ARM\PACK\ARM\CMSIS\5.0.1\CMSIS\Include -
                       IC:\Keil_v5\ARM\PACK\Infineon\XMC4000_DFP\2.9.1\Device\X
                       MC4700_series\Include -IC:\Keil_v5\ARM\PACK\Infineon\XMC
                       4000_DFP\2.9.1\Device\XMClib\inc -IC:\Keil_v5\ARM\PACK\I
                       nfineon\XMC4000_DFP\2.9.1\RTE_Driver -D__UVISION_VERSION
                       =524 -D_RTE_ -DXMC4700_F144x2048 --omf_browse=.\objects\
                       print.crf cores\Print.cpp]
    3 00000000                 THUMB
    4 00000000                 REQUIRE8
    5 00000000                 PRESERVE8
    6 00000000         
    7 00000000                 AREA             ||i.NOPS_FOR_USEC||, CODE, READ
ONLY, ALIGN=1
    8 00000000         
    9 00000000         NOPS_FOR_USEC
                               PROC
   10 00000000 BF00            NOP
   11 00000002 BF00            NOP
   12 00000004 BF00            NOP
   13 00000006 BF00            NOP
   14 00000008 BF00            NOP
   15 0000000A BF00            NOP
   16 0000000C BF00            NOP
   17 0000000E BF00            NOP
   18 00000010 BF00            NOP
   19 00000012 BF00            NOP
   20 00000014 BF00            NOP
   21 00000016 BF00            NOP
   22 00000018 BF00            NOP
   23 0000001A BF00            NOP
   24 0000001C BF00            NOP
   25 0000001E BF00            NOP
   26 00000020 BF00            NOP
   27 00000022 BF00            NOP
   28 00000024 BF00            NOP
   29 00000026 BF00            NOP
   30 00000028 BF00            NOP
   31 0000002A BF00            NOP
   32 0000002C BF00            NOP
   33 0000002E BF00            NOP
   34 00000030 BF00            NOP
   35 00000032 BF00            NOP
   36 00000034 BF00            NOP
   37 00000036 BF00            NOP
   38 00000038 BF00            NOP
   39 0000003A BF00            NOP
   40 0000003C BF00            NOP
   41 0000003E BF00            NOP
   42 00000040 BF00            NOP
   43 00000042 BF00            NOP
   44 00000044 BF00            NOP
   45 00000046 BF00            NOP
   46 00000048 BF00            NOP



ARM Macro Assembler    Page 2 


   47 0000004A BF00            NOP
   48 0000004C BF00            NOP
   49 0000004E BF00            NOP
   50 00000050 BF00            NOP
   51 00000052 BF00            NOP
   52 00000054 BF00            NOP
   53 00000056 BF00            NOP
   54 00000058 BF00            NOP
   55 0000005A BF00            NOP
   56 0000005C BF00            NOP
   57 0000005E BF00            NOP
   58 00000060 BF00            NOP
   59 00000062 BF00            NOP
   60 00000064 BF00            NOP
   61 00000066 BF00            NOP
   62 00000068 BF00            NOP
   63 0000006A BF00            NOP
   64 0000006C BF00            NOP
   65 0000006E BF00            NOP
   66 00000070 BF00            NOP
   67 00000072 BF00            NOP
   68 00000074 BF00            NOP
   69 00000076 BF00            NOP
   70 00000078 BF00            NOP
   71 0000007A BF00            NOP
   72 0000007C BF00            NOP
   73 0000007E BF00            NOP
   74 00000080 BF00            NOP
   75 00000082 BF00            NOP
   76 00000084 BF00            NOP
   77 00000086 BF00            NOP
   78 00000088 BF00            NOP
   79 0000008A BF00            NOP
   80 0000008C BF00            NOP
   81 0000008E BF00            NOP
   82 00000090 BF00            NOP
   83 00000092 BF00            NOP
   84 00000094 BF00            NOP
   85 00000096 BF00            NOP
   86 00000098 BF00            NOP
   87 0000009A BF00            NOP
   88 0000009C BF00            NOP
   89 0000009E BF00            NOP
   90 000000A0 BF00            NOP
   91 000000A2 BF00            NOP
   92 000000A4 BF00            NOP
   93 000000A6 BF00            NOP
   94 000000A8 BF00            NOP
   95 000000AA BF00            NOP
   96 000000AC BF00            NOP
   97 000000AE BF00            NOP
   98 000000B0 BF00            NOP
   99 000000B2 BF00            NOP
  100 000000B4 BF00            NOP
  101 000000B6 BF00            NOP
  102 000000B8 BF00            NOP
  103 000000BA BF00            NOP
  104 000000BC BF00            NOP
  105 000000BE BF00            NOP



ARM Macro Assembler    Page 3 


  106 000000C0 BF00            NOP
  107 000000C2 BF00            NOP
  108 000000C4 BF00            NOP
  109 000000C6 BF00            NOP
  110 000000C8 BF00            NOP
  111 000000CA BF00            NOP
  112 000000CC BF00            NOP
  113 000000CE BF00            NOP
  114 000000D0 BF00            NOP
  115 000000D2 BF00            NOP
  116 000000D4 BF00            NOP
  117 000000D6 BF00            NOP
  118 000000D8 BF00            NOP
  119 000000DA BF00            NOP
  120 000000DC BF00            NOP
  121 000000DE BF00            NOP
  122 000000E0 BF00            NOP
  123 000000E2 BF00            NOP
  124 000000E4 BF00            NOP
  125 000000E6 BF00            NOP
  126 000000E8 BF00            NOP
  127 000000EA BF00            NOP
  128 000000EC BF00            NOP
  129 000000EE BF00            NOP
  130 000000F0 BF00            NOP
  131 000000F2 BF00            NOP
  132 000000F4 BF00            NOP
  133 000000F6 BF00            NOP
  134 000000F8 BF00            NOP
  135 000000FA BF00            NOP
  136 000000FC BF00            NOP
  137 000000FE BF00            NOP
  138 00000100 BF00            NOP
  139 00000102 BF00            NOP
  140 00000104 BF00            NOP
  141 00000106 BF00            NOP
  142 00000108 BF00            NOP
  143 0000010A BF00            NOP
  144 0000010C BF00            NOP
  145 0000010E BF00            NOP
  146 00000110 BF00            NOP
  147 00000112 BF00            NOP
  148 00000114 BF00            NOP
  149 00000116 BF00            NOP
  150 00000118 BF00            NOP
  151 0000011A BF00            NOP
  152 0000011C 4770            BX               lr
  153 0000011E                 ENDP
  154 0000011E         
  155 0000011E         
  156 0000011E                 AREA             ||i._ZN5Print10printFloatEdh||,
 CODE, READONLY, ALIGN=2
  157 00000000         
  158 00000000         _ZN5Print10printFloatEdh
                               PROC
  159 00000000 E92D 41F0       PUSH             {r4-r8,lr}
  160 00000004 ED2D 8B08       VPUSH            {d8-d11}
  161 00000008 B082            SUB              sp,sp,#8
  162 0000000A 4607            MOV              r7,r0



ARM Macro Assembler    Page 4 


  163 0000000C EEB0 8A40       VMOV.F32         s16,s0
  164 00000010 EEF0 8A60       VMOV.F32         s17,s1
  165 00000014 460D            MOV              r5,r1
  166 00000016 2400            MOVS             r4,#0
  167 00000018 ED8D 8B00       VSTR             d8,[sp,#0]
  168 0000001C E9DD 2100       LDRD             r2,r1,[sp,#0]
  169 00000020 B10A            CBZ              r2,|L1.38|
  170 00000022 2201            MOVS             r2,#1
  171 00000024 E000            B                |L1.40|
  172 00000026         |L1.38|
  173 00000026 2200            MOVS             r2,#0
  174 00000028         |L1.40|
  175 00000028 EA41 0002       ORR              r0,r1,r2
  176 0000002C F020 4100       BIC              r1,r0,#0x80000000
  177 00000030 4A57            LDR              r2,|L1.400|
  178 00000032 1A51            SUBS             r1,r2,r1
  179 00000034 0FC9            LSRS             r1,r1,#31
  180 00000036 B141            CBZ              r1,|L1.74|
  181 00000038 A156            ADR              r1,|L1.404|
  182 0000003A 4638            MOV              r0,r7
  183 0000003C F7FF FFFE       BL               _ZN5Print5printEPKc
  184 00000040         |L1.64|
  185 00000040 B002            ADD              sp,sp,#8
  186 00000042 ECBD 8B08       VPOP             {d8-d11}
  187 00000046 E8BD 81F0       POP              {r4-r8,pc}
  188 0000004A         |L1.74|
  189 0000004A ED8D 8B00       VSTR             d8,[sp,#0]
  190 0000004E 4952            LDR              r1,|L1.408|
  191 00000050 9801            LDR              r0,[sp,#4]
  192 00000052 EBB1 0F40       CMP              r1,r0,LSL #1
  193 00000056 D103            BNE              |L1.96|
  194 00000058 9800            LDR              r0,[sp,#0]
  195 0000005A B908            CBNZ             r0,|L1.96|
  196 0000005C 2001            MOVS             r0,#1
  197 0000005E E000            B                |L1.98|
  198 00000060         |L1.96|
  199 00000060 2000            MOVS             r0,#0
  200 00000062         |L1.98|
  201 00000062 B120            CBZ              r0,|L1.110|
  202 00000064 A14D            ADR              r1,|L1.412|
  203 00000066 4638            MOV              r0,r7
  204 00000068 F7FF FFFE       BL               _ZN5Print5printEPKc
  205 0000006C E7E8            B                |L1.64|
  206 0000006E         |L1.110|
  207 0000006E ED9F 0B4C       VLDR             d0,|L1.416|
  208 00000072 EC53 2B10       VMOV             r2,r3,d0
  209 00000076 EC51 0B18       VMOV             r0,r1,d8
  210 0000007A F7FF FFFE       BL               __aeabi_cdrcmple
  211 0000007E D204            BCS              |L1.138|
  212 00000080 A149            ADR              r1,|L1.424|
  213 00000082 4638            MOV              r0,r7
  214 00000084 F7FF FFFE       BL               _ZN5Print5printEPKc
  215 00000088 E7DA            B                |L1.64|
  216 0000008A         |L1.138|
  217 0000008A ED9F 0B48       VLDR             d0,|L1.428|
  218 0000008E EC53 2B10       VMOV             r2,r3,d0
  219 00000092 EC51 0B18       VMOV             r0,r1,d8
  220 00000096 F7FF FFFE       BL               __aeabi_cdcmple
  221 0000009A D204            BCS              |L1.166|



ARM Macro Assembler    Page 5 


  222 0000009C A142            ADR              r1,|L1.424|
  223 0000009E 4638            MOV              r0,r7
  224 000000A0 F7FF FFFE       BL               _ZN5Print5printEPKc
  225 000000A4 E7CC            B                |L1.64|
  226 000000A6         |L1.166|
  227 000000A6 ED9F 0B43       VLDR             d0,|L1.436|
  228 000000AA EC53 2B10       VMOV             r2,r3,d0
  229 000000AE EC51 0B18       VMOV             r0,r1,d8
  230 000000B2 F7FF FFFE       BL               __aeabi_cdcmple
  231 000000B6 D20A            BCS              |L1.206|
  232 000000B8 212D            MOVS             r1,#0x2d
  233 000000BA 4638            MOV              r0,r7
  234 000000BC F7FF FFFE       BL               _ZN5Print5printEc
  235 000000C0 4404            ADD              r4,r4,r0
  236 000000C2 EC51 0B18       VMOV             r0,r1,d8
  237 000000C6 F7FF FFFE       BL               __aeabi_dneg
  238 000000CA EC41 0B18       VMOV             d8,r0,r1
  239 000000CE         |L1.206|
  240 000000CE ED9F 9B3B       VLDR             d9,|L1.444|
  241 000000D2 2600            MOVS             r6,#0
  242 000000D4 E00B            B                |L1.238|
  243 000000D6         |L1.214|
  244 000000D6 ED9F 0B3B       VLDR             d0,|L1.452|
  245 000000DA EC53 2B10       VMOV             r2,r3,d0
  246 000000DE EC51 0B19       VMOV             r0,r1,d9
  247 000000E2 F7FF FFFE       BL               __aeabi_ddiv
  248 000000E6 EC41 0B19       VMOV             d9,r0,r1
  249 000000EA 1C70            ADDS             r0,r6,#1
  250 000000EC B2C6            UXTB             r6,r0
  251 000000EE         |L1.238|
  252 000000EE 42AE            CMP              r6,r5
  253 000000F0 DBF1            BLT              |L1.214|
  254 000000F2 EC53 2B19       VMOV             r2,r3,d9
  255 000000F6 EC51 0B18       VMOV             r0,r1,d8
  256 000000FA F7FF FFFE       BL               __aeabi_dadd
  257 000000FE EC41 0B18       VMOV             d8,r0,r1
  258 00000102 EC51 0B18       VMOV             r0,r1,d8
  259 00000106 F7FF FFFE       BL               __aeabi_d2uiz
  260 0000010A 4680            MOV              r8,r0
  261 0000010C 4640            MOV              r0,r8
  262 0000010E F7FF FFFE       BL               __aeabi_ui2d
  263 00000112 EC41 0B1B       VMOV             d11,r0,r1
  264 00000116 EC53 2B18       VMOV             r2,r3,d8
  265 0000011A F7FF FFFE       BL               __aeabi_drsub
  266 0000011E EC41 0B1A       VMOV             d10,r0,r1
  267 00000122 220A            MOVS             r2,#0xa
  268 00000124 4641            MOV              r1,r8
  269 00000126 4638            MOV              r0,r7
  270 00000128 F7FF FFFE       BL               _ZN5Print5printEmi
  271 0000012C 4404            ADD              r4,r4,r0
  272 0000012E 2D00            CMP              r5,#0
  273 00000130 DD04            BLE              |L1.316|
  274 00000132 A126            ADR              r1,|L1.460|
  275 00000134 4638            MOV              r0,r7
  276 00000136 F7FF FFFE       BL               _ZN5Print5printEPKc
  277 0000013A 4404            ADD              r4,r4,r0
  278 0000013C         |L1.316|
  279 0000013C E020            B                |L1.384|
  280 0000013E         |L1.318|



ARM Macro Assembler    Page 6 


  281 0000013E ED9F 0B21       VLDR             d0,|L1.452|
  282 00000142 EC53 2B10       VMOV             r2,r3,d0
  283 00000146 EC51 0B1A       VMOV             r0,r1,d10
  284 0000014A F7FF FFFE       BL               __aeabi_dmul
  285 0000014E EC41 0B1A       VMOV             d10,r0,r1
  286 00000152 EC51 0B1A       VMOV             r0,r1,d10
  287 00000156 F7FF FFFE       BL               __aeabi_d2uiz
  288 0000015A 4606            MOV              r6,r0
  289 0000015C 220A            MOVS             r2,#0xa
  290 0000015E 4631            MOV              r1,r6
  291 00000160 4638            MOV              r0,r7
  292 00000162 F7FF FFFE       BL               _ZN5Print5printEji
  293 00000166 4404            ADD              r4,r4,r0
  294 00000168 4630            MOV              r0,r6
  295 0000016A F7FF FFFE       BL               __aeabi_ui2d
  296 0000016E EC41 0B1B       VMOV             d11,r0,r1
  297 00000172 EC53 2B1A       VMOV             r2,r3,d10
  298 00000176 F7FF FFFE       BL               __aeabi_drsub
  299 0000017A EC41 0B1A       VMOV             d10,r0,r1
  300 0000017E BF00            NOP
  301 00000180         |L1.384|
  302 00000180 1E28            SUBS             r0,r5,#0
  303 00000182 F1A5 0101       SUB              r1,r5,#1
  304 00000186 B2CD            UXTB             r5,r1
  305 00000188 DCD9            BGT              |L1.318|
  306 0000018A 4620            MOV              r0,r4
  307 0000018C E758            B                |L1.64|
  308 0000018E                 ENDP
  309 0000018E         
  310 0000018E 00 00           DCW              0x0000
  311 00000190         |L1.400|
  312 00000190 7FF00000        DCD              0x7ff00000
  313 00000194         |L1.404|
  314 00000194 6E 61 6E 
              00               DCB              "nan",0
  315 00000198         |L1.408|
  316 00000198 FFE00000        DCD              0xffe00000
  317 0000019C         |L1.412|
  318 0000019C 69 6E 66 
              00               DCB              "inf",0
  319 000001A0         |L1.416|
  320 000001A0 E0000000 
              41EFFFFF         DCFD             0x41efffffe0000000 ; 4294967040
                                                            
  321 000001A8         |L1.424|
  322 000001A8 6F 76 66 
              00               DCB              "ovf",0
  323 000001AC         |L1.428|
  324 000001AC E0000000 
              C1EFFFFF         DCFD             0xc1efffffe0000000 
                                                            ; -4294967040
  325 000001B4         |L1.436|
  326 000001B4 00000000 
              00000000         DCFD             0x0000000000000000 ; 0
  327 000001BC         |L1.444|
  328 000001BC 00000000 
              3FE00000         DCFD             0x3fe0000000000000 ; 0.5
  329 000001C4         |L1.452|
  330 000001C4 00000000 



ARM Macro Assembler    Page 7 


              40240000         DCFD             0x4024000000000000 ; 10
  331 000001CC         |L1.460|
  332 000001CC 2E 00           DCB              ".",0
  333 000001CE 00              DCB              0
  334 000001CF 00              DCB              0
  335 000001D0         
  336 000001D0                 AREA             ||i._ZN5Print11printNumberEmh||
, CODE, READONLY, ALIGN=1
  337 00000000         
  338 00000000         _ZN5Print11printNumberEmh
                               PROC
  339 00000000 B5F0            PUSH             {r4-r7,lr}
  340 00000002 B089            SUB              sp,sp,#0x24
  341 00000004 4607            MOV              r7,r0
  342 00000006 460C            MOV              r4,r1
  343 00000008 4615            MOV              r5,r2
  344 0000000A AE08            ADD              r6,sp,#0x20
  345 0000000C 2000            MOVS             r0,#0
  346 0000000E 7030            STRB             r0,[r6,#0]
  347 00000010 2D02            CMP              r5,#2
  348 00000012 DA00            BGE              |L2.22|
  349 00000014 250A            MOVS             r5,#0xa
  350 00000016         |L2.22|
  351 00000016 BF00            NOP
  352 00000018         |L2.24|
  353 00000018 FBB4 F1F5       UDIV             r1,r4,r5
  354 0000001C FB05 4111       MLS              r1,r5,r1,r4
  355 00000020 B2C8            UXTB             r0,r1
  356 00000022 FBB4 F4F5       UDIV             r4,r4,r5
  357 00000026 280A            CMP              r0,#0xa
  358 00000028 DA02            BGE              |L2.48|
  359 0000002A F100 0130       ADD              r1,r0,#0x30
  360 0000002E E001            B                |L2.52|
  361 00000030         |L2.48|
  362 00000030 F100 0137       ADD              r1,r0,#0x37
  363 00000034         |L2.52|
  364 00000034 B2CA            UXTB             r2,r1
  365 00000036 1E71            SUBS             r1,r6,#1
  366 00000038 460E            MOV              r6,r1
  367 0000003A 700A            STRB             r2,[r1,#0]
  368 0000003C 2C00            CMP              r4,#0
  369 0000003E D1EB            BNE              |L2.24|
  370 00000040 4631            MOV              r1,r6
  371 00000042 4638            MOV              r0,r7
  372 00000044 F7FF FFFE       BL               _ZN5Print5writeEPKc
  373 00000048 B009            ADD              sp,sp,#0x24
  374 0000004A BDF0            POP              {r4-r7,pc}
  375 0000004C                 ENDP
  376 0000004C         
  377 0000004C         
  378 0000004C                 AREA             ||i._ZN5Print5printEPK19__Flash
StringHelper||, CODE, READONLY, ALIGN=1
  379 00000000         
  380 00000000         _ZN5Print5printEPK19__FlashStringHelper
                               PROC
  381 00000000 B570            PUSH             {r4-r6,lr}
  382 00000002 4604            MOV              r4,r0
  383 00000004 460D            MOV              r5,r1
  384 00000006 4629            MOV              r1,r5



ARM Macro Assembler    Page 8 


  385 00000008 4620            MOV              r0,r4
  386 0000000A F7FF FFFE       BL               _ZN5Print5printEPKc
  387 0000000E BD70            POP              {r4-r6,pc}
  388 00000010                 ENDP
  389 00000010         
  390 00000010         
  391 00000010                 AREA             ||i._ZN5Print5printEPKc||, CODE
, READONLY, ALIGN=1
  392 00000000         
  393 00000000         _ZN5Print5printEPKc
                               PROC
  394 00000000 B570            PUSH             {r4-r6,lr}
  395 00000002 4604            MOV              r4,r0
  396 00000004 460D            MOV              r5,r1
  397 00000006 4629            MOV              r1,r5
  398 00000008 4620            MOV              r0,r4
  399 0000000A F7FF FFFE       BL               _ZN5Print5writeEPKc
  400 0000000E BD70            POP              {r4-r6,pc}
  401 00000010                 ENDP
  402 00000010         
  403 00000010         
  404 00000010                 AREA             ||i._ZN5Print5printERK6String||
, CODE, READONLY, ALIGN=1
  405 00000000         
  406 00000000         _ZN5Print5printERK6String
                               PROC
  407 00000000 E92D 41F0       PUSH             {r4-r8,lr}
  408 00000004 4604            MOV              r4,r0
  409 00000006 460D            MOV              r5,r1
  410 00000008 BF00            NOP
  411 0000000A 682E            LDR              r6,[r5,#0]
  412 0000000C BF00            NOP
  413 0000000E 68AF            LDR              r7,[r5,#8]
  414 00000010 BF00            NOP
  415 00000012 6820            LDR              r0,[r4,#0]
  416 00000014 463A            MOV              r2,r7
  417 00000016 4631            MOV              r1,r6
  418 00000018 6843            LDR              r3,[r0,#4]
  419 0000001A 4620            MOV              r0,r4
  420 0000001C 4798            BLX              r3
  421 0000001E E8BD 81F0       POP              {r4-r8,pc}
  422 00000022                 ENDP
  423 00000022         
  424 00000022         
  425 00000022                 AREA             ||i._ZN5Print5printERK9Printabl
e||, CODE, READONLY, ALIGN=1
  426 00000000         
  427 00000000         _ZN5Print5printERK9Printable
                               PROC
  428 00000000 B570            PUSH             {r4-r6,lr}
  429 00000002 4605            MOV              r5,r0
  430 00000004 460C            MOV              r4,r1
  431 00000006 6820            LDR              r0,[r4,#0]
  432 00000008 4629            MOV              r1,r5
  433 0000000A 6802            LDR              r2,[r0,#0]
  434 0000000C 4620            MOV              r0,r4
  435 0000000E 4790            BLX              r2
  436 00000010 BD70            POP              {r4-r6,pc}
  437 00000012                 ENDP



ARM Macro Assembler    Page 9 


  438 00000012         
  439 00000012         
  440 00000012                 AREA             ||i._ZN5Print5printEc||, CODE, 
READONLY, ALIGN=1
  441 00000000         
  442 00000000         _ZN5Print5printEc
                               PROC
  443 00000000 B570            PUSH             {r4-r6,lr}
  444 00000002 4604            MOV              r4,r0
  445 00000004 460D            MOV              r5,r1
  446 00000006 6820            LDR              r0,[r4,#0]
  447 00000008 4629            MOV              r1,r5
  448 0000000A 6802            LDR              r2,[r0,#0]
  449 0000000C 4620            MOV              r0,r4
  450 0000000E 4790            BLX              r2
  451 00000010 BD70            POP              {r4-r6,pc}
  452 00000012                 ENDP
  453 00000012         
  454 00000012         
  455 00000012                 AREA             ||i._ZN5Print5printEdi||, CODE,
 READONLY, ALIGN=1
  456 00000000         
  457 00000000         _ZN5Print5printEdi
                               PROC
  458 00000000 B570            PUSH             {r4-r6,lr}
  459 00000002 ED2D 8B02       VPUSH            {d8}
  460 00000006 4605            MOV              r5,r0
  461 00000008 EEB0 8A40       VMOV.F32         s16,s0
  462 0000000C EEF0 8A60       VMOV.F32         s17,s1
  463 00000010 460C            MOV              r4,r1
  464 00000012 B2E1            UXTB             r1,r4
  465 00000014 EEB0 0A48       VMOV.F32         s0,s16
  466 00000018 EEF0 0A68       VMOV.F32         s1,s17
  467 0000001C 4628            MOV              r0,r5
  468 0000001E F7FF FFFE       BL               _ZN5Print10printFloatEdh
  469 00000022 ECBD 8B02       VPOP             {d8}
  470 00000026 BD70            POP              {r4-r6,pc}
  471 00000028                 ENDP
  472 00000028         
  473 00000028         
  474 00000028                 AREA             ||i._ZN5Print5printEhi||, CODE,
 READONLY, ALIGN=1
  475 00000000         
  476 00000000         _ZN5Print5printEhi
                               PROC
  477 00000000 B570            PUSH             {r4-r6,lr}
  478 00000002 4604            MOV              r4,r0
  479 00000004 460D            MOV              r5,r1
  480 00000006 4616            MOV              r6,r2
  481 00000008 4632            MOV              r2,r6
  482 0000000A 4629            MOV              r1,r5
  483 0000000C 4620            MOV              r0,r4
  484 0000000E F7FF FFFE       BL               _ZN5Print5printEmi
  485 00000012 BD70            POP              {r4-r6,pc}
  486 00000014                 ENDP
  487 00000014         
  488 00000014         
  489 00000014                 AREA             ||i._ZN5Print5printEii||, CODE,
 READONLY, ALIGN=1



ARM Macro Assembler    Page 10 


  490 00000000         
  491 00000000         _ZN5Print5printEii
                               PROC
  492 00000000 B570            PUSH             {r4-r6,lr}
  493 00000002 4604            MOV              r4,r0
  494 00000004 460D            MOV              r5,r1
  495 00000006 4616            MOV              r6,r2
  496 00000008 4632            MOV              r2,r6
  497 0000000A 4629            MOV              r1,r5
  498 0000000C 4620            MOV              r0,r4
  499 0000000E F7FF FFFE       BL               _ZN5Print5printEli
  500 00000012 BD70            POP              {r4-r6,pc}
  501 00000014                 ENDP
  502 00000014         
  503 00000014         
  504 00000014                 AREA             ||i._ZN5Print5printEji||, CODE,
 READONLY, ALIGN=1
  505 00000000         
  506 00000000         _ZN5Print5printEji
                               PROC
  507 00000000 B570            PUSH             {r4-r6,lr}
  508 00000002 4604            MOV              r4,r0
  509 00000004 460D            MOV              r5,r1
  510 00000006 4616            MOV              r6,r2
  511 00000008 4632            MOV              r2,r6
  512 0000000A 4629            MOV              r1,r5
  513 0000000C 4620            MOV              r0,r4
  514 0000000E F7FF FFFE       BL               _ZN5Print5printEmi
  515 00000012 BD70            POP              {r4-r6,pc}
  516 00000014                 ENDP
  517 00000014         
  518 00000014         
  519 00000014                 AREA             ||i._ZN5Print5printEli||, CODE,
 READONLY, ALIGN=1
  520 00000000         
  521 00000000         _ZN5Print5printEli
                               PROC
  522 00000000 E92D 41F0       PUSH             {r4-r8,lr}
  523 00000004 4606            MOV              r6,r0
  524 00000006 460C            MOV              r4,r1
  525 00000008 4615            MOV              r5,r2
  526 0000000A B935            CBNZ             r5,|L12.26|
  527 0000000C B2E1            UXTB             r1,r4
  528 0000000E 6830            LDR              r0,[r6,#0]
  529 00000010 6802            LDR              r2,[r0,#0]
  530 00000012 4630            MOV              r0,r6
  531 00000014 4790            BLX              r2
  532 00000016         |L12.22|
  533 00000016 E8BD 81F0       POP              {r4-r8,pc}
  534 0000001A         |L12.26|
  535 0000001A 2D0A            CMP              r5,#0xa
  536 0000001C D114            BNE              |L12.72|
  537 0000001E 2C00            CMP              r4,#0
  538 00000020 DA0C            BGE              |L12.60|
  539 00000022 212D            MOVS             r1,#0x2d
  540 00000024 4630            MOV              r0,r6
  541 00000026 F7FF FFFE       BL               _ZN5Print5printEc
  542 0000002A 4607            MOV              r7,r0
  543 0000002C 4264            RSBS             r4,r4,#0



ARM Macro Assembler    Page 11 


  544 0000002E 220A            MOVS             r2,#0xa
  545 00000030 4621            MOV              r1,r4
  546 00000032 4630            MOV              r0,r6
  547 00000034 F7FF FFFE       BL               _ZN5Print11printNumberEmh
  548 00000038 4438            ADD              r0,r0,r7
  549 0000003A E7EC            B                |L12.22|
  550 0000003C         |L12.60|
  551 0000003C 220A            MOVS             r2,#0xa
  552 0000003E 4621            MOV              r1,r4
  553 00000040 4630            MOV              r0,r6
  554 00000042 F7FF FFFE       BL               _ZN5Print11printNumberEmh
  555 00000046 E7E6            B                |L12.22|
  556 00000048         |L12.72|
  557 00000048 B2EA            UXTB             r2,r5
  558 0000004A 4621            MOV              r1,r4
  559 0000004C 4630            MOV              r0,r6
  560 0000004E F7FF FFFE       BL               _ZN5Print11printNumberEmh
  561 00000052 E7E0            B                |L12.22|
  562 00000054                 ENDP
  563 00000054         
  564 00000054         
  565 00000054                 AREA             ||i._ZN5Print5printEmi||, CODE,
 READONLY, ALIGN=1
  566 00000000         
  567 00000000         _ZN5Print5printEmi
                               PROC
  568 00000000 B570            PUSH             {r4-r6,lr}
  569 00000002 4605            MOV              r5,r0
  570 00000004 460E            MOV              r6,r1
  571 00000006 4614            MOV              r4,r2
  572 00000008 B92C            CBNZ             r4,|L13.22|
  573 0000000A B2F1            UXTB             r1,r6
  574 0000000C 6828            LDR              r0,[r5,#0]
  575 0000000E 6802            LDR              r2,[r0,#0]
  576 00000010 4628            MOV              r0,r5
  577 00000012 4790            BLX              r2
  578 00000014         |L13.20|
  579 00000014 BD70            POP              {r4-r6,pc}
  580 00000016         |L13.22|
  581 00000016 B2E2            UXTB             r2,r4
  582 00000018 4631            MOV              r1,r6
  583 0000001A 4628            MOV              r0,r5
  584 0000001C F7FF FFFE       BL               _ZN5Print11printNumberEmh
  585 00000020 E7F8            B                |L13.20|
  586 00000022                 ENDP
  587 00000022         
  588 00000022         
  589 00000022                 AREA             ||i._ZN5Print5writeEPKhj||, COD
E, READONLY, ALIGN=1
  590 00000000         
  591 00000000         _ZN5Print5writeEPKhj
                               PROC
  592 00000000 E92D 41F0       PUSH             {r4-r8,lr}
  593 00000004 4605            MOV              r5,r0
  594 00000006 460C            MOV              r4,r1
  595 00000008 4616            MOV              r6,r2
  596 0000000A 2700            MOVS             r7,#0
  597 0000000C E009            B                |L14.34|
  598 0000000E         |L14.14|



ARM Macro Assembler    Page 12 


  599 0000000E F814 1B01       LDRB             r1,[r4],#1
  600 00000012 6828            LDR              r0,[r5,#0]
  601 00000014 6802            LDR              r2,[r0,#0]
  602 00000016 4628            MOV              r0,r5
  603 00000018 4790            BLX              r2
  604 0000001A B108            CBZ              r0,|L14.32|
  605 0000001C 1C7F            ADDS             r7,r7,#1
  606 0000001E E000            B                |L14.34|
  607 00000020         |L14.32|
  608 00000020 E003            B                |L14.42|
  609 00000022         |L14.34|
  610 00000022 1E30            SUBS             r0,r6,#0
  611 00000024 F1A6 0601       SUB              r6,r6,#1
  612 00000028 D1F1            BNE              |L14.14|
  613 0000002A         |L14.42|
  614 0000002A BF00            NOP
  615 0000002C 4638            MOV              r0,r7
  616 0000002E E8BD 81F0       POP              {r4-r8,pc}
  617 00000032                 ENDP
  618 00000032         
  619 00000032         
  620 00000032                 AREA             ||i._ZN5Print7printlnEPK19__Fla
shStringHelper||, CODE, READONLY, ALIGN=1
  621 00000000         
  622 00000000         _ZN5Print7printlnEPK19__FlashStringHelper
                               PROC
  623 00000000 B570            PUSH             {r4-r6,lr}
  624 00000002 4605            MOV              r5,r0
  625 00000004 460E            MOV              r6,r1
  626 00000006 4631            MOV              r1,r6
  627 00000008 4628            MOV              r0,r5
  628 0000000A F7FF FFFE       BL               _ZN5Print5printEPK19__FlashStri
ngHelper
  629 0000000E 4604            MOV              r4,r0
  630 00000010 4628            MOV              r0,r5
  631 00000012 F7FF FFFE       BL               _ZN5Print7printlnEv
  632 00000016 4404            ADD              r4,r4,r0
  633 00000018 4620            MOV              r0,r4
  634 0000001A BD70            POP              {r4-r6,pc}
  635 0000001C                 ENDP
  636 0000001C         
  637 0000001C         
  638 0000001C                 AREA             ||i._ZN5Print7printlnEPKc||, CO
DE, READONLY, ALIGN=1
  639 00000000         
  640 00000000         _ZN5Print7printlnEPKc
                               PROC
  641 00000000 B570            PUSH             {r4-r6,lr}
  642 00000002 4605            MOV              r5,r0
  643 00000004 460E            MOV              r6,r1
  644 00000006 4631            MOV              r1,r6
  645 00000008 4628            MOV              r0,r5
  646 0000000A F7FF FFFE       BL               _ZN5Print5printEPKc
  647 0000000E 4604            MOV              r4,r0
  648 00000010 4628            MOV              r0,r5
  649 00000012 F7FF FFFE       BL               _ZN5Print7printlnEv
  650 00000016 4404            ADD              r4,r4,r0
  651 00000018 4620            MOV              r0,r4
  652 0000001A BD70            POP              {r4-r6,pc}



ARM Macro Assembler    Page 13 


  653 0000001C                 ENDP
  654 0000001C         
  655 0000001C         
  656 0000001C                 AREA             ||i._ZN5Print7printlnERK6String
||, CODE, READONLY, ALIGN=1
  657 00000000         
  658 00000000         _ZN5Print7printlnERK6String
                               PROC
  659 00000000 B570            PUSH             {r4-r6,lr}
  660 00000002 4605            MOV              r5,r0
  661 00000004 460E            MOV              r6,r1
  662 00000006 4631            MOV              r1,r6
  663 00000008 4628            MOV              r0,r5
  664 0000000A F7FF FFFE       BL               _ZN5Print5printERK6String
  665 0000000E 4604            MOV              r4,r0
  666 00000010 4628            MOV              r0,r5
  667 00000012 F7FF FFFE       BL               _ZN5Print7printlnEv
  668 00000016 4404            ADD              r4,r4,r0
  669 00000018 4620            MOV              r0,r4
  670 0000001A BD70            POP              {r4-r6,pc}
  671 0000001C                 ENDP
  672 0000001C         
  673 0000001C         
  674 0000001C                 AREA             ||i._ZN5Print7printlnERK9Printa
ble||, CODE, READONLY, ALIGN=1
  675 00000000         
  676 00000000         _ZN5Print7printlnERK9Printable
                               PROC
  677 00000000 B570            PUSH             {r4-r6,lr}
  678 00000002 4605            MOV              r5,r0
  679 00000004 460E            MOV              r6,r1
  680 00000006 4631            MOV              r1,r6
  681 00000008 4628            MOV              r0,r5
  682 0000000A F7FF FFFE       BL               _ZN5Print5printERK9Printable
  683 0000000E 4604            MOV              r4,r0
  684 00000010 4628            MOV              r0,r5
  685 00000012 F7FF FFFE       BL               _ZN5Print7printlnEv
  686 00000016 4404            ADD              r4,r4,r0
  687 00000018 4620            MOV              r0,r4
  688 0000001A BD70            POP              {r4-r6,pc}
  689 0000001C                 ENDP
  690 0000001C         
  691 0000001C         
  692 0000001C                 AREA             ||i._ZN5Print7printlnEc||, CODE
, READONLY, ALIGN=1
  693 00000000         
  694 00000000         _ZN5Print7printlnEc
                               PROC
  695 00000000 B570            PUSH             {r4-r6,lr}
  696 00000002 4605            MOV              r5,r0
  697 00000004 460E            MOV              r6,r1
  698 00000006 4631            MOV              r1,r6
  699 00000008 4628            MOV              r0,r5
  700 0000000A F7FF FFFE       BL               _ZN5Print5printEc
  701 0000000E 4604            MOV              r4,r0
  702 00000010 4628            MOV              r0,r5
  703 00000012 F7FF FFFE       BL               _ZN5Print7printlnEv
  704 00000016 4404            ADD              r4,r4,r0
  705 00000018 4620            MOV              r0,r4



ARM Macro Assembler    Page 14 


  706 0000001A BD70            POP              {r4-r6,pc}
  707 0000001C                 ENDP
  708 0000001C         
  709 0000001C         
  710 0000001C                 AREA             ||i._ZN5Print7printlnEdi||, COD
E, READONLY, ALIGN=1
  711 00000000         
  712 00000000         _ZN5Print7printlnEdi
                               PROC
  713 00000000 B570            PUSH             {r4-r6,lr}
  714 00000002 ED2D 8B02       VPUSH            {d8}
  715 00000006 4605            MOV              r5,r0
  716 00000008 EEB0 8A40       VMOV.F32         s16,s0
  717 0000000C EEF0 8A60       VMOV.F32         s17,s1
  718 00000010 460E            MOV              r6,r1
  719 00000012 4631            MOV              r1,r6
  720 00000014 EEB0 0A48       VMOV.F32         s0,s16
  721 00000018 EEF0 0A68       VMOV.F32         s1,s17
  722 0000001C 4628            MOV              r0,r5
  723 0000001E F7FF FFFE       BL               _ZN5Print5printEdi
  724 00000022 4604            MOV              r4,r0
  725 00000024 4628            MOV              r0,r5
  726 00000026 F7FF FFFE       BL               _ZN5Print7printlnEv
  727 0000002A 4404            ADD              r4,r4,r0
  728 0000002C 4620            MOV              r0,r4
  729 0000002E ECBD 8B02       VPOP             {d8}
  730 00000032 BD70            POP              {r4-r6,pc}
  731 00000034                 ENDP
  732 00000034         
  733 00000034         
  734 00000034                 AREA             ||i._ZN5Print7printlnEhi||, COD
E, READONLY, ALIGN=1
  735 00000000         
  736 00000000         _ZN5Print7printlnEhi
                               PROC
  737 00000000 E92D 41F0       PUSH             {r4-r8,lr}
  738 00000004 4605            MOV              r5,r0
  739 00000006 460E            MOV              r6,r1
  740 00000008 4617            MOV              r7,r2
  741 0000000A 463A            MOV              r2,r7
  742 0000000C 4631            MOV              r1,r6
  743 0000000E 4628            MOV              r0,r5
  744 00000010 F7FF FFFE       BL               _ZN5Print5printEhi
  745 00000014 4604            MOV              r4,r0
  746 00000016 4628            MOV              r0,r5
  747 00000018 F7FF FFFE       BL               _ZN5Print7printlnEv
  748 0000001C 4404            ADD              r4,r4,r0
  749 0000001E 4620            MOV              r0,r4
  750 00000020 E8BD 81F0       POP              {r4-r8,pc}
  751 00000024                 ENDP
  752 00000024         
  753 00000024         
  754 00000024                 AREA             ||i._ZN5Print7printlnEii||, COD
E, READONLY, ALIGN=1
  755 00000000         
  756 00000000         _ZN5Print7printlnEii
                               PROC
  757 00000000 E92D 41F0       PUSH             {r4-r8,lr}
  758 00000004 4605            MOV              r5,r0



ARM Macro Assembler    Page 15 


  759 00000006 460E            MOV              r6,r1
  760 00000008 4617            MOV              r7,r2
  761 0000000A 463A            MOV              r2,r7
  762 0000000C 4631            MOV              r1,r6
  763 0000000E 4628            MOV              r0,r5
  764 00000010 F7FF FFFE       BL               _ZN5Print5printEii
  765 00000014 4604            MOV              r4,r0
  766 00000016 4628            MOV              r0,r5
  767 00000018 F7FF FFFE       BL               _ZN5Print7printlnEv
  768 0000001C 4404            ADD              r4,r4,r0
  769 0000001E 4620            MOV              r0,r4
  770 00000020 E8BD 81F0       POP              {r4-r8,pc}
  771 00000024                 ENDP
  772 00000024         
  773 00000024         
  774 00000024                 AREA             ||i._ZN5Print7printlnEji||, COD
E, READONLY, ALIGN=1
  775 00000000         
  776 00000000         _ZN5Print7printlnEji
                               PROC
  777 00000000 E92D 41F0       PUSH             {r4-r8,lr}
  778 00000004 4605            MOV              r5,r0
  779 00000006 460E            MOV              r6,r1
  780 00000008 4617            MOV              r7,r2
  781 0000000A 463A            MOV              r2,r7
  782 0000000C 4631            MOV              r1,r6
  783 0000000E 4628            MOV              r0,r5
  784 00000010 F7FF FFFE       BL               _ZN5Print5printEji
  785 00000014 4604            MOV              r4,r0
  786 00000016 4628            MOV              r0,r5
  787 00000018 F7FF FFFE       BL               _ZN5Print7printlnEv
  788 0000001C 4404            ADD              r4,r4,r0
  789 0000001E 4620            MOV              r0,r4
  790 00000020 E8BD 81F0       POP              {r4-r8,pc}
  791 00000024                 ENDP
  792 00000024         
  793 00000024         
  794 00000024                 AREA             ||i._ZN5Print7printlnEli||, COD
E, READONLY, ALIGN=1
  795 00000000         
  796 00000000         _ZN5Print7printlnEli
                               PROC
  797 00000000 E92D 41F0       PUSH             {r4-r8,lr}
  798 00000004 4605            MOV              r5,r0
  799 00000006 460E            MOV              r6,r1
  800 00000008 4617            MOV              r7,r2
  801 0000000A 463A            MOV              r2,r7
  802 0000000C 4631            MOV              r1,r6
  803 0000000E 4628            MOV              r0,r5
  804 00000010 F7FF FFFE       BL               _ZN5Print5printEli
  805 00000014 4604            MOV              r4,r0
  806 00000016 4628            MOV              r0,r5
  807 00000018 F7FF FFFE       BL               _ZN5Print7printlnEv
  808 0000001C 4404            ADD              r4,r4,r0
  809 0000001E 4620            MOV              r0,r4
  810 00000020 E8BD 81F0       POP              {r4-r8,pc}
  811 00000024                 ENDP
  812 00000024         
  813 00000024         



ARM Macro Assembler    Page 16 


  814 00000024                 AREA             ||i._ZN5Print7printlnEmi||, COD
E, READONLY, ALIGN=1
  815 00000000         
  816 00000000         _ZN5Print7printlnEmi
                               PROC
  817 00000000 E92D 41F0       PUSH             {r4-r8,lr}
  818 00000004 4605            MOV              r5,r0
  819 00000006 460E            MOV              r6,r1
  820 00000008 4617            MOV              r7,r2
  821 0000000A 463A            MOV              r2,r7
  822 0000000C 4631            MOV              r1,r6
  823 0000000E 4628            MOV              r0,r5
  824 00000010 F7FF FFFE       BL               _ZN5Print5printEmi
  825 00000014 4604            MOV              r4,r0
  826 00000016 4628            MOV              r0,r5
  827 00000018 F7FF FFFE       BL               _ZN5Print7printlnEv
  828 0000001C 4404            ADD              r4,r4,r0
  829 0000001E 4620            MOV              r0,r4
  830 00000020 E8BD 81F0       POP              {r4-r8,pc}
  831 00000024                 ENDP
  832 00000024         
  833 00000024         
  834 00000024                 AREA             ||i._ZN5Print7printlnEv||, CODE
, READONLY, ALIGN=2
  835 00000000         
  836 00000000         _ZN5Print7printlnEv
                               PROC
  837 00000000 B510            PUSH             {r4,lr}
  838 00000002 4604            MOV              r4,r0
  839 00000004 A102            ADR              r1,|L26.16|
  840 00000006 4620            MOV              r0,r4
  841 00000008 F7FF FFFE       BL               _ZN5Print5writeEPKc
  842 0000000C BD10            POP              {r4,pc}
  843 0000000E                 ENDP
  844 0000000E         
  845 0000000E 00 00           DCW              0x0000
  846 00000010         |L26.16|
  847 00000010 0D 0A 00        DCB              "\r\n",0
  848 00000013 00              DCB              0
  849 00000014         
  850 00000014                 AREA             ||.ARM.exidx||, LINKORDER=||i.N
OPS_FOR_USEC||, DATA, READONLY, SECTYPE={SHT_ARM_EXIDX}, ALIGN=2
  851 00000000         
  852 00000000 00000000        DCD              0x00000000
  853 00000004                 RELOC            42, ||i.NOPS_FOR_USEC||
  854 00000004 00000001        DCD              0x00000001
  855 00000008         
  856 00000008                 AREA             ||area_number.28||, LINKORDER=|
|i._ZN5Print11printNumberEmh||, DATA, READONLY, SECTYPE={SHT_ARM_EXIDX}, ALIGN=
2
  857 00000000         
  858 00000000                 EXPORTAS         ||area_number.28||, ||.ARM.exid
x||
  859 00000000 00000000        DCD              0x00000000
  860 00000004                 RELOC            42, ||i._ZN5Print11printNumberE
mh||
  861 00000004 00000001        DCD              0x00000001
  862 00000008         
  863 00000008                 AREA             ||area_number.29||, LINKORDER=|



ARM Macro Assembler    Page 17 


|i._ZN5Print5printEmi||, DATA, READONLY, SECTYPE={SHT_ARM_EXIDX}, ALIGN=2
  864 00000000         
  865 00000000                 EXPORTAS         ||area_number.29||, ||.ARM.exid
x||
  866 00000000 00000000        DCD              0x00000000
  867 00000004                 RELOC            42, ||i._ZN5Print5printEmi||
  868 00000004 00000001        DCD              0x00000001
  869 00000008         
  870 00000008                 AREA             ||area_number.30||, LINKORDER=|
|i._ZN5Print5printEji||, DATA, READONLY, SECTYPE={SHT_ARM_EXIDX}, ALIGN=2
  871 00000000         
  872 00000000                 EXPORTAS         ||area_number.30||, ||.ARM.exid
x||
  873 00000000 00000000        DCD              0x00000000
  874 00000004                 RELOC            42, ||i._ZN5Print5printEji||
  875 00000004 00000001        DCD              0x00000001
  876 00000008         
  877 00000008                 AREA             ||area_number.31||, LINKORDER=|
|i._ZN5Print5printEPKc||, DATA, READONLY, SECTYPE={SHT_ARM_EXIDX}, ALIGN=2
  878 00000000         
  879 00000000                 EXPORTAS         ||area_number.31||, ||.ARM.exid
x||
  880 00000000 00000000        DCD              0x00000000
  881 00000004                 RELOC            42, ||i._ZN5Print5printEPKc||
  882 00000004 00000001        DCD              0x00000001
  883 00000008         
  884 00000008                 AREA             ||area_number.32||, LINKORDER=|
|i._ZN5Print5printEc||, DATA, READONLY, SECTYPE={SHT_ARM_EXIDX}, ALIGN=2
  885 00000000         
  886 00000000                 EXPORTAS         ||area_number.32||, ||.ARM.exid
x||
  887 00000000 00000000        DCD              0x00000000
  888 00000004                 RELOC            42, ||i._ZN5Print5printEc||
  889 00000004 00000001        DCD              0x00000001
  890 00000008         
  891 00000008                 AREA             ||area_number.33||, LINKORDER=|
|i._ZN5Print10printFloatEdh||, DATA, READONLY, SECTYPE={SHT_ARM_EXIDX}, ALIGN=2
  892 00000000         
  893 00000000                 EXPORTAS         ||area_number.33||, ||.ARM.exid
x||
  894 00000000 00000000        DCD              0x00000000
  895 00000004                 RELOC            42, ||i._ZN5Print10printFloatEd
h||
  896 00000004 00000001        DCD              0x00000001
  897 00000008         
  898 00000008                 AREA             ||area_number.34||, LINKORDER=|
|i._ZN5Print5writeEPKhj||, DATA, READONLY, SECTYPE={SHT_ARM_EXIDX}, ALIGN=2
  899 00000000         
  900 00000000                 EXPORTAS         ||area_number.34||, ||.ARM.exid
x||
  901 00000000 00000000        DCD              0x00000000
  902 00000004                 RELOC            42, ||i._ZN5Print5writeEPKhj||
  903 00000004 00000001        DCD              0x00000001
  904 00000008         
  905 00000008                 AREA             ||area_number.35||, LINKORDER=|
|i._ZN5Print5printEPK19__FlashStringHelper||, DATA, READONLY, SECTYPE={SHT_ARM_
EXIDX}, ALIGN=2
  906 00000000         
  907 00000000                 EXPORTAS         ||area_number.35||, ||.ARM.exid



ARM Macro Assembler    Page 18 


x||
  908 00000000 00000000        DCD              0x00000000
  909 00000004                 RELOC            42, ||i._ZN5Print5printEPK19__F
lashStringHelper||
  910 00000004 00000001        DCD              0x00000001
  911 00000008         
  912 00000008                 AREA             ||area_number.36||, LINKORDER=|
|i._ZN5Print5printERK6String||, DATA, READONLY, SECTYPE={SHT_ARM_EXIDX}, ALIGN=
2
  913 00000000         
  914 00000000                 EXPORTAS         ||area_number.36||, ||.ARM.exid
x||
  915 00000000 00000000        DCD              0x00000000
  916 00000004                 RELOC            42, ||i._ZN5Print5printERK6Stri
ng||
  917 00000004 00000001        DCD              0x00000001
  918 00000008         
  919 00000008                 AREA             ||area_number.37||, LINKORDER=|
|i._ZN5Print5printEhi||, DATA, READONLY, SECTYPE={SHT_ARM_EXIDX}, ALIGN=2
  920 00000000         
  921 00000000                 EXPORTAS         ||area_number.37||, ||.ARM.exid
x||
  922 00000000 00000000        DCD              0x00000000
  923 00000004                 RELOC            42, ||i._ZN5Print5printEhi||
  924 00000004 00000001        DCD              0x00000001
  925 00000008         
  926 00000008                 AREA             ||area_number.38||, LINKORDER=|
|i._ZN5Print5printEli||, DATA, READONLY, SECTYPE={SHT_ARM_EXIDX}, ALIGN=2
  927 00000000         
  928 00000000                 EXPORTAS         ||area_number.38||, ||.ARM.exid
x||
  929 00000000 00000000        DCD              0x00000000
  930 00000004                 RELOC            42, ||i._ZN5Print5printEli||
  931 00000004 00000001        DCD              0x00000001
  932 00000008         
  933 00000008                 AREA             ||area_number.39||, LINKORDER=|
|i._ZN5Print5printEii||, DATA, READONLY, SECTYPE={SHT_ARM_EXIDX}, ALIGN=2
  934 00000000         
  935 00000000                 EXPORTAS         ||area_number.39||, ||.ARM.exid
x||
  936 00000000 00000000        DCD              0x00000000
  937 00000004                 RELOC            42, ||i._ZN5Print5printEii||
  938 00000004 00000001        DCD              0x00000001
  939 00000008         
  940 00000008                 AREA             ||area_number.40||, LINKORDER=|
|i._ZN5Print5printEdi||, DATA, READONLY, SECTYPE={SHT_ARM_EXIDX}, ALIGN=2
  941 00000000         
  942 00000000                 EXPORTAS         ||area_number.40||, ||.ARM.exid
x||
  943 00000000 00000000        DCD              0x00000000
  944 00000004                 RELOC            42, ||i._ZN5Print5printEdi||
  945 00000004 00000001        DCD              0x00000001
  946 00000008         
  947 00000008                 AREA             ||area_number.41||, LINKORDER=|
|i._ZN5Print5printERK9Printable||, DATA, READONLY, SECTYPE={SHT_ARM_EXIDX}, ALI
GN=2
  948 00000000         
  949 00000000                 EXPORTAS         ||area_number.41||, ||.ARM.exid
x||



ARM Macro Assembler    Page 19 


  950 00000000 00000000        DCD              0x00000000
  951 00000004                 RELOC            42, ||i._ZN5Print5printERK9Prin
table||
  952 00000004 00000001        DCD              0x00000001
  953 00000008         
  954 00000008                 AREA             ||area_number.42||, LINKORDER=|
|i._ZN5Print7printlnEv||, DATA, READONLY, SECTYPE={SHT_ARM_EXIDX}, ALIGN=2
  955 00000000         
  956 00000000                 EXPORTAS         ||area_number.42||, ||.ARM.exid
x||
  957 00000000 00000000        DCD              0x00000000
  958 00000004                 RELOC            42, ||i._ZN5Print7printlnEv||
  959 00000004 00000001        DCD              0x00000001
  960 00000008         
  961 00000008                 AREA             ||area_number.43||, LINKORDER=|
|i._ZN5Print7printlnEPK19__FlashStringHelper||, DATA, READONLY, SECTYPE={SHT_AR
M_EXIDX}, ALIGN=2
  962 00000000         
  963 00000000                 EXPORTAS         ||area_number.43||, ||.ARM.exid
x||
  964 00000000 00000000        DCD              0x00000000
  965 00000004                 RELOC            42, ||i._ZN5Print7printlnEPK19_
_FlashStringHelper||
  966 00000004 00000001        DCD              0x00000001
  967 00000008         
  968 00000008                 AREA             ||area_number.44||, LINKORDER=|
|i._ZN5Print7printlnERK6String||, DATA, READONLY, SECTYPE={SHT_ARM_EXIDX}, ALIG
N=2
  969 00000000         
  970 00000000                 EXPORTAS         ||area_number.44||, ||.ARM.exid
x||
  971 00000000 00000000        DCD              0x00000000
  972 00000004                 RELOC            42, ||i._ZN5Print7printlnERK6St
ring||
  973 00000004 00000001        DCD              0x00000001
  974 00000008         
  975 00000008                 AREA             ||area_number.45||, LINKORDER=|
|i._ZN5Print7printlnEPKc||, DATA, READONLY, SECTYPE={SHT_ARM_EXIDX}, ALIGN=2
  976 00000000         
  977 00000000                 EXPORTAS         ||area_number.45||, ||.ARM.exid
x||
  978 00000000 00000000        DCD              0x00000000
  979 00000004                 RELOC            42, ||i._ZN5Print7printlnEPKc||
  980 00000004 00000001        DCD              0x00000001
  981 00000008         
  982 00000008                 AREA             ||area_number.46||, LINKORDER=|
|i._ZN5Print7printlnEc||, DATA, READONLY, SECTYPE={SHT_ARM_EXIDX}, ALIGN=2
  983 00000000         
  984 00000000                 EXPORTAS         ||area_number.46||, ||.ARM.exid
x||
  985 00000000 00000000        DCD              0x00000000
  986 00000004                 RELOC            42, ||i._ZN5Print7printlnEc||
  987 00000004 00000001        DCD              0x00000001
  988 00000008         
  989 00000008                 AREA             ||area_number.47||, LINKORDER=|
|i._ZN5Print7printlnEhi||, DATA, READONLY, SECTYPE={SHT_ARM_EXIDX}, ALIGN=2
  990 00000000         
  991 00000000                 EXPORTAS         ||area_number.47||, ||.ARM.exid
x||



ARM Macro Assembler    Page 20 


  992 00000000 00000000        DCD              0x00000000
  993 00000004                 RELOC            42, ||i._ZN5Print7printlnEhi||
  994 00000004 00000001        DCD              0x00000001
  995 00000008         
  996 00000008                 AREA             ||area_number.48||, LINKORDER=|
|i._ZN5Print7printlnEii||, DATA, READONLY, SECTYPE={SHT_ARM_EXIDX}, ALIGN=2
  997 00000000         
  998 00000000                 EXPORTAS         ||area_number.48||, ||.ARM.exid
x||
  999 00000000 00000000        DCD              0x00000000
 1000 00000004                 RELOC            42, ||i._ZN5Print7printlnEii||
 1001 00000004 00000001        DCD              0x00000001
 1002 00000008         
 1003 00000008                 AREA             ||area_number.49||, LINKORDER=|
|i._ZN5Print7printlnEji||, DATA, READONLY, SECTYPE={SHT_ARM_EXIDX}, ALIGN=2
 1004 00000000         
 1005 00000000                 EXPORTAS         ||area_number.49||, ||.ARM.exid
x||
 1006 00000000 00000000        DCD              0x00000000
 1007 00000004                 RELOC            42, ||i._ZN5Print7printlnEji||
 1008 00000004 00000001        DCD              0x00000001
 1009 00000008         
 1010 00000008                 AREA             ||area_number.50||, LINKORDER=|
|i._ZN5Print7printlnEli||, DATA, READONLY, SECTYPE={SHT_ARM_EXIDX}, ALIGN=2
 1011 00000000         
 1012 00000000                 EXPORTAS         ||area_number.50||, ||.ARM.exid
x||
 1013 00000000 00000000        DCD              0x00000000
 1014 00000004                 RELOC            42, ||i._ZN5Print7printlnEli||
 1015 00000004 00000001        DCD              0x00000001
 1016 00000008         
 1017 00000008                 AREA             ||area_number.51||, LINKORDER=|
|i._ZN5Print7printlnEmi||, DATA, READONLY, SECTYPE={SHT_ARM_EXIDX}, ALIGN=2
 1018 00000000         
 1019 00000000                 EXPORTAS         ||area_number.51||, ||.ARM.exid
x||
 1020 00000000 00000000        DCD              0x00000000
 1021 00000004                 RELOC            42, ||i._ZN5Print7printlnEmi||
 1022 00000004 00000001        DCD              0x00000001
 1023 00000008         
 1024 00000008                 AREA             ||area_number.52||, LINKORDER=|
|i._ZN5Print7printlnEdi||, DATA, READONLY, SECTYPE={SHT_ARM_EXIDX}, ALIGN=2
 1025 00000000         
 1026 00000000                 EXPORTAS         ||area_number.52||, ||.ARM.exid
x||
 1027 00000000 00000000        DCD              0x00000000
 1028 00000004                 RELOC            42, ||i._ZN5Print7printlnEdi||
 1029 00000004 00000001        DCD              0x00000001
 1030 00000008         
 1031 00000008                 AREA             ||area_number.53||, LINKORDER=|
|i._ZN5Print7printlnERK9Printable||, DATA, READONLY, SECTYPE={SHT_ARM_EXIDX}, A
LIGN=2
 1032 00000000         
 1033 00000000                 EXPORTAS         ||area_number.53||, ||.ARM.exid
x||
 1034 00000000 00000000        DCD              0x00000000
 1035 00000004                 RELOC            42, ||i._ZN5Print7printlnERK9Pr
intable||
 1036 00000004 00000001        DCD              0x00000001



ARM Macro Assembler    Page 21 


 1037 00000008         
 1038 00000008                 AREA             ||.arm_vfe_header||, DATA, READ
ONLY, NOALLOC, ALIGN=2
 1039 00000000         
 1040 00000000 00000000        DCD              0x00000000
 1041 00000004         
 1042 00000004                 AREA             ||.arm_vfe_vcallinfoi._ZN5Print
5printERK6String||, DATA, READONLY, NOALLOC, ALIGN=2
 1043 00000000         
 1044 00000000 00000000        DCD              ||i._ZN5Print5printERK6String||
 1045 00000004 00000000        DCD              0x00000000
 1046 00000008 00000000        DCD              0x00000000
 1047 0000000C 00000001        DCD              0x00000001
 1048 00000010 00000000        DCD              ||$weak$_ZTI5Print||
 1049 00000014 00000001        DCD              0x00000001
 1050 00000018 00000002        DCD              0x00000002
 1051 0000001C 00000000        DCD              0x00000000
 1052 00000020 00000000        DCD              0x00000000
 1053 00000024         
 1054 00000024                 AREA             ||.arm_vfe_vcallinfoi._ZN5Print
5printERK9Printable||, DATA, READONLY, NOALLOC, ALIGN=2
 1055 00000000         
 1056 00000000 00000000        DCD              ||i._ZN5Print5printERK9Printabl
e||
 1057 00000004 00000000        DCD              0x00000000
 1058 00000008 00000000        DCD              0x00000000
 1059 0000000C 00000001        DCD              0x00000001
 1060 00000010 00000000        DCD              _ZTI9Printable
 1061 00000014 00000001        DCD              0x00000001
 1062 00000018 00000001        DCD              0x00000001
 1063 0000001C 00000000        DCD              0x00000000
 1064 00000020 00000000        DCD              0x00000000
 1065 00000024         
 1066 00000024                 AREA             ||.arm_vfe_vcallinfoi._ZN5Print
5printEc||, DATA, READONLY, NOALLOC, ALIGN=2
 1067 00000000         
 1068 00000000 00000000        DCD              ||i._ZN5Print5printEc||
 1069 00000004 00000000        DCD              0x00000000
 1070 00000008 00000000        DCD              0x00000000
 1071 0000000C 00000001        DCD              0x00000001
 1072 00000010 00000000        DCD              ||$weak$_ZTI5Print||
 1073 00000014 00000001        DCD              0x00000001
 1074 00000018 00000001        DCD              0x00000001
 1075 0000001C 00000000        DCD              0x00000000
 1076 00000020 00000000        DCD              0x00000000
 1077 00000024         
 1078 00000024                 AREA             ||.arm_vfe_vcallinfoi._ZN5Print
5printEli||, DATA, READONLY, NOALLOC, ALIGN=2
 1079 00000000         
 1080 00000000 00000000        DCD              ||i._ZN5Print5printEli||
 1081 00000004 00000000        DCD              0x00000000
 1082 00000008 00000000        DCD              0x00000000
 1083 0000000C 00000001        DCD              0x00000001
 1084 00000010 00000000        DCD              ||$weak$_ZTI5Print||
 1085 00000014 00000001        DCD              0x00000001
 1086 00000018 00000001        DCD              0x00000001
 1087 0000001C 00000000        DCD              0x00000000
 1088 00000020 00000000        DCD              0x00000000
 1089 00000024         



ARM Macro Assembler    Page 22 


 1090 00000024                 AREA             ||.arm_vfe_vcallinfoi._ZN5Print
5printEmi||, DATA, READONLY, NOALLOC, ALIGN=2
 1091 00000000         
 1092 00000000 00000000        DCD              ||i._ZN5Print5printEmi||
 1093 00000004 00000000        DCD              0x00000000
 1094 00000008 00000000        DCD              0x00000000
 1095 0000000C 00000001        DCD              0x00000001
 1096 00000010 00000000        DCD              ||$weak$_ZTI5Print||
 1097 00000014 00000001        DCD              0x00000001
 1098 00000018 00000001        DCD              0x00000001
 1099 0000001C 00000000        DCD              0x00000000
 1100 00000020 00000000        DCD              0x00000000
 1101 00000024         
 1102 00000024                 AREA             ||.arm_vfe_vcallinfoi._ZN5Print
5writeEPKhj||, DATA, READONLY, NOALLOC, ALIGN=2
 1103 00000000         
 1104 00000000 00000000        DCD              ||i._ZN5Print5writeEPKhj||
 1105 00000004 00000000        DCD              0x00000000
 1106 00000008 00000000        DCD              0x00000000
 1107 0000000C 00000001        DCD              0x00000001
 1108 00000010 00000000        DCD              ||$weak$_ZTI5Print||
 1109 00000014 00000001        DCD              0x00000001
 1110 00000018 00000001        DCD              0x00000001
 1111 0000001C 00000000        DCD              0x00000000
 1112 00000020 00000000        DCD              0x00000000
 1113 00000024         
 1114 00000024                 AREA             ||.arm_vfe_vtableinfo_ZTV5Print
||, COMGROUP=_ZTV5Print, DATA, READONLY, NOALLOC, ALIGN=2
 1115 00000000         
 1116 00000000 00000000        DCD              ||$weak$_ZTV5Print||
 1117 00000004 00000004        DCD              0x00000004
 1118 00000008 00000001        DCD              0x00000001
 1119 0000000C 00000000        DCD              ||$weak$_ZTI5Print||
 1120 00000010 00000001        DCD              0x00000001
 1121 00000014 00000002        DCD              0x00000002
 1122 00000018 00000000        DCD              0x00000000
 1123 0000001C         
 1124 0000001C                 AREA             ||.constdata__ZTV5Print||, COMG
ROUP=_ZTV5Print, DATA, READONLY, ALIGN=2
 1125 00000000         
 1126 00000000         _ZTV5Print
 1127 00000000 00000000        DCD              0x00000000
 1128 00000004 00000000        DCD              _ZTI5Print
 1129 00000008 00000000        DCD              __cxa_pure_virtual
 1130 0000000C 00000000        DCD              _ZN5Print5writeEPKhj
 1131 00000010         
 1132 00000010                 AREA             ||i._ZN5Print5writeEPKc||, COMG
ROUP=_ZN5Print5writeEPKc, CODE, READONLY, ALIGN=1
 1133 00000000         
 1134 00000000         _ZN5Print5writeEPKc
                               PROC
 1135 00000000 B570            PUSH             {r4-r6,lr}
 1136 00000002 4605            MOV              r5,r0
 1137 00000004 460C            MOV              r4,r1
 1138 00000006 B90C            CBNZ             r4,|L176.12|
 1139 00000008 2000            MOVS             r0,#0
 1140 0000000A         |L176.10|
 1141 0000000A BD70            POP              {r4-r6,pc}
 1142 0000000C         |L176.12|



ARM Macro Assembler    Page 23 


 1143 0000000C 4620            MOV              r0,r4
 1144 0000000E F7FF FFFE       BL               strlen
 1145 00000012 4606            MOV              r6,r0
 1146 00000014 6828            LDR              r0,[r5,#0]
 1147 00000016 4632            MOV              r2,r6
 1148 00000018 4621            MOV              r1,r4
 1149 0000001A 6843            LDR              r3,[r0,#4]
 1150 0000001C 4628            MOV              r0,r5
 1151 0000001E 4798            BLX              r3
 1152 00000020 E7F3            B                |L176.10|
 1153 00000022                 ENDP
 1154 00000022         
 1155 00000022         
 1156 00000022                 AREA             ||area_number.177||, COMGROUP=_
ZN5Print5writeEPKc, LINKORDER=||i._ZN5Print5writeEPKc||, DATA, READONLY, SECTYP
E={SHT_ARM_EXIDX}, ALIGN=2
 1157 00000000         
 1158 00000000                 EXPORTAS         ||area_number.177||, ||.ARM.exi
dx||
 1159 00000000 00000000        DCD              0x00000000
 1160 00000004                 RELOC            42, ||i._ZN5Print5writeEPKc||
 1161 00000004 00000001        DCD              0x00000001
 1162 00000008         
 1163 00000008                 AREA             ||.arm_vfe_vcallinfoi._ZN5Print
5writeEPKc||, COMGROUP=_ZN5Print5writeEPKc, DATA, READONLY, NOALLOC, ALIGN=2
 1164 00000000         
 1165 00000000 00000000        DCD              ||i._ZN5Print5writeEPKc||
 1166 00000004 00000000        DCD              0x00000000
 1167 00000008 00000000        DCD              0x00000000
 1168 0000000C 00000001        DCD              0x00000001
 1169 00000010 00000000        DCD              ||$weak$_ZTI5Print||
 1170 00000014 00000001        DCD              0x00000001
 1171 00000018 00000002        DCD              0x00000002
 1172 0000001C 00000000        DCD              0x00000000
 1173 00000020 00000000        DCD              0x00000000
 1174 00000024         
 1175 00000024                 AREA             ||.constdata__ZTI5Print||, COMG
ROUP=_ZTI5Print, DATA, READONLY, ALIGN=2
 1176 00000000         
 1177 00000000         _ZTI5Print
 1178 00000000 00000008        DCD              _ZTVN10__cxxabiv117__class_type
_infoE+0x8
 1179 00000004 00000000        DCD              _ZTS5Print
 1180 00000008         
 1181 00000008                 AREA             ||.constdata__ZTS5Print||, COMG
ROUP=_ZTS5Print, DATA, READONLY, ALIGN=0
 1182 00000000         
 1183 00000000         _ZTS5Print
 1184 00000000 35 50 72 
              69               DCB              0x35,0x50,0x72,0x69
 1185 00000004 6E 74 00        DCB              0x6e,0x74,0x00
 1186 00000007         
 1187 00000007         ;*** Start embedded assembler ***
 1188 00000007         
 1189 00000007         #line   1                "cores\\Print.cpp"
    1 00000007                 AREA             ||.rev16_text||, CODE
    2 00000000                 THUMB
    3 00000000                 EXPORT           |__asm___9_Print_cpp_dbd866df__
_Z7__REV16j|



ARM Macro Assembler    Page 24 


    4 00000000         #line   447              "C:\\Keil_v5\\ARM\\PACK\\ARM\\C
MSIS\\5.0.1\\CMSIS\\Include\\cmsis_armcc.h"
  447 00000000         |__asm___9_Print_cpp_dbd866df___Z7__REV16j|
                               PROC
  448 00000000         #line   448
  448 00000000         
  449 00000000 BA40            rev16            r0, r0
  450 00000002 4770            bx               lr
  451 00000004                 ENDP
  452 00000004                 AREA             ||.revsh_text||, CODE
  453 00000000                 THUMB
  454 00000000                 EXPORT           |__asm___9_Print_cpp_dbd866df__
_Z7__REVSHi|
  455 00000000         #line   462
  462 00000000         |__asm___9_Print_cpp_dbd866df___Z7__REVSHi|
                               PROC
  463 00000000         #line   463
  463 00000000         
  464 00000000 BAC0            revsh            r0, r0
  465 00000002 4770            bx               lr
  466 00000004                 ENDP
  467 00000004                 AREA             ||.rrx_text||, CODE
  468 00000000                 THUMB
  469 00000000                 EXPORT           |__asm___9_Print_cpp_dbd866df__
_Z5__RRXj|
  470 00000000         #line   649
  649 00000000         |__asm___9_Print_cpp_dbd866df___Z5__RRXj|
                               PROC
  650 00000000         #line   650
  650 00000000         
  651 00000000 EA4F 0030       rrx              r0, r0
  652 00000004 4770            bx               lr
  653 00000006                 ENDP
  654 00000006         
  655 00000006         ;*** End   embedded assembler ***
  656 00000006         
  657 00000006                 EXPORT           NOPS_FOR_USEC [CODE]
  658 00000006                 EXPORT           _ZN5Print10printFloatEdh [CODE]
  659 00000006                 EXPORT           _ZN5Print11printNumberEmh [CODE
]
  660 00000006                 EXPORT           _ZN5Print5printEPK19__FlashStri
ngHelper [CODE]
  661 00000006                 EXPORT           _ZN5Print5printEPKc [CODE]
  662 00000006                 EXPORT           _ZN5Print5printERK6String [CODE
]
  663 00000006                 EXPORT           _ZN5Print5printERK9Printable [C
ODE]
  664 00000006                 EXPORT           _ZN5Print5printEc [CODE]
  665 00000006                 EXPORT           _ZN5Print5printEdi [CODE]
  666 00000006                 EXPORT           _ZN5Print5printEhi [CODE]
  667 00000006                 EXPORT           _ZN5Print5printEii [CODE]
  668 00000006                 EXPORT           _ZN5Print5printEji [CODE]
  669 00000006                 EXPORT           _ZN5Print5printEli [CODE]
  670 00000006                 EXPORT           _ZN5Print5printEmi [CODE]
  671 00000006                 EXPORT           _ZN5Print5writeEPKhj [CODE]
  672 00000006                 EXPORT           _ZN5Print7printlnEPK19__FlashSt
ringHelper [CODE]
  673 00000006                 EXPORT           _ZN5Print7printlnEPKc [CODE]
  674 00000006                 EXPORT           _ZN5Print7printlnERK6String [CO



ARM Macro Assembler    Page 25 


DE]
  675 00000006                 EXPORT           _ZN5Print7printlnERK9Printable 
[CODE]
  676 00000006                 EXPORT           _ZN5Print7printlnEc [CODE]
  677 00000006                 EXPORT           _ZN5Print7printlnEdi [CODE]
  678 00000006                 EXPORT           _ZN5Print7printlnEhi [CODE]
  679 00000006                 EXPORT           _ZN5Print7printlnEii [CODE]
  680 00000006                 EXPORT           _ZN5Print7printlnEji [CODE]
  681 00000006                 EXPORT           _ZN5Print7printlnEli [CODE]
  682 00000006                 EXPORT           _ZN5Print7printlnEmi [CODE]
  683 00000006                 EXPORT           _ZN5Print7printlnEv [CODE]
  684 00000006                 EXPORT           _ZTV5Print [DATA,SIZE=16]
  685 00000006                 EXPORT           _ZN5Print5writeEPKc [CODE]
  686 00000006                 EXPORT           _ZTI5Print [DATA,SIZE=8]
  687 00000006                 EXPORT           _ZTS5Print [DATA,SIZE=7]
  688 00000006         
  689 00000006                 IMPORT           ||Lib$$Request$$armlib|| [CODE,
WEAK]
  690 00000006                 IMPORT           ||Lib$$Request$$cpplib|| [CODE,
WEAK]
  691 00000006                 IMPORT           ||$weak$_ZTV5Print|| [DATA,WEAK
]
  692 00000006                 EXPORTAS         ||$weak$_ZTV5Print||, _ZTV5Prin
t
  693 00000006                 IMPORT           ||$weak$_ZTI5Print|| [DATA,WEAK
]
  694 00000006                 EXPORTAS         ||$weak$_ZTI5Print||, _ZTI5Prin
t
  695 00000006                 IMPORT           __cxa_pure_virtual [CODE]
  696 00000006                 IMPORT           strlen [CODE]
  697 00000006                 IMPORT           __aeabi_cdrcmple [CODE]
  698 00000006                 IMPORT           __aeabi_cdcmple [CODE]
  699 00000006                 IMPORT           __aeabi_dneg [CODE]
  700 00000006                 IMPORT           __aeabi_ddiv [CODE]
  701 00000006                 IMPORT           __aeabi_dadd [CODE]
  702 00000006                 IMPORT           __aeabi_d2uiz [CODE]
  703 00000006                 IMPORT           __aeabi_ui2d [CODE]
  704 00000006                 IMPORT           __aeabi_drsub [CODE]
  705 00000006                 IMPORT           __aeabi_dmul [CODE]
  706 00000006                 IMPORT           _ZTVN10__cxxabiv117__class_type
_infoE [DATA]
  707 00000006                 IMPORT           _ZTI9Printable [DATA,WEAK]
  708 00000006         
  709 00000006                 ATTR             FILESCOPE
  710 00000006                 ATTR             SETVALUE Tag_ABI_PCS_wchar_t,2
  711 00000006                 ATTR             SETVALUE Tag_ABI_enum_size,1
  712 00000006                 ATTR             SETVALUE Tag_ABI_optimization_g
oals,6
  713 00000006                 ATTR             SETSTRING Tag_conformance,"2.09
"
  714 00000006                 ATTR             SETVALUE AV,6,0
  715 00000006                 ATTR             SETVALUE AV,18,1
  716 00000006         
  717 00000006                 ASSERT           {ENDIAN} = "little"
  718 00000006                 ASSERT           {INTER} = {TRUE}
  719 00000006                 ASSERT           {ROPI} = {FALSE}
  720 00000006                 ASSERT           {RWPI} = {FALSE}
  721 00000006                 ASSERT           {IEEE_FULL} = {FALSE}
  722 00000006                 ASSERT           {IEEE_PART} = {FALSE}



ARM Macro Assembler    Page 26 


  723 00000006                 ASSERT           {IEEE_JAVA} = {FALSE}
  724 00000006                 END
Command Line: --debug --xref --diag_suppress=9931 --cpu=Cortex-M4.fp --apcs=int
erwork -o.\objects\print.o -I.\cores -I.\RTE\Device\XMC4700-F144x2048 -I.\RTE\_
Target_1 -IC:\Keil_v5\ARM\PACK\ARM\CMSIS\5.0.1\CMSIS\Include -IC:\Keil_v5\ARM\P
ACK\Infineon\XMC4000_DFP\2.9.1\Device\XMC4700_series\Include -IC:\Keil_v5\ARM\P
ACK\Infineon\XMC4000_DFP\2.9.1\Device\XMClib\inc -IC:\Keil_v5\ARM\PACK\Infineon
\XMC4000_DFP\2.9.1\RTE_Driver --predefine="__UVISION_VERSION SETA 524" --predef
ine="_RTE_ SETA 1" --predefine="XMC4700_F144x2048 SETA 1" --list=.\listings\pri
nt.lst .\objects\print.s



ARM Macro Assembler    Page 1 Alphabetic symbol ordering
Relocatable symbols

NOPS_FOR_USEC 00000000

Symbol: NOPS_FOR_USEC
   Definitions
      At line 9 in file .\objects\print.s
   Uses
      At line 657 in file C:\\Keil_v5\\ARM\\PACK\\ARM\\CMSIS\\5.0.1\\CMSIS\\Inc
lude\\cmsis_armcc.h
Comment: NOPS_FOR_USEC used once
|i.NOPS_FOR_USEC| 00000000

Symbol: |i.NOPS_FOR_USEC|
   Definitions
      At line 7 in file .\objects\print.s
   Uses
      At line 853 in file .\objects\print.s
Comment: |i.NOPS_FOR_USEC| used once
2 symbols



ARM Macro Assembler    Page 1 Alphabetic symbol ordering
Relocatable symbols

L1.110 0000006E

Symbol: L1.110
   Definitions
      At line 206 in file .\objects\print.s
   Uses
      At line 201 in file .\objects\print.s
Comment: L1.110 used once
L1.138 0000008A

Symbol: L1.138
   Definitions
      At line 216 in file .\objects\print.s
   Uses
      At line 211 in file .\objects\print.s
Comment: L1.138 used once
L1.166 000000A6

Symbol: L1.166
   Definitions
      At line 226 in file .\objects\print.s
   Uses
      At line 221 in file .\objects\print.s
Comment: L1.166 used once
L1.206 000000CE

Symbol: L1.206
   Definitions
      At line 239 in file .\objects\print.s
   Uses
      At line 231 in file .\objects\print.s
Comment: L1.206 used once
L1.214 000000D6

Symbol: L1.214
   Definitions
      At line 243 in file .\objects\print.s
   Uses
      At line 253 in file .\objects\print.s
Comment: L1.214 used once
L1.238 000000EE

Symbol: L1.238
   Definitions
      At line 251 in file .\objects\print.s
   Uses
      At line 242 in file .\objects\print.s
Comment: L1.238 used once
L1.316 0000013C

Symbol: L1.316
   Definitions
      At line 278 in file .\objects\print.s
   Uses
      At line 273 in file .\objects\print.s
Comment: L1.316 used once
L1.318 0000013E

Symbol: L1.318



ARM Macro Assembler    Page 2 Alphabetic symbol ordering
Relocatable symbols

   Definitions
      At line 280 in file .\objects\print.s
   Uses
      At line 305 in file .\objects\print.s
Comment: L1.318 used once
L1.38 00000026

Symbol: L1.38
   Definitions
      At line 172 in file .\objects\print.s
   Uses
      At line 169 in file .\objects\print.s
Comment: L1.38 used once
L1.384 00000180

Symbol: L1.384
   Definitions
      At line 301 in file .\objects\print.s
   Uses
      At line 279 in file .\objects\print.s
Comment: L1.384 used once
L1.40 00000028

Symbol: L1.40
   Definitions
      At line 174 in file .\objects\print.s
   Uses
      At line 171 in file .\objects\print.s
Comment: L1.40 used once
L1.400 00000190

Symbol: L1.400
   Definitions
      At line 311 in file .\objects\print.s
   Uses
      At line 177 in file .\objects\print.s
Comment: L1.400 used once
L1.404 00000194

Symbol: L1.404
   Definitions
      At line 313 in file .\objects\print.s
   Uses
      At line 181 in file .\objects\print.s
Comment: L1.404 used once
L1.408 00000198

Symbol: L1.408
   Definitions
      At line 315 in file .\objects\print.s
   Uses
      At line 190 in file .\objects\print.s
Comment: L1.408 used once
L1.412 0000019C

Symbol: L1.412
   Definitions
      At line 317 in file .\objects\print.s
   Uses



ARM Macro Assembler    Page 3 Alphabetic symbol ordering
Relocatable symbols

      At line 202 in file .\objects\print.s
Comment: L1.412 used once
L1.416 000001A0

Symbol: L1.416
   Definitions
      At line 319 in file .\objects\print.s
   Uses
      At line 207 in file .\objects\print.s
Comment: L1.416 used once
L1.424 000001A8

Symbol: L1.424
   Definitions
      At line 321 in file .\objects\print.s
   Uses
      At line 212 in file .\objects\print.s
      At line 222 in file .\objects\print.s

L1.428 000001AC

Symbol: L1.428
   Definitions
      At line 323 in file .\objects\print.s
   Uses
      At line 217 in file .\objects\print.s
Comment: L1.428 used once
L1.436 000001B4

Symbol: L1.436
   Definitions
      At line 325 in file .\objects\print.s
   Uses
      At line 227 in file .\objects\print.s
Comment: L1.436 used once
L1.444 000001BC

Symbol: L1.444
   Definitions
      At line 327 in file .\objects\print.s
   Uses
      At line 240 in file .\objects\print.s
Comment: L1.444 used once
L1.452 000001C4

Symbol: L1.452
   Definitions
      At line 329 in file .\objects\print.s
   Uses
      At line 244 in file .\objects\print.s
      At line 281 in file .\objects\print.s

L1.460 000001CC

Symbol: L1.460
   Definitions
      At line 331 in file .\objects\print.s
   Uses
      At line 274 in file .\objects\print.s



ARM Macro Assembler    Page 4 Alphabetic symbol ordering
Relocatable symbols

Comment: L1.460 used once
L1.64 00000040

Symbol: L1.64
   Definitions
      At line 184 in file .\objects\print.s
   Uses
      At line 205 in file .\objects\print.s
      At line 215 in file .\objects\print.s
      At line 225 in file .\objects\print.s
      At line 307 in file .\objects\print.s

L1.74 0000004A

Symbol: L1.74
   Definitions
      At line 188 in file .\objects\print.s
   Uses
      At line 180 in file .\objects\print.s
Comment: L1.74 used once
L1.96 00000060

Symbol: L1.96
   Definitions
      At line 198 in file .\objects\print.s
   Uses
      At line 193 in file .\objects\print.s
      At line 195 in file .\objects\print.s

L1.98 00000062

Symbol: L1.98
   Definitions
      At line 200 in file .\objects\print.s
   Uses
      At line 197 in file .\objects\print.s
Comment: L1.98 used once
_ZN5Print10printFloatEdh 00000000

Symbol: _ZN5Print10printFloatEdh
   Definitions
      At line 158 in file .\objects\print.s
   Uses
      At line 468 in file .\objects\print.s
      At line 658 in file C:\\Keil_v5\\ARM\\PACK\\ARM\\CMSIS\\5.0.1\\CMSIS\\Inc
lude\\cmsis_armcc.h

|i._ZN5Print10printFloatEdh| 00000000

Symbol: |i._ZN5Print10printFloatEdh|
   Definitions
      At line 156 in file .\objects\print.s
   Uses
      At line 895 in file .\objects\print.s
Comment: |i._ZN5Print10printFloatEdh| used once
28 symbols



ARM Macro Assembler    Page 1 Alphabetic symbol ordering
Relocatable symbols

L2.22 00000016

Symbol: L2.22
   Definitions
      At line 350 in file .\objects\print.s
   Uses
      At line 348 in file .\objects\print.s
Comment: L2.22 used once
L2.24 00000018

Symbol: L2.24
   Definitions
      At line 352 in file .\objects\print.s
   Uses
      At line 369 in file .\objects\print.s
Comment: L2.24 used once
L2.48 00000030

Symbol: L2.48
   Definitions
      At line 361 in file .\objects\print.s
   Uses
      At line 358 in file .\objects\print.s
Comment: L2.48 used once
L2.52 00000034

Symbol: L2.52
   Definitions
      At line 363 in file .\objects\print.s
   Uses
      At line 360 in file .\objects\print.s
Comment: L2.52 used once
_ZN5Print11printNumberEmh 00000000

Symbol: _ZN5Print11printNumberEmh
   Definitions
      At line 338 in file .\objects\print.s
   Uses
      At line 547 in file .\objects\print.s
      At line 554 in file .\objects\print.s
      At line 560 in file .\objects\print.s
      At line 584 in file .\objects\print.s
      At line 659 in file C:\\Keil_v5\\ARM\\PACK\\ARM\\CMSIS\\5.0.1\\CMSIS\\Inc
lude\\cmsis_armcc.h

|i._ZN5Print11printNumberEmh| 00000000

Symbol: |i._ZN5Print11printNumberEmh|
   Definitions
      At line 336 in file .\objects\print.s
   Uses
      At line 860 in file .\objects\print.s
Comment: |i._ZN5Print11printNumberEmh| used once
6 symbols



ARM Macro Assembler    Page 1 Alphabetic symbol ordering
Relocatable symbols

_ZN5Print5printEPK19__FlashStringHelper 00000000

Symbol: _ZN5Print5printEPK19__FlashStringHelper
   Definitions
      At line 380 in file .\objects\print.s
   Uses
      At line 628 in file .\objects\print.s
      At line 660 in file C:\\Keil_v5\\ARM\\PACK\\ARM\\CMSIS\\5.0.1\\CMSIS\\Inc
lude\\cmsis_armcc.h

|i._ZN5Print5printEPK19__FlashStringHelper| 00000000

Symbol: |i._ZN5Print5printEPK19__FlashStringHelper|
   Definitions
      At line 378 in file .\objects\print.s
   Uses
      At line 909 in file .\objects\print.s
Comment: |i._ZN5Print5printEPK19__FlashStringHelper| used once
2 symbols



ARM Macro Assembler    Page 1 Alphabetic symbol ordering
Relocatable symbols

_ZN5Print5printEPKc 00000000

Symbol: _ZN5Print5printEPKc
   Definitions
      At line 393 in file .\objects\print.s
   Uses
      At line 183 in file .\objects\print.s
      At line 204 in file .\objects\print.s
      At line 214 in file .\objects\print.s
      At line 224 in file .\objects\print.s
      At line 276 in file .\objects\print.s
      At line 386 in file .\objects\print.s
      At line 646 in file .\objects\print.s
      At line 661 in file C:\\Keil_v5\\ARM\\PACK\\ARM\\CMSIS\\5.0.1\\CMSIS\\Inc
lude\\cmsis_armcc.h

|i._ZN5Print5printEPKc| 00000000

Symbol: |i._ZN5Print5printEPKc|
   Definitions
      At line 391 in file .\objects\print.s
   Uses
      At line 881 in file .\objects\print.s
Comment: |i._ZN5Print5printEPKc| used once
2 symbols



ARM Macro Assembler    Page 1 Alphabetic symbol ordering
Relocatable symbols

_ZN5Print5printERK6String 00000000

Symbol: _ZN5Print5printERK6String
   Definitions
      At line 406 in file .\objects\print.s
   Uses
      At line 664 in file .\objects\print.s
      At line 662 in file C:\\Keil_v5\\ARM\\PACK\\ARM\\CMSIS\\5.0.1\\CMSIS\\Inc
lude\\cmsis_armcc.h

|i._ZN5Print5printERK6String| 00000000

Symbol: |i._ZN5Print5printERK6String|
   Definitions
      At line 404 in file .\objects\print.s
   Uses
      At line 916 in file .\objects\print.s
      At line 1044 in file .\objects\print.s

2 symbols



ARM Macro Assembler    Page 1 Alphabetic symbol ordering
Relocatable symbols

_ZN5Print5printERK9Printable 00000000

Symbol: _ZN5Print5printERK9Printable
   Definitions
      At line 427 in file .\objects\print.s
   Uses
      At line 682 in file .\objects\print.s
      At line 663 in file C:\\Keil_v5\\ARM\\PACK\\ARM\\CMSIS\\5.0.1\\CMSIS\\Inc
lude\\cmsis_armcc.h

|i._ZN5Print5printERK9Printable| 00000000

Symbol: |i._ZN5Print5printERK9Printable|
   Definitions
      At line 425 in file .\objects\print.s
   Uses
      At line 951 in file .\objects\print.s
      At line 1056 in file .\objects\print.s

2 symbols



ARM Macro Assembler    Page 1 Alphabetic symbol ordering
Relocatable symbols

_ZN5Print5printEc 00000000

Symbol: _ZN5Print5printEc
   Definitions
      At line 442 in file .\objects\print.s
   Uses
      At line 234 in file .\objects\print.s
      At line 541 in file .\objects\print.s
      At line 700 in file .\objects\print.s
      At line 664 in file C:\\Keil_v5\\ARM\\PACK\\ARM\\CMSIS\\5.0.1\\CMSIS\\Inc
lude\\cmsis_armcc.h

|i._ZN5Print5printEc| 00000000

Symbol: |i._ZN5Print5printEc|
   Definitions
      At line 440 in file .\objects\print.s
   Uses
      At line 888 in file .\objects\print.s
      At line 1068 in file .\objects\print.s

2 symbols



ARM Macro Assembler    Page 1 Alphabetic symbol ordering
Relocatable symbols

_ZN5Print5printEdi 00000000

Symbol: _ZN5Print5printEdi
   Definitions
      At line 457 in file .\objects\print.s
   Uses
      At line 723 in file .\objects\print.s
      At line 665 in file C:\\Keil_v5\\ARM\\PACK\\ARM\\CMSIS\\5.0.1\\CMSIS\\Inc
lude\\cmsis_armcc.h

|i._ZN5Print5printEdi| 00000000

Symbol: |i._ZN5Print5printEdi|
   Definitions
      At line 455 in file .\objects\print.s
   Uses
      At line 944 in file .\objects\print.s
Comment: |i._ZN5Print5printEdi| used once
2 symbols



ARM Macro Assembler    Page 1 Alphabetic symbol ordering
Relocatable symbols

_ZN5Print5printEhi 00000000

Symbol: _ZN5Print5printEhi
   Definitions
      At line 476 in file .\objects\print.s
   Uses
      At line 744 in file .\objects\print.s
      At line 666 in file C:\\Keil_v5\\ARM\\PACK\\ARM\\CMSIS\\5.0.1\\CMSIS\\Inc
lude\\cmsis_armcc.h

|i._ZN5Print5printEhi| 00000000

Symbol: |i._ZN5Print5printEhi|
   Definitions
      At line 474 in file .\objects\print.s
   Uses
      At line 923 in file .\objects\print.s
Comment: |i._ZN5Print5printEhi| used once
2 symbols



ARM Macro Assembler    Page 1 Alphabetic symbol ordering
Relocatable symbols

_ZN5Print5printEii 00000000

Symbol: _ZN5Print5printEii
   Definitions
      At line 491 in file .\objects\print.s
   Uses
      At line 764 in file .\objects\print.s
      At line 667 in file C:\\Keil_v5\\ARM\\PACK\\ARM\\CMSIS\\5.0.1\\CMSIS\\Inc
lude\\cmsis_armcc.h

|i._ZN5Print5printEii| 00000000

Symbol: |i._ZN5Print5printEii|
   Definitions
      At line 489 in file .\objects\print.s
   Uses
      At line 937 in file .\objects\print.s
Comment: |i._ZN5Print5printEii| used once
2 symbols



ARM Macro Assembler    Page 1 Alphabetic symbol ordering
Relocatable symbols

_ZN5Print5printEji 00000000

Symbol: _ZN5Print5printEji
   Definitions
      At line 506 in file .\objects\print.s
   Uses
      At line 292 in file .\objects\print.s
      At line 784 in file .\objects\print.s
      At line 668 in file C:\\Keil_v5\\ARM\\PACK\\ARM\\CMSIS\\5.0.1\\CMSIS\\Inc
lude\\cmsis_armcc.h

|i._ZN5Print5printEji| 00000000

Symbol: |i._ZN5Print5printEji|
   Definitions
      At line 504 in file .\objects\print.s
   Uses
      At line 874 in file .\objects\print.s
Comment: |i._ZN5Print5printEji| used once
2 symbols



ARM Macro Assembler    Page 1 Alphabetic symbol ordering
Relocatable symbols

L12.22 00000016

Symbol: L12.22
   Definitions
      At line 532 in file .\objects\print.s
   Uses
      At line 549 in file .\objects\print.s
      At line 555 in file .\objects\print.s
      At line 561 in file .\objects\print.s

L12.26 0000001A

Symbol: L12.26
   Definitions
      At line 534 in file .\objects\print.s
   Uses
      At line 526 in file .\objects\print.s
Comment: L12.26 used once
L12.60 0000003C

Symbol: L12.60
   Definitions
      At line 550 in file .\objects\print.s
   Uses
      At line 538 in file .\objects\print.s
Comment: L12.60 used once
L12.72 00000048

Symbol: L12.72
   Definitions
      At line 556 in file .\objects\print.s
   Uses
      At line 536 in file .\objects\print.s
Comment: L12.72 used once
_ZN5Print5printEli 00000000

Symbol: _ZN5Print5printEli
   Definitions
      At line 521 in file .\objects\print.s
   Uses
      At line 499 in file .\objects\print.s
      At line 804 in file .\objects\print.s
      At line 669 in file C:\\Keil_v5\\ARM\\PACK\\ARM\\CMSIS\\5.0.1\\CMSIS\\Inc
lude\\cmsis_armcc.h

|i._ZN5Print5printEli| 00000000

Symbol: |i._ZN5Print5printEli|
   Definitions
      At line 519 in file .\objects\print.s
   Uses
      At line 930 in file .\objects\print.s
      At line 1080 in file .\objects\print.s

6 symbols



ARM Macro Assembler    Page 1 Alphabetic symbol ordering
Relocatable symbols

L13.20 00000014

Symbol: L13.20
   Definitions
      At line 578 in file .\objects\print.s
   Uses
      At line 585 in file .\objects\print.s
Comment: L13.20 used once
L13.22 00000016

Symbol: L13.22
   Definitions
      At line 580 in file .\objects\print.s
   Uses
      At line 572 in file .\objects\print.s
Comment: L13.22 used once
_ZN5Print5printEmi 00000000

Symbol: _ZN5Print5printEmi
   Definitions
      At line 567 in file .\objects\print.s
   Uses
      At line 270 in file .\objects\print.s
      At line 484 in file .\objects\print.s
      At line 514 in file .\objects\print.s
      At line 824 in file .\objects\print.s
      At line 670 in file C:\\Keil_v5\\ARM\\PACK\\ARM\\CMSIS\\5.0.1\\CMSIS\\Inc
lude\\cmsis_armcc.h

|i._ZN5Print5printEmi| 00000000

Symbol: |i._ZN5Print5printEmi|
   Definitions
      At line 565 in file .\objects\print.s
   Uses
      At line 867 in file .\objects\print.s
      At line 1092 in file .\objects\print.s

4 symbols



ARM Macro Assembler    Page 1 Alphabetic symbol ordering
Relocatable symbols

L14.14 0000000E

Symbol: L14.14
   Definitions
      At line 598 in file .\objects\print.s
   Uses
      At line 612 in file .\objects\print.s
Comment: L14.14 used once
L14.32 00000020

Symbol: L14.32
   Definitions
      At line 607 in file .\objects\print.s
   Uses
      At line 604 in file .\objects\print.s
Comment: L14.32 used once
L14.34 00000022

Symbol: L14.34
   Definitions
      At line 609 in file .\objects\print.s
   Uses
      At line 597 in file .\objects\print.s
      At line 606 in file .\objects\print.s

L14.42 0000002A

Symbol: L14.42
   Definitions
      At line 613 in file .\objects\print.s
   Uses
      At line 608 in file .\objects\print.s
Comment: L14.42 used once
_ZN5Print5writeEPKhj 00000000

Symbol: _ZN5Print5writeEPKhj
   Definitions
      At line 591 in file .\objects\print.s
   Uses
      At line 1130 in file .\objects\print.s
      At line 671 in file C:\\Keil_v5\\ARM\\PACK\\ARM\\CMSIS\\5.0.1\\CMSIS\\Inc
lude\\cmsis_armcc.h

|i._ZN5Print5writeEPKhj| 00000000

Symbol: |i._ZN5Print5writeEPKhj|
   Definitions
      At line 589 in file .\objects\print.s
   Uses
      At line 902 in file .\objects\print.s
      At line 1104 in file .\objects\print.s

6 symbols



ARM Macro Assembler    Page 1 Alphabetic symbol ordering
Relocatable symbols

_ZN5Print7printlnEPK19__FlashStringHelper 00000000

Symbol: _ZN5Print7printlnEPK19__FlashStringHelper
   Definitions
      At line 622 in file .\objects\print.s
   Uses
      At line 672 in file C:\\Keil_v5\\ARM\\PACK\\ARM\\CMSIS\\5.0.1\\CMSIS\\Inc
lude\\cmsis_armcc.h
Comment: _ZN5Print7printlnEPK19__FlashStringHelper used once
|i._ZN5Print7printlnEPK19__FlashStringHelper| 00000000

Symbol: |i._ZN5Print7printlnEPK19__FlashStringHelper|
   Definitions
      At line 620 in file .\objects\print.s
   Uses
      At line 965 in file .\objects\print.s
Comment: |i._ZN5Print7printlnEPK19__FlashStringHelper| used once
2 symbols



ARM Macro Assembler    Page 1 Alphabetic symbol ordering
Relocatable symbols

_ZN5Print7printlnEPKc 00000000

Symbol: _ZN5Print7printlnEPKc
   Definitions
      At line 640 in file .\objects\print.s
   Uses
      At line 673 in file C:\\Keil_v5\\ARM\\PACK\\ARM\\CMSIS\\5.0.1\\CMSIS\\Inc
lude\\cmsis_armcc.h
Comment: _ZN5Print7printlnEPKc used once
|i._ZN5Print7printlnEPKc| 00000000

Symbol: |i._ZN5Print7printlnEPKc|
   Definitions
      At line 638 in file .\objects\print.s
   Uses
      At line 979 in file .\objects\print.s
Comment: |i._ZN5Print7printlnEPKc| used once
2 symbols



ARM Macro Assembler    Page 1 Alphabetic symbol ordering
Relocatable symbols

_ZN5Print7printlnERK6String 00000000

Symbol: _ZN5Print7printlnERK6String
   Definitions
      At line 658 in file .\objects\print.s
   Uses
      At line 674 in file C:\\Keil_v5\\ARM\\PACK\\ARM\\CMSIS\\5.0.1\\CMSIS\\Inc
lude\\cmsis_armcc.h
Comment: _ZN5Print7printlnERK6String used once
|i._ZN5Print7printlnERK6String| 00000000

Symbol: |i._ZN5Print7printlnERK6String|
   Definitions
      At line 656 in file .\objects\print.s
   Uses
      At line 972 in file .\objects\print.s
Comment: |i._ZN5Print7printlnERK6String| used once
2 symbols



ARM Macro Assembler    Page 1 Alphabetic symbol ordering
Relocatable symbols

_ZN5Print7printlnERK9Printable 00000000

Symbol: _ZN5Print7printlnERK9Printable
   Definitions
      At line 676 in file .\objects\print.s
   Uses
      At line 675 in file C:\\Keil_v5\\ARM\\PACK\\ARM\\CMSIS\\5.0.1\\CMSIS\\Inc
lude\\cmsis_armcc.h
Comment: _ZN5Print7printlnERK9Printable used once
|i._ZN5Print7printlnERK9Printable| 00000000

Symbol: |i._ZN5Print7printlnERK9Printable|
   Definitions
      At line 674 in file .\objects\print.s
   Uses
      At line 1035 in file .\objects\print.s
Comment: |i._ZN5Print7printlnERK9Printable| used once
2 symbols



ARM Macro Assembler    Page 1 Alphabetic symbol ordering
Relocatable symbols

_ZN5Print7printlnEc 00000000

Symbol: _ZN5Print7printlnEc
   Definitions
      At line 694 in file .\objects\print.s
   Uses
      At line 676 in file C:\\Keil_v5\\ARM\\PACK\\ARM\\CMSIS\\5.0.1\\CMSIS\\Inc
lude\\cmsis_armcc.h
Comment: _ZN5Print7printlnEc used once
|i._ZN5Print7printlnEc| 00000000

Symbol: |i._ZN5Print7printlnEc|
   Definitions
      At line 692 in file .\objects\print.s
   Uses
      At line 986 in file .\objects\print.s
Comment: |i._ZN5Print7printlnEc| used once
2 symbols



ARM Macro Assembler    Page 1 Alphabetic symbol ordering
Relocatable symbols

_ZN5Print7printlnEdi 00000000

Symbol: _ZN5Print7printlnEdi
   Definitions
      At line 712 in file .\objects\print.s
   Uses
      At line 677 in file C:\\Keil_v5\\ARM\\PACK\\ARM\\CMSIS\\5.0.1\\CMSIS\\Inc
lude\\cmsis_armcc.h
Comment: _ZN5Print7printlnEdi used once
|i._ZN5Print7printlnEdi| 00000000

Symbol: |i._ZN5Print7printlnEdi|
   Definitions
      At line 710 in file .\objects\print.s
   Uses
      At line 1028 in file .\objects\print.s
Comment: |i._ZN5Print7printlnEdi| used once
2 symbols



ARM Macro Assembler    Page 1 Alphabetic symbol ordering
Relocatable symbols

_ZN5Print7printlnEhi 00000000

Symbol: _ZN5Print7printlnEhi
   Definitions
      At line 736 in file .\objects\print.s
   Uses
      At line 678 in file C:\\Keil_v5\\ARM\\PACK\\ARM\\CMSIS\\5.0.1\\CMSIS\\Inc
lude\\cmsis_armcc.h
Comment: _ZN5Print7printlnEhi used once
|i._ZN5Print7printlnEhi| 00000000

Symbol: |i._ZN5Print7printlnEhi|
   Definitions
      At line 734 in file .\objects\print.s
   Uses
      At line 993 in file .\objects\print.s
Comment: |i._ZN5Print7printlnEhi| used once
2 symbols



ARM Macro Assembler    Page 1 Alphabetic symbol ordering
Relocatable symbols

_ZN5Print7printlnEii 00000000

Symbol: _ZN5Print7printlnEii
   Definitions
      At line 756 in file .\objects\print.s
   Uses
      At line 679 in file C:\\Keil_v5\\ARM\\PACK\\ARM\\CMSIS\\5.0.1\\CMSIS\\Inc
lude\\cmsis_armcc.h
Comment: _ZN5Print7printlnEii used once
|i._ZN5Print7printlnEii| 00000000

Symbol: |i._ZN5Print7printlnEii|
   Definitions
      At line 754 in file .\objects\print.s
   Uses
      At line 1000 in file .\objects\print.s
Comment: |i._ZN5Print7printlnEii| used once
2 symbols



ARM Macro Assembler    Page 1 Alphabetic symbol ordering
Relocatable symbols

_ZN5Print7printlnEji 00000000

Symbol: _ZN5Print7printlnEji
   Definitions
      At line 776 in file .\objects\print.s
   Uses
      At line 680 in file C:\\Keil_v5\\ARM\\PACK\\ARM\\CMSIS\\5.0.1\\CMSIS\\Inc
lude\\cmsis_armcc.h
Comment: _ZN5Print7printlnEji used once
|i._ZN5Print7printlnEji| 00000000

Symbol: |i._ZN5Print7printlnEji|
   Definitions
      At line 774 in file .\objects\print.s
   Uses
      At line 1007 in file .\objects\print.s
Comment: |i._ZN5Print7printlnEji| used once
2 symbols



ARM Macro Assembler    Page 1 Alphabetic symbol ordering
Relocatable symbols

_ZN5Print7printlnEli 00000000

Symbol: _ZN5Print7printlnEli
   Definitions
      At line 796 in file .\objects\print.s
   Uses
      At line 681 in file C:\\Keil_v5\\ARM\\PACK\\ARM\\CMSIS\\5.0.1\\CMSIS\\Inc
lude\\cmsis_armcc.h
Comment: _ZN5Print7printlnEli used once
|i._ZN5Print7printlnEli| 00000000

Symbol: |i._ZN5Print7printlnEli|
   Definitions
      At line 794 in file .\objects\print.s
   Uses
      At line 1014 in file .\objects\print.s
Comment: |i._ZN5Print7printlnEli| used once
2 symbols



ARM Macro Assembler    Page 1 Alphabetic symbol ordering
Relocatable symbols

_ZN5Print7printlnEmi 00000000

Symbol: _ZN5Print7printlnEmi
   Definitions
      At line 816 in file .\objects\print.s
   Uses
      At line 682 in file C:\\Keil_v5\\ARM\\PACK\\ARM\\CMSIS\\5.0.1\\CMSIS\\Inc
lude\\cmsis_armcc.h
Comment: _ZN5Print7printlnEmi used once
|i._ZN5Print7printlnEmi| 00000000

Symbol: |i._ZN5Print7printlnEmi|
   Definitions
      At line 814 in file .\objects\print.s
   Uses
      At line 1021 in file .\objects\print.s
Comment: |i._ZN5Print7printlnEmi| used once
2 symbols



ARM Macro Assembler    Page 1 Alphabetic symbol ordering
Relocatable symbols

L26.16 00000010

Symbol: L26.16
   Definitions
      At line 846 in file .\objects\print.s
   Uses
      At line 839 in file .\objects\print.s
Comment: L26.16 used once
_ZN5Print7printlnEv 00000000

Symbol: _ZN5Print7printlnEv
   Definitions
      At line 836 in file .\objects\print.s
   Uses
      At line 631 in file .\objects\print.s
      At line 649 in file .\objects\print.s
      At line 667 in file .\objects\print.s
      At line 685 in file .\objects\print.s
      At line 703 in file .\objects\print.s
      At line 726 in file .\objects\print.s
      At line 747 in file .\objects\print.s
      At line 767 in file .\objects\print.s
      At line 787 in file .\objects\print.s
      At line 807 in file .\objects\print.s
      At line 827 in file .\objects\print.s
      At line 683 in file C:\\Keil_v5\\ARM\\PACK\\ARM\\CMSIS\\5.0.1\\CMSIS\\Inc
lude\\cmsis_armcc.h

|i._ZN5Print7printlnEv| 00000000

Symbol: |i._ZN5Print7printlnEv|
   Definitions
      At line 834 in file .\objects\print.s
   Uses
      At line 958 in file .\objects\print.s
Comment: |i._ZN5Print7printlnEv| used once
3 symbols



ARM Macro Assembler    Page 1 Alphabetic symbol ordering
Relocatable symbols

|.ARM.exidx| 00000000

Symbol: |.ARM.exidx|
   Definitions
      At line 850 in file .\objects\print.s
   Uses
      None
Comment: |.ARM.exidx| unused
1 symbol



ARM Macro Assembler    Page 1 Alphabetic symbol ordering
Relocatable symbols

|area_number.28| 00000000

Symbol: |area_number.28|
   Definitions
      At line 856 in file .\objects\print.s
   Uses
      None
Comment: |area_number.28| unused
1 symbol



ARM Macro Assembler    Page 1 Alphabetic symbol ordering
Relocatable symbols

|area_number.29| 00000000

Symbol: |area_number.29|
   Definitions
      At line 863 in file .\objects\print.s
   Uses
      None
Comment: |area_number.29| unused
1 symbol



ARM Macro Assembler    Page 1 Alphabetic symbol ordering
Relocatable symbols

|area_number.30| 00000000

Symbol: |area_number.30|
   Definitions
      At line 870 in file .\objects\print.s
   Uses
      None
Comment: |area_number.30| unused
1 symbol



ARM Macro Assembler    Page 1 Alphabetic symbol ordering
Relocatable symbols

|area_number.31| 00000000

Symbol: |area_number.31|
   Definitions
      At line 877 in file .\objects\print.s
   Uses
      None
Comment: |area_number.31| unused
1 symbol



ARM Macro Assembler    Page 1 Alphabetic symbol ordering
Relocatable symbols

|area_number.32| 00000000

Symbol: |area_number.32|
   Definitions
      At line 884 in file .\objects\print.s
   Uses
      None
Comment: |area_number.32| unused
1 symbol



ARM Macro Assembler    Page 1 Alphabetic symbol ordering
Relocatable symbols

|area_number.33| 00000000

Symbol: |area_number.33|
   Definitions
      At line 891 in file .\objects\print.s
   Uses
      None
Comment: |area_number.33| unused
1 symbol



ARM Macro Assembler    Page 1 Alphabetic symbol ordering
Relocatable symbols

|area_number.34| 00000000

Symbol: |area_number.34|
   Definitions
      At line 898 in file .\objects\print.s
   Uses
      None
Comment: |area_number.34| unused
1 symbol



ARM Macro Assembler    Page 1 Alphabetic symbol ordering
Relocatable symbols

|area_number.35| 00000000

Symbol: |area_number.35|
   Definitions
      At line 905 in file .\objects\print.s
   Uses
      None
Comment: |area_number.35| unused
1 symbol



ARM Macro Assembler    Page 1 Alphabetic symbol ordering
Relocatable symbols

|area_number.36| 00000000

Symbol: |area_number.36|
   Definitions
      At line 912 in file .\objects\print.s
   Uses
      None
Comment: |area_number.36| unused
1 symbol



ARM Macro Assembler    Page 1 Alphabetic symbol ordering
Relocatable symbols

|area_number.37| 00000000

Symbol: |area_number.37|
   Definitions
      At line 919 in file .\objects\print.s
   Uses
      None
Comment: |area_number.37| unused
1 symbol



ARM Macro Assembler    Page 1 Alphabetic symbol ordering
Relocatable symbols

|area_number.38| 00000000

Symbol: |area_number.38|
   Definitions
      At line 926 in file .\objects\print.s
   Uses
      None
Comment: |area_number.38| unused
1 symbol



ARM Macro Assembler    Page 1 Alphabetic symbol ordering
Relocatable symbols

|area_number.39| 00000000

Symbol: |area_number.39|
   Definitions
      At line 933 in file .\objects\print.s
   Uses
      None
Comment: |area_number.39| unused
1 symbol



ARM Macro Assembler    Page 1 Alphabetic symbol ordering
Relocatable symbols

|area_number.40| 00000000

Symbol: |area_number.40|
   Definitions
      At line 940 in file .\objects\print.s
   Uses
      None
Comment: |area_number.40| unused
1 symbol



ARM Macro Assembler    Page 1 Alphabetic symbol ordering
Relocatable symbols

|area_number.41| 00000000

Symbol: |area_number.41|
   Definitions
      At line 947 in file .\objects\print.s
   Uses
      None
Comment: |area_number.41| unused
1 symbol



ARM Macro Assembler    Page 1 Alphabetic symbol ordering
Relocatable symbols

|area_number.42| 00000000

Symbol: |area_number.42|
   Definitions
      At line 954 in file .\objects\print.s
   Uses
      None
Comment: |area_number.42| unused
1 symbol



ARM Macro Assembler    Page 1 Alphabetic symbol ordering
Relocatable symbols

|area_number.43| 00000000

Symbol: |area_number.43|
   Definitions
      At line 961 in file .\objects\print.s
   Uses
      None
Comment: |area_number.43| unused
1 symbol



ARM Macro Assembler    Page 1 Alphabetic symbol ordering
Relocatable symbols

|area_number.44| 00000000

Symbol: |area_number.44|
   Definitions
      At line 968 in file .\objects\print.s
   Uses
      None
Comment: |area_number.44| unused
1 symbol



ARM Macro Assembler    Page 1 Alphabetic symbol ordering
Relocatable symbols

|area_number.45| 00000000

Symbol: |area_number.45|
   Definitions
      At line 975 in file .\objects\print.s
   Uses
      None
Comment: |area_number.45| unused
1 symbol



ARM Macro Assembler    Page 1 Alphabetic symbol ordering
Relocatable symbols

|area_number.46| 00000000

Symbol: |area_number.46|
   Definitions
      At line 982 in file .\objects\print.s
   Uses
      None
Comment: |area_number.46| unused
1 symbol



ARM Macro Assembler    Page 1 Alphabetic symbol ordering
Relocatable symbols

|area_number.47| 00000000

Symbol: |area_number.47|
   Definitions
      At line 989 in file .\objects\print.s
   Uses
      None
Comment: |area_number.47| unused
1 symbol



ARM Macro Assembler    Page 1 Alphabetic symbol ordering
Relocatable symbols

|area_number.48| 00000000

Symbol: |area_number.48|
   Definitions
      At line 996 in file .\objects\print.s
   Uses
      None
Comment: |area_number.48| unused
1 symbol



ARM Macro Assembler    Page 1 Alphabetic symbol ordering
Relocatable symbols

|area_number.49| 00000000

Symbol: |area_number.49|
   Definitions
      At line 1003 in file .\objects\print.s
   Uses
      None
Comment: |area_number.49| unused
1 symbol



ARM Macro Assembler    Page 1 Alphabetic symbol ordering
Relocatable symbols

|area_number.50| 00000000

Symbol: |area_number.50|
   Definitions
      At line 1010 in file .\objects\print.s
   Uses
      None
Comment: |area_number.50| unused
1 symbol



ARM Macro Assembler    Page 1 Alphabetic symbol ordering
Relocatable symbols

|area_number.51| 00000000

Symbol: |area_number.51|
   Definitions
      At line 1017 in file .\objects\print.s
   Uses
      None
Comment: |area_number.51| unused
1 symbol



ARM Macro Assembler    Page 1 Alphabetic symbol ordering
Relocatable symbols

|area_number.52| 00000000

Symbol: |area_number.52|
   Definitions
      At line 1024 in file .\objects\print.s
   Uses
      None
Comment: |area_number.52| unused
1 symbol



ARM Macro Assembler    Page 1 Alphabetic symbol ordering
Relocatable symbols

|area_number.53| 00000000

Symbol: |area_number.53|
   Definitions
      At line 1031 in file .\objects\print.s
   Uses
      None
Comment: |area_number.53| unused
1 symbol



ARM Macro Assembler    Page 1 Alphabetic symbol ordering
Relocatable symbols

|.arm_vfe_header| 00000000

Symbol: |.arm_vfe_header|
   Definitions
      At line 1038 in file .\objects\print.s
   Uses
      None
Comment: |.arm_vfe_header| unused
1 symbol



ARM Macro Assembler    Page 1 Alphabetic symbol ordering
Relocatable symbols

|.arm_vfe_vcallinfoi._ZN5Print5printERK6String| 00000000

Symbol: |.arm_vfe_vcallinfoi._ZN5Print5printERK6String|
   Definitions
      At line 1042 in file .\objects\print.s
   Uses
      None
Comment: |.arm_vfe_vcallinfoi._ZN5Print5printERK6String| unused
1 symbol



ARM Macro Assembler    Page 1 Alphabetic symbol ordering
Relocatable symbols

|.arm_vfe_vcallinfoi._ZN5Print5printERK9Printable| 00000000

Symbol: |.arm_vfe_vcallinfoi._ZN5Print5printERK9Printable|
   Definitions
      At line 1054 in file .\objects\print.s
   Uses
      None
Comment: |.arm_vfe_vcallinfoi._ZN5Print5printERK9Printable| unused
1 symbol



ARM Macro Assembler    Page 1 Alphabetic symbol ordering
Relocatable symbols

|.arm_vfe_vcallinfoi._ZN5Print5printEc| 00000000

Symbol: |.arm_vfe_vcallinfoi._ZN5Print5printEc|
   Definitions
      At line 1066 in file .\objects\print.s
   Uses
      None
Comment: |.arm_vfe_vcallinfoi._ZN5Print5printEc| unused
1 symbol



ARM Macro Assembler    Page 1 Alphabetic symbol ordering
Relocatable symbols

|.arm_vfe_vcallinfoi._ZN5Print5printEli| 00000000

Symbol: |.arm_vfe_vcallinfoi._ZN5Print5printEli|
   Definitions
      At line 1078 in file .\objects\print.s
   Uses
      None
Comment: |.arm_vfe_vcallinfoi._ZN5Print5printEli| unused
1 symbol



ARM Macro Assembler    Page 1 Alphabetic symbol ordering
Relocatable symbols

|.arm_vfe_vcallinfoi._ZN5Print5printEmi| 00000000

Symbol: |.arm_vfe_vcallinfoi._ZN5Print5printEmi|
   Definitions
      At line 1090 in file .\objects\print.s
   Uses
      None
Comment: |.arm_vfe_vcallinfoi._ZN5Print5printEmi| unused
1 symbol



ARM Macro Assembler    Page 1 Alphabetic symbol ordering
Relocatable symbols

|.arm_vfe_vcallinfoi._ZN5Print5writeEPKhj| 00000000

Symbol: |.arm_vfe_vcallinfoi._ZN5Print5writeEPKhj|
   Definitions
      At line 1102 in file .\objects\print.s
   Uses
      None
Comment: |.arm_vfe_vcallinfoi._ZN5Print5writeEPKhj| unused
1 symbol



ARM Macro Assembler    Page 1 Alphabetic symbol ordering
Relocatable symbols

|.arm_vfe_vtableinfo_ZTV5Print| 00000000

Symbol: |.arm_vfe_vtableinfo_ZTV5Print|
   Definitions
      At line 1114 in file .\objects\print.s
   Uses
      None
Comment: |.arm_vfe_vtableinfo_ZTV5Print| unused
1 symbol



ARM Macro Assembler    Page 1 Alphabetic symbol ordering
Relocatable symbols

_ZTV5Print 00000000

Symbol: _ZTV5Print
   Definitions
      At line 1126 in file .\objects\print.s
   Uses
      At line 684 in file C:\\Keil_v5\\ARM\\PACK\\ARM\\CMSIS\\5.0.1\\CMSIS\\Inc
lude\\cmsis_armcc.h
Comment: _ZTV5Print used once
|.constdata__ZTV5Print| 00000000

Symbol: |.constdata__ZTV5Print|
   Definitions
      At line 1124 in file .\objects\print.s
   Uses
      None
Comment: |.constdata__ZTV5Print| unused
2 symbols



ARM Macro Assembler    Page 1 Alphabetic symbol ordering
Relocatable symbols

L176.10 0000000A

Symbol: L176.10
   Definitions
      At line 1140 in file .\objects\print.s
   Uses
      At line 1152 in file .\objects\print.s
Comment: L176.10 used once
L176.12 0000000C

Symbol: L176.12
   Definitions
      At line 1142 in file .\objects\print.s
   Uses
      At line 1138 in file .\objects\print.s
Comment: L176.12 used once
_ZN5Print5writeEPKc 00000000

Symbol: _ZN5Print5writeEPKc
   Definitions
      At line 1134 in file .\objects\print.s
   Uses
      At line 372 in file .\objects\print.s
      At line 399 in file .\objects\print.s
      At line 841 in file .\objects\print.s
      At line 685 in file C:\\Keil_v5\\ARM\\PACK\\ARM\\CMSIS\\5.0.1\\CMSIS\\Inc
lude\\cmsis_armcc.h

|i._ZN5Print5writeEPKc| 00000000

Symbol: |i._ZN5Print5writeEPKc|
   Definitions
      At line 1132 in file .\objects\print.s
   Uses
      At line 1160 in file .\objects\print.s
      At line 1165 in file .\objects\print.s

4 symbols



ARM Macro Assembler    Page 1 Alphabetic symbol ordering
Relocatable symbols

|area_number.177| 00000000

Symbol: |area_number.177|
   Definitions
      At line 1156 in file .\objects\print.s
   Uses
      None
Comment: |area_number.177| unused
1 symbol



ARM Macro Assembler    Page 1 Alphabetic symbol ordering
Relocatable symbols

|.arm_vfe_vcallinfoi._ZN5Print5writeEPKc| 00000000

Symbol: |.arm_vfe_vcallinfoi._ZN5Print5writeEPKc|
   Definitions
      At line 1163 in file .\objects\print.s
   Uses
      None
Comment: |.arm_vfe_vcallinfoi._ZN5Print5writeEPKc| unused
1 symbol



ARM Macro Assembler    Page 1 Alphabetic symbol ordering
Relocatable symbols

_ZTI5Print 00000000

Symbol: _ZTI5Print
   Definitions
      At line 1177 in file .\objects\print.s
   Uses
      At line 1128 in file .\objects\print.s
      At line 686 in file C:\\Keil_v5\\ARM\\PACK\\ARM\\CMSIS\\5.0.1\\CMSIS\\Inc
lude\\cmsis_armcc.h

|.constdata__ZTI5Print| 00000000

Symbol: |.constdata__ZTI5Print|
   Definitions
      At line 1175 in file .\objects\print.s
   Uses
      None
Comment: |.constdata__ZTI5Print| unused
2 symbols



ARM Macro Assembler    Page 1 Alphabetic symbol ordering
Relocatable symbols

_ZTS5Print 00000000

Symbol: _ZTS5Print
   Definitions
      At line 1183 in file .\objects\print.s
   Uses
      At line 1179 in file .\objects\print.s
      At line 687 in file C:\\Keil_v5\\ARM\\PACK\\ARM\\CMSIS\\5.0.1\\CMSIS\\Inc
lude\\cmsis_armcc.h

|.constdata__ZTS5Print| 00000000

Symbol: |.constdata__ZTS5Print|
   Definitions
      At line 1181 in file .\objects\print.s
   Uses
      None
Comment: |.constdata__ZTS5Print| unused
2 symbols



ARM Macro Assembler    Page 1 Alphabetic symbol ordering
Relocatable symbols

__asm___9_Print_cpp_dbd866df___Z7__REV16j 00000000

Symbol: __asm___9_Print_cpp_dbd866df___Z7__REV16j
   Definitions
      At line 447 in file C:\\Keil_v5\\ARM\\PACK\\ARM\\CMSIS\\5.0.1\\CMSIS\\Inc
lude\\cmsis_armcc.h
   Uses
      At line 3 in file cores\\Print.cpp
Comment: __asm___9_Print_cpp_dbd866df___Z7__REV16j used once
|.rev16_text| 00000000

Symbol: |.rev16_text|
   Definitions
      At line 1 in file cores\\Print.cpp
   Uses
      None
Comment: |.rev16_text| unused
2 symbols



ARM Macro Assembler    Page 1 Alphabetic symbol ordering
Relocatable symbols

__asm___9_Print_cpp_dbd866df___Z7__REVSHi 00000000

Symbol: __asm___9_Print_cpp_dbd866df___Z7__REVSHi
   Definitions
      At line 462 in file C:\\Keil_v5\\ARM\\PACK\\ARM\\CMSIS\\5.0.1\\CMSIS\\Inc
lude\\cmsis_armcc.h
   Uses
      At line 454 in file C:\\Keil_v5\\ARM\\PACK\\ARM\\CMSIS\\5.0.1\\CMSIS\\Inc
lude\\cmsis_armcc.h
Comment: __asm___9_Print_cpp_dbd866df___Z7__REVSHi used once
|.revsh_text| 00000000

Symbol: |.revsh_text|
   Definitions
      At line 452 in file C:\\Keil_v5\\ARM\\PACK\\ARM\\CMSIS\\5.0.1\\CMSIS\\Inc
lude\\cmsis_armcc.h
   Uses
      None
Comment: |.revsh_text| unused
2 symbols



ARM Macro Assembler    Page 1 Alphabetic symbol ordering
Relocatable symbols

__asm___9_Print_cpp_dbd866df___Z5__RRXj 00000000

Symbol: __asm___9_Print_cpp_dbd866df___Z5__RRXj
   Definitions
      At line 649 in file C:\\Keil_v5\\ARM\\PACK\\ARM\\CMSIS\\5.0.1\\CMSIS\\Inc
lude\\cmsis_armcc.h
   Uses
      At line 469 in file C:\\Keil_v5\\ARM\\PACK\\ARM\\CMSIS\\5.0.1\\CMSIS\\Inc
lude\\cmsis_armcc.h
Comment: __asm___9_Print_cpp_dbd866df___Z5__RRXj used once
|.rrx_text| 00000000

Symbol: |.rrx_text|
   Definitions
      At line 467 in file C:\\Keil_v5\\ARM\\PACK\\ARM\\CMSIS\\5.0.1\\CMSIS\\Inc
lude\\cmsis_armcc.h
   Uses
      None
Comment: |.rrx_text| unused
2 symbols



ARM Macro Assembler    Page 1 Alphabetic symbol ordering
External symbols

_ZTI9Printable 00000000

Symbol: _ZTI9Printable
   Definitions
      At line 707 in file C:\\Keil_v5\\ARM\\PACK\\ARM\\CMSIS\\5.0.1\\CMSIS\\Inc
lude\\cmsis_armcc.h
   Uses
      At line 1060 in file .\objects\print.s
Comment: _ZTI9Printable used once
_ZTVN10__cxxabiv117__class_type_infoE 00000000

Symbol: _ZTVN10__cxxabiv117__class_type_infoE
   Definitions
      At line 706 in file C:\\Keil_v5\\ARM\\PACK\\ARM\\CMSIS\\5.0.1\\CMSIS\\Inc
lude\\cmsis_armcc.h
   Uses
      At line 1178 in file .\objects\print.s
Comment: _ZTVN10__cxxabiv117__class_type_infoE used once
__aeabi_cdcmple 00000000

Symbol: __aeabi_cdcmple
   Definitions
      At line 698 in file C:\\Keil_v5\\ARM\\PACK\\ARM\\CMSIS\\5.0.1\\CMSIS\\Inc
lude\\cmsis_armcc.h
   Uses
      At line 220 in file .\objects\print.s
      At line 230 in file .\objects\print.s

__aeabi_cdrcmple 00000000

Symbol: __aeabi_cdrcmple
   Definitions
      At line 697 in file C:\\Keil_v5\\ARM\\PACK\\ARM\\CMSIS\\5.0.1\\CMSIS\\Inc
lude\\cmsis_armcc.h
   Uses
      At line 210 in file .\objects\print.s
Comment: __aeabi_cdrcmple used once
__aeabi_d2uiz 00000000

Symbol: __aeabi_d2uiz
   Definitions
      At line 702 in file C:\\Keil_v5\\ARM\\PACK\\ARM\\CMSIS\\5.0.1\\CMSIS\\Inc
lude\\cmsis_armcc.h
   Uses
      At line 259 in file .\objects\print.s
      At line 287 in file .\objects\print.s

__aeabi_dadd 00000000

Symbol: __aeabi_dadd
   Definitions
      At line 701 in file C:\\Keil_v5\\ARM\\PACK\\ARM\\CMSIS\\5.0.1\\CMSIS\\Inc
lude\\cmsis_armcc.h
   Uses
      At line 256 in file .\objects\print.s
Comment: __aeabi_dadd used once
__aeabi_ddiv 00000000

Symbol: __aeabi_ddiv



ARM Macro Assembler    Page 2 Alphabetic symbol ordering
External symbols

   Definitions
      At line 700 in file C:\\Keil_v5\\ARM\\PACK\\ARM\\CMSIS\\5.0.1\\CMSIS\\Inc
lude\\cmsis_armcc.h
   Uses
      At line 247 in file .\objects\print.s
Comment: __aeabi_ddiv used once
__aeabi_dmul 00000000

Symbol: __aeabi_dmul
   Definitions
      At line 705 in file C:\\Keil_v5\\ARM\\PACK\\ARM\\CMSIS\\5.0.1\\CMSIS\\Inc
lude\\cmsis_armcc.h
   Uses
      At line 284 in file .\objects\print.s
Comment: __aeabi_dmul used once
__aeabi_dneg 00000000

Symbol: __aeabi_dneg
   Definitions
      At line 699 in file C:\\Keil_v5\\ARM\\PACK\\ARM\\CMSIS\\5.0.1\\CMSIS\\Inc
lude\\cmsis_armcc.h
   Uses
      At line 237 in file .\objects\print.s
Comment: __aeabi_dneg used once
__aeabi_drsub 00000000

Symbol: __aeabi_drsub
   Definitions
      At line 704 in file C:\\Keil_v5\\ARM\\PACK\\ARM\\CMSIS\\5.0.1\\CMSIS\\Inc
lude\\cmsis_armcc.h
   Uses
      At line 265 in file .\objects\print.s
      At line 298 in file .\objects\print.s

__aeabi_ui2d 00000000

Symbol: __aeabi_ui2d
   Definitions
      At line 703 in file C:\\Keil_v5\\ARM\\PACK\\ARM\\CMSIS\\5.0.1\\CMSIS\\Inc
lude\\cmsis_armcc.h
   Uses
      At line 262 in file .\objects\print.s
      At line 295 in file .\objects\print.s

__cxa_pure_virtual 00000000

Symbol: __cxa_pure_virtual
   Definitions
      At line 695 in file C:\\Keil_v5\\ARM\\PACK\\ARM\\CMSIS\\5.0.1\\CMSIS\\Inc
lude\\cmsis_armcc.h
   Uses
      At line 1129 in file .\objects\print.s
Comment: __cxa_pure_virtual used once
strlen 00000000

Symbol: strlen
   Definitions
      At line 696 in file C:\\Keil_v5\\ARM\\PACK\\ARM\\CMSIS\\5.0.1\\CMSIS\\Inc
lude\\cmsis_armcc.h



ARM Macro Assembler    Page 3 Alphabetic symbol ordering
External symbols

   Uses
      At line 1144 in file .\objects\print.s
Comment: strlen used once
|$weak$_ZTI5Print| 00000000

Symbol: |$weak$_ZTI5Print|
   Definitions
      At line 693 in file C:\\Keil_v5\\ARM\\PACK\\ARM\\CMSIS\\5.0.1\\CMSIS\\Inc
lude\\cmsis_armcc.h
   Uses
      At line 1048 in file .\objects\print.s
      At line 1072 in file .\objects\print.s
      At line 1084 in file .\objects\print.s
      At line 1096 in file .\objects\print.s
      At line 1108 in file .\objects\print.s
      At line 1119 in file .\objects\print.s
      At line 1169 in file .\objects\print.s

|$weak$_ZTV5Print| 00000000

Symbol: |$weak$_ZTV5Print|
   Definitions
      At line 691 in file C:\\Keil_v5\\ARM\\PACK\\ARM\\CMSIS\\5.0.1\\CMSIS\\Inc
lude\\cmsis_armcc.h
   Uses
      At line 1116 in file .\objects\print.s
Comment: |$weak$_ZTV5Print| used once
|Lib$$Request$$armlib| 00000000

Symbol: |Lib$$Request$$armlib|
   Definitions
      At line 689 in file C:\\Keil_v5\\ARM\\PACK\\ARM\\CMSIS\\5.0.1\\CMSIS\\Inc
lude\\cmsis_armcc.h
   Uses
      None
Comment: |Lib$$Request$$armlib| unused
|Lib$$Request$$cpplib| 00000000

Symbol: |Lib$$Request$$cpplib|
   Definitions
      At line 690 in file C:\\Keil_v5\\ARM\\PACK\\ARM\\CMSIS\\5.0.1\\CMSIS\\Inc
lude\\cmsis_armcc.h
   Uses
      None
Comment: |Lib$$Request$$cpplib| unused
17 symbols
499 symbols in table
