


ARM Macro Assembler    Page 1 


    1 00000000         ; generated by Component: ARM Compiler 5.06 update 5 (bu
                       ild 528) Tool: ArmCC [4d3621]
    2 00000000         ; commandline ArmCC [--cpp --split_sections --debug -c -
                       S -o.\objects\stream.s --depend=.\objects\stream.d --cpu
                       =Cortex-M4.fp --apcs=interwork -O0 --diag_suppress=9931 
                       -I.\cores -I.\RTE\Device\XMC4700-F144x2048 -I.\RTE\_Targ
                       et_1 -IC:\Keil_v5\ARM\PACK\ARM\CMSIS\5.0.1\CMSIS\Include
                        -IC:\Keil_v5\ARM\PACK\Infineon\XMC4000_DFP\2.9.1\Device
                       \XMC4700_series\Include -IC:\Keil_v5\ARM\PACK\Infineon\X
                       MC4000_DFP\2.9.1\Device\XMClib\inc -IC:\Keil_v5\ARM\PACK
                       \Infineon\XMC4000_DFP\2.9.1\RTE_Driver -D__UVISION_VERSI
                       ON=524 -D_RTE_ -DXMC4700_F144x2048 --omf_browse=.\object
                       s\stream.crf cores\Stream.cpp]
    3 00000000                 THUMB
    4 00000000                 REQUIRE8
    5 00000000                 PRESERVE8
    6 00000000         
    7 00000000                 AREA             ||i.NOPS_FOR_USEC||, CODE, READ
ONLY, ALIGN=1
    8 00000000         
    9 00000000         NOPS_FOR_USEC
                               PROC
   10 00000000 BF00            NOP
   11 00000002 BF00            NOP
   12 00000004 BF00            NOP
   13 00000006 BF00            NOP
   14 00000008 BF00            NOP
   15 0000000A BF00            NOP
   16 0000000C BF00            NOP
   17 0000000E BF00            NOP
   18 00000010 BF00            NOP
   19 00000012 BF00            NOP
   20 00000014 BF00            NOP
   21 00000016 BF00            NOP
   22 00000018 BF00            NOP
   23 0000001A BF00            NOP
   24 0000001C BF00            NOP
   25 0000001E BF00            NOP
   26 00000020 BF00            NOP
   27 00000022 BF00            NOP
   28 00000024 BF00            NOP
   29 00000026 BF00            NOP
   30 00000028 BF00            NOP
   31 0000002A BF00            NOP
   32 0000002C BF00            NOP
   33 0000002E BF00            NOP
   34 00000030 BF00            NOP
   35 00000032 BF00            NOP
   36 00000034 BF00            NOP
   37 00000036 BF00            NOP
   38 00000038 BF00            NOP
   39 0000003A BF00            NOP
   40 0000003C BF00            NOP
   41 0000003E BF00            NOP
   42 00000040 BF00            NOP
   43 00000042 BF00            NOP
   44 00000044 BF00            NOP
   45 00000046 BF00            NOP
   46 00000048 BF00            NOP



ARM Macro Assembler    Page 2 


   47 0000004A BF00            NOP
   48 0000004C BF00            NOP
   49 0000004E BF00            NOP
   50 00000050 BF00            NOP
   51 00000052 BF00            NOP
   52 00000054 BF00            NOP
   53 00000056 BF00            NOP
   54 00000058 BF00            NOP
   55 0000005A BF00            NOP
   56 0000005C BF00            NOP
   57 0000005E BF00            NOP
   58 00000060 BF00            NOP
   59 00000062 BF00            NOP
   60 00000064 BF00            NOP
   61 00000066 BF00            NOP
   62 00000068 BF00            NOP
   63 0000006A BF00            NOP
   64 0000006C BF00            NOP
   65 0000006E BF00            NOP
   66 00000070 BF00            NOP
   67 00000072 BF00            NOP
   68 00000074 BF00            NOP
   69 00000076 BF00            NOP
   70 00000078 BF00            NOP
   71 0000007A BF00            NOP
   72 0000007C BF00            NOP
   73 0000007E BF00            NOP
   74 00000080 BF00            NOP
   75 00000082 BF00            NOP
   76 00000084 BF00            NOP
   77 00000086 BF00            NOP
   78 00000088 BF00            NOP
   79 0000008A BF00            NOP
   80 0000008C BF00            NOP
   81 0000008E BF00            NOP
   82 00000090 BF00            NOP
   83 00000092 BF00            NOP
   84 00000094 BF00            NOP
   85 00000096 BF00            NOP
   86 00000098 BF00            NOP
   87 0000009A BF00            NOP
   88 0000009C BF00            NOP
   89 0000009E BF00            NOP
   90 000000A0 BF00            NOP
   91 000000A2 BF00            NOP
   92 000000A4 BF00            NOP
   93 000000A6 BF00            NOP
   94 000000A8 BF00            NOP
   95 000000AA BF00            NOP
   96 000000AC BF00            NOP
   97 000000AE BF00            NOP
   98 000000B0 BF00            NOP
   99 000000B2 BF00            NOP
  100 000000B4 BF00            NOP
  101 000000B6 BF00            NOP
  102 000000B8 BF00            NOP
  103 000000BA BF00            NOP
  104 000000BC BF00            NOP
  105 000000BE BF00            NOP



ARM Macro Assembler    Page 3 


  106 000000C0 BF00            NOP
  107 000000C2 BF00            NOP
  108 000000C4 BF00            NOP
  109 000000C6 BF00            NOP
  110 000000C8 BF00            NOP
  111 000000CA BF00            NOP
  112 000000CC BF00            NOP
  113 000000CE BF00            NOP
  114 000000D0 BF00            NOP
  115 000000D2 BF00            NOP
  116 000000D4 BF00            NOP
  117 000000D6 BF00            NOP
  118 000000D8 BF00            NOP
  119 000000DA BF00            NOP
  120 000000DC BF00            NOP
  121 000000DE BF00            NOP
  122 000000E0 BF00            NOP
  123 000000E2 BF00            NOP
  124 000000E4 BF00            NOP
  125 000000E6 BF00            NOP
  126 000000E8 BF00            NOP
  127 000000EA BF00            NOP
  128 000000EC BF00            NOP
  129 000000EE BF00            NOP
  130 000000F0 BF00            NOP
  131 000000F2 BF00            NOP
  132 000000F4 BF00            NOP
  133 000000F6 BF00            NOP
  134 000000F8 BF00            NOP
  135 000000FA BF00            NOP
  136 000000FC BF00            NOP
  137 000000FE BF00            NOP
  138 00000100 BF00            NOP
  139 00000102 BF00            NOP
  140 00000104 BF00            NOP
  141 00000106 BF00            NOP
  142 00000108 BF00            NOP
  143 0000010A BF00            NOP
  144 0000010C BF00            NOP
  145 0000010E BF00            NOP
  146 00000110 BF00            NOP
  147 00000112 BF00            NOP
  148 00000114 BF00            NOP
  149 00000116 BF00            NOP
  150 00000118 BF00            NOP
  151 0000011A BF00            NOP
  152 0000011C 4770            BX               lr
  153 0000011E                 ENDP
  154 0000011E         
  155 0000011E         
  156 0000011E                 AREA             ||i._ZN6Stream10parseFloatE13Lo
okaheadModec||, CODE, READONLY, ALIGN=2
  157 00000000         
  158 00000000         _ZN6Stream10parseFloatE13LookaheadModec
                               PROC
  159 00000000 E92D 47F0       PUSH             {r4-r10,lr}
  160 00000004 ED2D 8B06       VPUSH            {d8-d10}
  161 00000008 4680            MOV              r8,r0
  162 0000000A 468A            MOV              r10,r1



ARM Macro Assembler    Page 4 


  163 0000000C 4616            MOV              r6,r2
  164 0000000E F04F 0900       MOV              r9,#0
  165 00000012 2700            MOVS             r7,#0
  166 00000014 2500            MOVS             r5,#0
  167 00000016 EEB7 0A00       VMOV.F32         s0,#1.00000000
  168 0000001A EEB0 8A40       VMOV.F32         s16,s0
  169 0000001E 2201            MOVS             r2,#1
  170 00000020 4651            MOV              r1,r10
  171 00000022 4640            MOV              r0,r8
  172 00000024 F7FF FFFE       BL               _ZN6Stream13peekNextDigitE13Loo
kaheadModeb
  173 00000028 4604            MOV              r4,r0
  174 0000002A 2C00            CMP              r4,#0
  175 0000002C DA05            BGE              |L1.58|
  176 0000002E ED9F 0A29       VLDR             s0,|L1.212|
  177 00000032         |L1.50|
  178 00000032 ECBD 8B06       VPOP             {d8-d10}
  179 00000036 E8BD 87F0       POP              {r4-r10,pc}
  180 0000003A         |L1.58|
  181 0000003A BF00            NOP
  182 0000003C         |L1.60|
  183 0000003C 42B4            CMP              r4,r6
  184 0000003E D025            BEQ              |L1.140|
  185 00000040 2C2D            CMP              r4,#0x2d
  186 00000042 D102            BNE              |L1.74|
  187 00000044 F04F 0901       MOV              r9,#1
  188 00000048 E020            B                |L1.140|
  189 0000004A         |L1.74|
  190 0000004A 2C2E            CMP              r4,#0x2e
  191 0000004C D101            BNE              |L1.82|
  192 0000004E 2701            MOVS             r7,#1
  193 00000050 E01C            B                |L1.140|
  194 00000052         |L1.82|
  195 00000052 2C30            CMP              r4,#0x30
  196 00000054 DB1A            BLT              |L1.140|
  197 00000056 2C39            CMP              r4,#0x39
  198 00000058 DC18            BGT              |L1.140|
  199 0000005A EB05 0085       ADD              r0,r5,r5,LSL #2
  200 0000005E EB04 0040       ADD              r0,r4,r0,LSL #1
  201 00000062 F1A0 0530       SUB              r5,r0,#0x30
  202 00000066 B18F            CBZ              r7,|L1.140|
  203 00000068 EE18 0A10       VMOV             r0,s16
  204 0000006C F7FF FFFE       BL               __aeabi_f2d
  205 00000070 EC41 0B1A       VMOV             d10,r0,r1
  206 00000074 ED9F 0B18       VLDR             d0,|L1.216|
  207 00000078 EC53 2B10       VMOV             r2,r3,d0
  208 0000007C F7FF FFFE       BL               __aeabi_dmul
  209 00000080 EC41 0B19       VMOV             d9,r0,r1
  210 00000084 F7FF FFFE       BL               __aeabi_d2f
  211 00000088 EE08 0A10       VMOV             s16,r0
  212 0000008C         |L1.140|
  213 0000008C F8D8 0000       LDR              r0,[r8,#0]
  214 00000090 68C1            LDR              r1,[r0,#0xc]
  215 00000092 4640            MOV              r0,r8
  216 00000094 4788            BLX              r1
  217 00000096 4640            MOV              r0,r8
  218 00000098 F7FF FFFE       BL               _ZN6Stream9timedPeekEv
  219 0000009C 4604            MOV              r4,r0
  220 0000009E 2C30            CMP              r4,#0x30



ARM Macro Assembler    Page 5 


  221 000000A0 DB01            BLT              |L1.166|
  222 000000A2 2C39            CMP              r4,#0x39
  223 000000A4 DDCA            BLE              |L1.60|
  224 000000A6         |L1.166|
  225 000000A6 2C2E            CMP              r4,#0x2e
  226 000000A8 D101            BNE              |L1.174|
  227 000000AA 2F00            CMP              r7,#0
  228 000000AC D0C6            BEQ              |L1.60|
  229 000000AE         |L1.174|
  230 000000AE 42B4            CMP              r4,r6
  231 000000B0 D0C4            BEQ              |L1.60|
  232 000000B2 F1B9 0F00       CMP              r9,#0
  233 000000B6 D000            BEQ              |L1.186|
  234 000000B8 426D            RSBS             r5,r5,#0
  235 000000BA         |L1.186|
  236 000000BA B137            CBZ              r7,|L1.202|
  237 000000BC EE00 5A10       VMOV             s0,r5
  238 000000C0 EEB8 0AC0       VCVT.F32.S32     s0,s0
  239 000000C4 EE20 0A08       VMUL.F32         s0,s0,s16
  240 000000C8 E7B3            B                |L1.50|
  241 000000CA         |L1.202|
  242 000000CA EE00 5A10       VMOV             s0,r5
  243 000000CE EEB8 0AC0       VCVT.F32.S32     s0,s0
  244 000000D2 E7AE            B                |L1.50|
  245 000000D4                 ENDP
  246 000000D4         
  247 000000D4         |L1.212|
  248 000000D4 00000000        DCFS             0x00000000  ; 0
  249 000000D8         |L1.216|
  250 000000D8 9999999A 
              3FB99999         DCFD             0x3fb999999999999a ; 0.10000000
                                                            000000001
  251 000000E0         
  252 000000E0                 AREA             ||i._ZN6Stream10readStringEv||,
 CODE, READONLY, ALIGN=2
  253 00000000         
  254 00000000         _ZN6Stream10readStringEv
                               PROC
  255 00000000 B570            PUSH             {r4-r6,lr}
  256 00000002 4606            MOV              r6,r0
  257 00000004 460C            MOV              r4,r1
  258 00000006 A10A            ADR              r1,|L2.48|
  259 00000008 4630            MOV              r0,r6
  260 0000000A F7FF FFFE       BL               _ZN6StringC1EPKc
  261 0000000E 4606            MOV              r6,r0
  262 00000010 4620            MOV              r0,r4
  263 00000012 F7FF FFFE       BL               _ZN6Stream9timedReadEv
  264 00000016 4605            MOV              r5,r0
  265 00000018 E007            B                |L2.42|
  266 0000001A         |L2.26|
  267 0000001A B2E9            UXTB             r1,r5
  268 0000001C 4630            MOV              r0,r6
  269 0000001E F7FF FFFE       BL               _ZN6StringpLEc
  270 00000022 4620            MOV              r0,r4
  271 00000024 F7FF FFFE       BL               _ZN6Stream9timedReadEv
  272 00000028 4605            MOV              r5,r0
  273 0000002A         |L2.42|
  274 0000002A 2D00            CMP              r5,#0
  275 0000002C DAF5            BGE              |L2.26|



ARM Macro Assembler    Page 6 


  276 0000002E BD70            POP              {r4-r6,pc}
  277 00000030                 ENDP
  278 00000030         
  279 00000030         |L2.48|
  280 00000030 00              DCB              0
  281 00000031 00              DCB              0
  282 00000032 00              DCB              0
  283 00000033 00              DCB              0
  284 00000034         
  285 00000034                 AREA             ||i._ZN6Stream10setTimeoutEm||,
 CODE, READONLY, ALIGN=1
  286 00000000         
  287 00000000         _ZN6Stream10setTimeoutEm
                               PROC
  288 00000000 6081            STR              r1,[r0,#8]
  289 00000002 4770            BX               lr
  290 00000004                 ENDP
  291 00000004         
  292 00000004         
  293 00000004                 AREA             ||i._ZN6Stream13peekNextDigitE1
3LookaheadModeb||, CODE, READONLY, ALIGN=1
  294 00000000         
  295 00000000         _ZN6Stream13peekNextDigitE13LookaheadModeb
                               PROC
  296 00000000 E92D 41F0       PUSH             {r4-r8,lr}
  297 00000004 4605            MOV              r5,r0
  298 00000006 460E            MOV              r6,r1
  299 00000008 4617            MOV              r7,r2
  300 0000000A E031            B                |L4.112|
  301 0000000C         |L4.12|
  302 0000000C 4628            MOV              r0,r5
  303 0000000E F7FF FFFE       BL               _ZN6Stream9timedPeekEv
  304 00000012 4604            MOV              r4,r0
  305 00000014 2C00            CMP              r4,#0
  306 00000016 DB08            BLT              |L4.42|
  307 00000018 2C2D            CMP              r4,#0x2d
  308 0000001A D006            BEQ              |L4.42|
  309 0000001C 2C30            CMP              r4,#0x30
  310 0000001E DB01            BLT              |L4.36|
  311 00000020 2C39            CMP              r4,#0x39
  312 00000022 DD02            BLE              |L4.42|
  313 00000024         |L4.36|
  314 00000024 B127            CBZ              r7,|L4.48|
  315 00000026 2C2E            CMP              r4,#0x2e
  316 00000028 D102            BNE              |L4.48|
  317 0000002A         |L4.42|
  318 0000002A 4620            MOV              r0,r4
  319 0000002C         |L4.44|
  320 0000002C E8BD 81F0       POP              {r4-r8,pc}
  321 00000030         |L4.48|
  322 00000030 B1C6            CBZ              r6,|L4.100|
  323 00000032 2E01            CMP              r6,#1
  324 00000034 D002            BEQ              |L4.60|
  325 00000036 2E02            CMP              r6,#2
  326 00000038 D115            BNE              |L4.102|
  327 0000003A E002            B                |L4.66|
  328 0000003C         |L4.60|
  329 0000003C F04F 30FF       MOV              r0,#0xffffffff
  330 00000040 E7F4            B                |L4.44|



ARM Macro Assembler    Page 7 


  331 00000042         |L4.66|
  332 00000042 2C09            CMP              r4,#9
  333 00000044 D006            BEQ              |L4.84|
  334 00000046 2C0A            CMP              r4,#0xa
  335 00000048 D006            BEQ              |L4.88|
  336 0000004A 2C0D            CMP              r4,#0xd
  337 0000004C D003            BEQ              |L4.86|
  338 0000004E 2C20            CMP              r4,#0x20
  339 00000050 D103            BNE              |L4.90|
  340 00000052 BF00            NOP
  341 00000054         |L4.84|
  342 00000054 BF00            NOP
  343 00000056         |L4.86|
  344 00000056 BF00            NOP
  345 00000058         |L4.88|
  346 00000058 E002            B                |L4.96|
  347 0000005A         |L4.90|
  348 0000005A F04F 30FF       MOV              r0,#0xffffffff
  349 0000005E E7E5            B                |L4.44|
  350 00000060         |L4.96|
  351 00000060 BF00            NOP
  352 00000062 BF00            NOP
  353 00000064         |L4.100|
  354 00000064 BF00            NOP
  355 00000066         |L4.102|
  356 00000066 BF00            NOP
  357 00000068 6828            LDR              r0,[r5,#0]
  358 0000006A 68C1            LDR              r1,[r0,#0xc]
  359 0000006C 4628            MOV              r0,r5
  360 0000006E 4788            BLX              r1
  361 00000070         |L4.112|
  362 00000070 E7CC            B                |L4.12|
  363 00000072                 ENDP
  364 00000072         
  365 00000072         
  366 00000072                 AREA             ||i._ZN6Stream14readBytesUntilE
cPcj||, CODE, READONLY, ALIGN=1
  367 00000000         
  368 00000000         _ZN6Stream14readBytesUntilEcPcj
                               PROC
  369 00000000 E92D 47F0       PUSH             {r4-r10,lr}
  370 00000004 4681            MOV              r9,r0
  371 00000006 4688            MOV              r8,r1
  372 00000008 4615            MOV              r5,r2
  373 0000000A 461E            MOV              r6,r3
  374 0000000C B916            CBNZ             r6,|L5.20|
  375 0000000E 2000            MOVS             r0,#0
  376 00000010         |L5.16|
  377 00000010 E8BD 87F0       POP              {r4-r10,pc}
  378 00000014         |L5.20|
  379 00000014 2400            MOVS             r4,#0
  380 00000016 E00C            B                |L5.50|
  381 00000018         |L5.24|
  382 00000018 4648            MOV              r0,r9
  383 0000001A F7FF FFFE       BL               _ZN6Stream9timedReadEv
  384 0000001E 4607            MOV              r7,r0
  385 00000020 2F00            CMP              r7,#0
  386 00000022 DB01            BLT              |L5.40|
  387 00000024 4547            CMP              r7,r8



ARM Macro Assembler    Page 8 


  388 00000026 D100            BNE              |L5.42|
  389 00000028         |L5.40|
  390 00000028 E005            B                |L5.54|
  391 0000002A         |L5.42|
  392 0000002A F805 7B01       STRB             r7,[r5],#1
  393 0000002E 1C64            ADDS             r4,r4,#1
  394 00000030 BF00            NOP
  395 00000032         |L5.50|
  396 00000032 42B4            CMP              r4,r6
  397 00000034 D3F0            BCC              |L5.24|
  398 00000036         |L5.54|
  399 00000036 BF00            NOP
  400 00000038 4620            MOV              r0,r4
  401 0000003A E7E9            B                |L5.16|
  402 0000003C                 ENDP
  403 0000003C         
  404 0000003C         
  405 0000003C                 AREA             ||i._ZN6Stream15readStringUntil
Ec||, CODE, READONLY, ALIGN=2
  406 00000000         
  407 00000000         _ZN6Stream15readStringUntilEc
                               PROC
  408 00000000 E92D 41F0       PUSH             {r4-r8,lr}
  409 00000004 4607            MOV              r7,r0
  410 00000006 460D            MOV              r5,r1
  411 00000008 4616            MOV              r6,r2
  412 0000000A A10C            ADR              r1,|L6.60|
  413 0000000C 4638            MOV              r0,r7
  414 0000000E F7FF FFFE       BL               _ZN6StringC1EPKc
  415 00000012 4607            MOV              r7,r0
  416 00000014 4628            MOV              r0,r5
  417 00000016 F7FF FFFE       BL               _ZN6Stream9timedReadEv
  418 0000001A 4604            MOV              r4,r0
  419 0000001C E007            B                |L6.46|
  420 0000001E         |L6.30|
  421 0000001E B2E1            UXTB             r1,r4
  422 00000020 4638            MOV              r0,r7
  423 00000022 F7FF FFFE       BL               _ZN6StringpLEc
  424 00000026 4628            MOV              r0,r5
  425 00000028 F7FF FFFE       BL               _ZN6Stream9timedReadEv
  426 0000002C 4604            MOV              r4,r0
  427 0000002E         |L6.46|
  428 0000002E 2C00            CMP              r4,#0
  429 00000030 DB01            BLT              |L6.54|
  430 00000032 42B4            CMP              r4,r6
  431 00000034 D1F3            BNE              |L6.30|
  432 00000036         |L6.54|
  433 00000036 E8BD 81F0       POP              {r4-r8,pc}
  434 0000003A                 ENDP
  435 0000003A         
  436 0000003A 00 00           DCW              0x0000
  437 0000003C         |L6.60|
  438 0000003C 00              DCB              0
  439 0000003D 00              DCB              0
  440 0000003E 00              DCB              0
  441 0000003F 00              DCB              0
  442 00000040         
  443 00000040                 AREA             ||i._ZN6Stream4findEPc||, CODE,
 READONLY, ALIGN=1



ARM Macro Assembler    Page 9 


  444 00000000         
  445 00000000         _ZN6Stream4findEPc
                               PROC
  446 00000000 B5F8            PUSH             {r3-r7,lr}
  447 00000002 4605            MOV              r5,r0
  448 00000004 460C            MOV              r4,r1
  449 00000006 4620            MOV              r0,r4
  450 00000008 F7FF FFFE       BL               strlen
  451 0000000C 4606            MOV              r6,r0
  452 0000000E 2000            MOVS             r0,#0
  453 00000010 4603            MOV              r3,r0
  454 00000012 4632            MOV              r2,r6
  455 00000014 4621            MOV              r1,r4
  456 00000016 9000            STR              r0,[sp,#0]
  457 00000018 4628            MOV              r0,r5
  458 0000001A F7FF FFFE       BL               _ZN6Stream9findUntilEPcjS0_j
  459 0000001E BDF8            POP              {r3-r7,pc}
  460 00000020                 ENDP
  461 00000020         
  462 00000020         
  463 00000020                 AREA             ||i._ZN6Stream4findEPcj||, CODE
, READONLY, ALIGN=1
  464 00000000         
  465 00000000         _ZN6Stream4findEPcj
                               PROC
  466 00000000 B5F8            PUSH             {r3-r7,lr}
  467 00000002 4604            MOV              r4,r0
  468 00000004 460D            MOV              r5,r1
  469 00000006 4616            MOV              r6,r2
  470 00000008 2000            MOVS             r0,#0
  471 0000000A 4603            MOV              r3,r0
  472 0000000C 4632            MOV              r2,r6
  473 0000000E 4629            MOV              r1,r5
  474 00000010 9000            STR              r0,[sp,#0]
  475 00000012 4620            MOV              r0,r4
  476 00000014 F7FF FFFE       BL               _ZN6Stream9findUntilEPcjS0_j
  477 00000018 BDF8            POP              {r3-r7,pc}
  478 0000001A                 ENDP
  479 0000001A         
  480 0000001A         
  481 0000001A                 AREA             ||i._ZN6Stream8parseIntE13Looka
headModec||, CODE, READONLY, ALIGN=1
  482 00000000         
  483 00000000         _ZN6Stream8parseIntE13LookaheadModec
                               PROC
  484 00000000 E92D 47F0       PUSH             {r4-r10,lr}
  485 00000004 4607            MOV              r7,r0
  486 00000006 4688            MOV              r8,r1
  487 00000008 4615            MOV              r5,r2
  488 0000000A F04F 0900       MOV              r9,#0
  489 0000000E 2600            MOVS             r6,#0
  490 00000010 2200            MOVS             r2,#0
  491 00000012 4641            MOV              r1,r8
  492 00000014 4638            MOV              r0,r7
  493 00000016 F7FF FFFE       BL               _ZN6Stream13peekNextDigitE13Loo
kaheadModeb
  494 0000001A 4604            MOV              r4,r0
  495 0000001C 2C00            CMP              r4,#0
  496 0000001E DA02            BGE              |L9.38|



ARM Macro Assembler    Page 10 


  497 00000020 2000            MOVS             r0,#0
  498 00000022         |L9.34|
  499 00000022 E8BD 87F0       POP              {r4-r10,pc}
  500 00000026         |L9.38|
  501 00000026 BF00            NOP
  502 00000028         |L9.40|
  503 00000028 42AC            CMP              r4,r5
  504 0000002A D00E            BEQ              |L9.74|
  505 0000002C 2C2D            CMP              r4,#0x2d
  506 0000002E D102            BNE              |L9.54|
  507 00000030 F04F 0901       MOV              r9,#1
  508 00000034 E009            B                |L9.74|
  509 00000036         |L9.54|
  510 00000036 2C30            CMP              r4,#0x30
  511 00000038 DB07            BLT              |L9.74|
  512 0000003A 2C39            CMP              r4,#0x39
  513 0000003C DC05            BGT              |L9.74|
  514 0000003E EB06 0086       ADD              r0,r6,r6,LSL #2
  515 00000042 EB04 0040       ADD              r0,r4,r0,LSL #1
  516 00000046 F1A0 0630       SUB              r6,r0,#0x30
  517 0000004A         |L9.74|
  518 0000004A 6838            LDR              r0,[r7,#0]
  519 0000004C 68C1            LDR              r1,[r0,#0xc]
  520 0000004E 4638            MOV              r0,r7
  521 00000050 4788            BLX              r1
  522 00000052 4638            MOV              r0,r7
  523 00000054 F7FF FFFE       BL               _ZN6Stream9timedPeekEv
  524 00000058 4604            MOV              r4,r0
  525 0000005A 2C30            CMP              r4,#0x30
  526 0000005C DB01            BLT              |L9.98|
  527 0000005E 2C39            CMP              r4,#0x39
  528 00000060 DDE2            BLE              |L9.40|
  529 00000062         |L9.98|
  530 00000062 42AC            CMP              r4,r5
  531 00000064 D0E0            BEQ              |L9.40|
  532 00000066 F1B9 0F00       CMP              r9,#0
  533 0000006A D000            BEQ              |L9.110|
  534 0000006C 4276            RSBS             r6,r6,#0
  535 0000006E         |L9.110|
  536 0000006E 4630            MOV              r0,r6
  537 00000070 E7D7            B                |L9.34|
  538 00000072                 ENDP
  539 00000072         
  540 00000072         
  541 00000072                 AREA             ||i._ZN6Stream9findMultiEPNS_11
MultiTargetEi||, CODE, READONLY, ALIGN=1
  542 00000000         
  543 00000000         _ZN6Stream9findMultiEPNS_11MultiTargetEi
                               PROC
  544 00000000 E92D 41F0       PUSH             {r4-r8,lr}
  545 00000004 4607            MOV              r7,r0
  546 00000006 460C            MOV              r4,r1
  547 00000008 4615            MOV              r5,r2
  548 0000000A 4621            MOV              r1,r4
  549 0000000C E008            B                |L10.32|
  550 0000000E         |L10.14|
  551 0000000E 6848            LDR              r0,[r1,#4]
  552 00000010 B928            CBNZ             r0,|L10.30|
  553 00000012 1B08            SUBS             r0,r1,r4



ARM Macro Assembler    Page 11 


  554 00000014 220C            MOVS             r2,#0xc
  555 00000016 FB90 F0F2       SDIV             r0,r0,r2
  556 0000001A         |L10.26|
  557 0000001A E8BD 81F0       POP              {r4-r8,pc}
  558 0000001E         |L10.30|
  559 0000001E 310C            ADDS             r1,r1,#0xc
  560 00000020         |L10.32|
  561 00000020 EB05 0045       ADD              r0,r5,r5,LSL #1
  562 00000024 EB04 0080       ADD              r0,r4,r0,LSL #2
  563 00000028 4288            CMP              r0,r1
  564 0000002A D8F0            BHI              |L10.14|
  565 0000002C E06D            B                |L10.266|
  566 0000002E         |L10.46|
  567 0000002E 4638            MOV              r0,r7
  568 00000030 F7FF FFFE       BL               _ZN6Stream9timedReadEv
  569 00000034 4606            MOV              r6,r0
  570 00000036 2E00            CMP              r6,#0
  571 00000038 DA02            BGE              |L10.64|
  572 0000003A F04F 30FF       MOV              r0,#0xffffffff
  573 0000003E E7EC            B                |L10.26|
  574 00000040         |L10.64|
  575 00000040 4621            MOV              r1,r4
  576 00000042 E05B            B                |L10.252|
  577 00000044         |L10.68|
  578 00000044 688B            LDR              r3,[r1,#8]
  579 00000046 6808            LDR              r0,[r1,#0]
  580 00000048 5CC0            LDRB             r0,[r0,r3]
  581 0000004A 42B0            CMP              r0,r6
  582 0000004C D10B            BNE              |L10.102|
  583 0000004E 6888            LDR              r0,[r1,#8]
  584 00000050 1C40            ADDS             r0,r0,#1
  585 00000052 6088            STR              r0,[r1,#8]
  586 00000054 684B            LDR              r3,[r1,#4]
  587 00000056 4298            CMP              r0,r3
  588 00000058 D104            BNE              |L10.100|
  589 0000005A 1B08            SUBS             r0,r1,r4
  590 0000005C 230C            MOVS             r3,#0xc
  591 0000005E FB90 F0F3       SDIV             r0,r0,r3
  592 00000062 E7DA            B                |L10.26|
  593 00000064         |L10.100|
  594 00000064 E049            B                |L10.250|
  595 00000066         |L10.102|
  596 00000066 6888            LDR              r0,[r1,#8]
  597 00000068 B900            CBNZ             r0,|L10.108|
  598 0000006A E046            B                |L10.250|
  599 0000006C         |L10.108|
  600 0000006C 688A            LDR              r2,[r1,#8]
  601 0000006E BF00            NOP
  602 00000070         |L10.112|
  603 00000070 F8D1 C008       LDR              r12,[r1,#8]
  604 00000074 F1AC 0C01       SUB              r12,r12,#1
  605 00000078 F8C1 C008       STR              r12,[r1,#8]
  606 0000007C F8D1 C000       LDR              r12,[r1,#0]
  607 00000080 F8D1 8008       LDR              r8,[r1,#8]
  608 00000084 F81C C008       LDRB             r12,[r12,r8]
  609 00000088 45B4            CMP              r12,r6
  610 0000008A D000            BEQ              |L10.142|
  611 0000008C E030            B                |L10.240|
  612 0000008E         |L10.142|



ARM Macro Assembler    Page 12 


  613 0000008E F8D1 C008       LDR              r12,[r1,#8]
  614 00000092 F1BC 0F00       CMP              r12,#0
  615 00000096 D106            BNE              |L10.166|
  616 00000098 F8D1 C008       LDR              r12,[r1,#8]
  617 0000009C F10C 0C01       ADD              r12,r12,#1
  618 000000A0 F8C1 C008       STR              r12,[r1,#8]
  619 000000A4 E027            B                |L10.246|
  620 000000A6         |L10.166|
  621 000000A6 F8D1 C008       LDR              r12,[r1,#8]
  622 000000AA EBA2 030C       SUB              r3,r2,r12
  623 000000AE 2000            MOVS             r0,#0
  624 000000B0 E00D            B                |L10.206|
  625 000000B2         |L10.178|
  626 000000B2 EB00 0803       ADD              r8,r0,r3
  627 000000B6 F8D1 C000       LDR              r12,[r1,#0]
  628 000000BA F81C C008       LDRB             r12,[r12,r8]
  629 000000BE F8D1 8000       LDR              r8,[r1,#0]
  630 000000C2 F818 8000       LDRB             r8,[r8,r0]
  631 000000C6 45C4            CMP              r12,r8
  632 000000C8 D000            BEQ              |L10.204|
  633 000000CA E004            B                |L10.214|
  634 000000CC         |L10.204|
  635 000000CC 1C40            ADDS             r0,r0,#1
  636 000000CE         |L10.206|
  637 000000CE F8D1 C008       LDR              r12,[r1,#8]
  638 000000D2 4584            CMP              r12,r0
  639 000000D4 D8ED            BHI              |L10.178|
  640 000000D6         |L10.214|
  641 000000D6 BF00            NOP
  642 000000D8 F8D1 C008       LDR              r12,[r1,#8]
  643 000000DC 4584            CMP              r12,r0
  644 000000DE D106            BNE              |L10.238|
  645 000000E0 F8D1 C008       LDR              r12,[r1,#8]
  646 000000E4 F10C 0C01       ADD              r12,r12,#1
  647 000000E8 F8C1 C008       STR              r12,[r1,#8]
  648 000000EC E003            B                |L10.246|
  649 000000EE         |L10.238|
  650 000000EE BF00            NOP
  651 000000F0         |L10.240|
  652 000000F0 6888            LDR              r0,[r1,#8]
  653 000000F2 2800            CMP              r0,#0
  654 000000F4 D1BC            BNE              |L10.112|
  655 000000F6         |L10.246|
  656 000000F6 BF00            NOP
  657 000000F8 BF00            NOP
  658 000000FA         |L10.250|
  659 000000FA 310C            ADDS             r1,r1,#0xc
  660 000000FC         |L10.252|
  661 000000FC EB05 0045       ADD              r0,r5,r5,LSL #1
  662 00000100 EB04 0080       ADD              r0,r4,r0,LSL #2
  663 00000104 4288            CMP              r0,r1
  664 00000106 D89D            BHI              |L10.68|
  665 00000108 BF00            NOP
  666 0000010A         |L10.266|
  667 0000010A E790            B                |L10.46|
  668 0000010C                 ENDP
  669 0000010C         
  670 0000010C         
  671 0000010C                 AREA             ||i._ZN6Stream9findUntilEPcS0_|



ARM Macro Assembler    Page 13 


|, CODE, READONLY, ALIGN=1
  672 00000000         
  673 00000000         _ZN6Stream9findUntilEPcS0_
                               PROC
  674 00000000 E92D 43F8       PUSH             {r3-r9,lr}
  675 00000004 4606            MOV              r6,r0
  676 00000006 460D            MOV              r5,r1
  677 00000008 4614            MOV              r4,r2
  678 0000000A 4620            MOV              r0,r4
  679 0000000C F7FF FFFE       BL               strlen
  680 00000010 4607            MOV              r7,r0
  681 00000012 4628            MOV              r0,r5
  682 00000014 F7FF FFFE       BL               strlen
  683 00000018 4680            MOV              r8,r0
  684 0000001A 4623            MOV              r3,r4
  685 0000001C 4642            MOV              r2,r8
  686 0000001E 4629            MOV              r1,r5
  687 00000020 4630            MOV              r0,r6
  688 00000022 9700            STR              r7,[sp,#0]
  689 00000024 F7FF FFFE       BL               _ZN6Stream9findUntilEPcjS0_j
  690 00000028 E8BD 83F8       POP              {r3-r9,pc}
  691 0000002C                 ENDP
  692 0000002C         
  693 0000002C         
  694 0000002C                 AREA             ||i._ZN6Stream9findUntilEPcjS0_
j||, CODE, READONLY, ALIGN=1
  695 00000000         
  696 00000000         _ZN6Stream9findUntilEPcjS0_j
                               PROC
  697 00000000 E92D 41F0       PUSH             {r4-r8,lr}
  698 00000004 B086            SUB              sp,sp,#0x18
  699 00000006 4607            MOV              r7,r0
  700 00000008 460C            MOV              r4,r1
  701 0000000A 4615            MOV              r5,r2
  702 0000000C 461E            MOV              r6,r3
  703 0000000E F8DD 8030       LDR              r8,[sp,#0x30]
  704 00000012 B98E            CBNZ             r6,|L12.56|
  705 00000014 2000            MOVS             r0,#0
  706 00000016 9003            STR              r0,[sp,#0xc]
  707 00000018 9004            STR              r0,[sp,#0x10]
  708 0000001A 9005            STR              r0,[sp,#0x14]
  709 0000001C 9403            STR              r4,[sp,#0xc]
  710 0000001E 9504            STR              r5,[sp,#0x10]
  711 00000020 2201            MOVS             r2,#1
  712 00000022 A903            ADD              r1,sp,#0xc
  713 00000024 4638            MOV              r0,r7
  714 00000026 F7FF FFFE       BL               _ZN6Stream9findMultiEPNS_11Mult
iTargetEi
  715 0000002A B918            CBNZ             r0,|L12.52|
  716 0000002C 2001            MOVS             r0,#1
  717 0000002E         |L12.46|
  718 0000002E B006            ADD              sp,sp,#0x18
  719 00000030 E8BD 81F0       POP              {r4-r8,pc}
  720 00000034         |L12.52|
  721 00000034 2000            MOVS             r0,#0
  722 00000036 E7FA            B                |L12.46|
  723 00000038         |L12.56|
  724 00000038 2118            MOVS             r1,#0x18
  725 0000003A 4668            MOV              r0,sp



ARM Macro Assembler    Page 14 


  726 0000003C F7FF FFFE       BL               __aeabi_memclr4
  727 00000040 9400            STR              r4,[sp,#0]
  728 00000042 9501            STR              r5,[sp,#4]
  729 00000044 9603            STR              r6,[sp,#0xc]
  730 00000046 F8CD 8010       STR              r8,[sp,#0x10]
  731 0000004A 2202            MOVS             r2,#2
  732 0000004C 4669            MOV              r1,sp
  733 0000004E 4638            MOV              r0,r7
  734 00000050 F7FF FFFE       BL               _ZN6Stream9findMultiEPNS_11Mult
iTargetEi
  735 00000054 B908            CBNZ             r0,|L12.90|
  736 00000056 2001            MOVS             r0,#1
  737 00000058 E7E9            B                |L12.46|
  738 0000005A         |L12.90|
  739 0000005A 2000            MOVS             r0,#0
  740 0000005C E7E7            B                |L12.46|
  741 0000005E                 ENDP
  742 0000005E         
  743 0000005E         
  744 0000005E                 AREA             ||i._ZN6Stream9readBytesEPcj||,
 CODE, READONLY, ALIGN=1
  745 00000000         
  746 00000000         _ZN6Stream9readBytesEPcj
                               PROC
  747 00000000 E92D 41F0       PUSH             {r4-r8,lr}
  748 00000004 4680            MOV              r8,r0
  749 00000006 460C            MOV              r4,r1
  750 00000008 4616            MOV              r6,r2
  751 0000000A 2500            MOVS             r5,#0
  752 0000000C E00A            B                |L13.36|
  753 0000000E         |L13.14|
  754 0000000E 4640            MOV              r0,r8
  755 00000010 F7FF FFFE       BL               _ZN6Stream9timedReadEv
  756 00000014 4607            MOV              r7,r0
  757 00000016 2F00            CMP              r7,#0
  758 00000018 DA00            BGE              |L13.28|
  759 0000001A E005            B                |L13.40|
  760 0000001C         |L13.28|
  761 0000001C F804 7B01       STRB             r7,[r4],#1
  762 00000020 1C6D            ADDS             r5,r5,#1
  763 00000022 BF00            NOP
  764 00000024         |L13.36|
  765 00000024 42B5            CMP              r5,r6
  766 00000026 D3F2            BCC              |L13.14|
  767 00000028         |L13.40|
  768 00000028 BF00            NOP
  769 0000002A 4628            MOV              r0,r5
  770 0000002C E8BD 81F0       POP              {r4-r8,pc}
  771 00000030                 ENDP
  772 00000030         
  773 00000030         
  774 00000030                 AREA             ||i._ZN6Stream9timedPeekEv||, C
ODE, READONLY, ALIGN=1
  775 00000000         
  776 00000000         _ZN6Stream9timedPeekEv
                               PROC
  777 00000000 B570            PUSH             {r4-r6,lr}
  778 00000002 4604            MOV              r4,r0
  779 00000004 F7FF FFFE       BL               millis



ARM Macro Assembler    Page 15 


  780 00000008 60E0            STR              r0,[r4,#0xc]
  781 0000000A BF00            NOP
  782 0000000C         |L14.12|
  783 0000000C 6820            LDR              r0,[r4,#0]
  784 0000000E 6901            LDR              r1,[r0,#0x10]
  785 00000010 4620            MOV              r0,r4
  786 00000012 4788            BLX              r1
  787 00000014 4605            MOV              r5,r0
  788 00000016 2D00            CMP              r5,#0
  789 00000018 DB01            BLT              |L14.30|
  790 0000001A 4628            MOV              r0,r5
  791 0000001C         |L14.28|
  792 0000001C BD70            POP              {r4-r6,pc}
  793 0000001E         |L14.30|
  794 0000001E F7FF FFFE       BL               millis
  795 00000022 68E1            LDR              r1,[r4,#0xc]
  796 00000024 1A40            SUBS             r0,r0,r1
  797 00000026 68A1            LDR              r1,[r4,#8]
  798 00000028 4288            CMP              r0,r1
  799 0000002A D3EF            BCC              |L14.12|
  800 0000002C F04F 30FF       MOV              r0,#0xffffffff
  801 00000030 E7F4            B                |L14.28|
  802 00000032                 ENDP
  803 00000032         
  804 00000032         
  805 00000032                 AREA             ||i._ZN6Stream9timedReadEv||, C
ODE, READONLY, ALIGN=1
  806 00000000         
  807 00000000         _ZN6Stream9timedReadEv
                               PROC
  808 00000000 B570            PUSH             {r4-r6,lr}
  809 00000002 4604            MOV              r4,r0
  810 00000004 F7FF FFFE       BL               millis
  811 00000008 60E0            STR              r0,[r4,#0xc]
  812 0000000A BF00            NOP
  813 0000000C         |L15.12|
  814 0000000C 6820            LDR              r0,[r4,#0]
  815 0000000E 68C1            LDR              r1,[r0,#0xc]
  816 00000010 4620            MOV              r0,r4
  817 00000012 4788            BLX              r1
  818 00000014 4605            MOV              r5,r0
  819 00000016 2D00            CMP              r5,#0
  820 00000018 DB01            BLT              |L15.30|
  821 0000001A 4628            MOV              r0,r5
  822 0000001C         |L15.28|
  823 0000001C BD70            POP              {r4-r6,pc}
  824 0000001E         |L15.30|
  825 0000001E F7FF FFFE       BL               millis
  826 00000022 68E1            LDR              r1,[r4,#0xc]
  827 00000024 1A40            SUBS             r0,r0,r1
  828 00000026 68A1            LDR              r1,[r4,#8]
  829 00000028 4288            CMP              r0,r1
  830 0000002A D3EF            BCC              |L15.12|
  831 0000002C F04F 30FF       MOV              r0,#0xffffffff
  832 00000030 E7F4            B                |L15.28|
  833 00000032                 ENDP
  834 00000032         
  835 00000032         
  836 00000032                 AREA             ||.ARM.exidx||, LINKORDER=||i.N



ARM Macro Assembler    Page 16 


OPS_FOR_USEC||, DATA, READONLY, SECTYPE={SHT_ARM_EXIDX}, ALIGN=2
  837 00000000         
  838 00000000 00000000        DCD              0x00000000
  839 00000004                 RELOC            42, ||i.NOPS_FOR_USEC||
  840 00000004 00000001        DCD              0x00000001
  841 00000008         
  842 00000008                 AREA             ||area_number.17||, LINKORDER=|
|i._ZN6Stream9timedReadEv||, DATA, READONLY, SECTYPE={SHT_ARM_EXIDX}, ALIGN=2
  843 00000000         
  844 00000000                 EXPORTAS         ||area_number.17||, ||.ARM.exid
x||
  845 00000000 00000000        DCD              0x00000000
  846 00000004                 RELOC            42, ||i._ZN6Stream9timedReadEv|
|
  847 00000004 00000001        DCD              0x00000001
  848 00000008         
  849 00000008                 AREA             ||area_number.18||, LINKORDER=|
|i._ZN6Stream9timedPeekEv||, DATA, READONLY, SECTYPE={SHT_ARM_EXIDX}, ALIGN=2
  850 00000000         
  851 00000000                 EXPORTAS         ||area_number.18||, ||.ARM.exid
x||
  852 00000000 00000000        DCD              0x00000000
  853 00000004                 RELOC            42, ||i._ZN6Stream9timedPeekEv|
|
  854 00000004 00000001        DCD              0x00000001
  855 00000008         
  856 00000008                 AREA             ||area_number.19||, LINKORDER=|
|i._ZN6Stream13peekNextDigitE13LookaheadModeb||, DATA, READONLY, SECTYPE={SHT_A
RM_EXIDX}, ALIGN=2
  857 00000000         
  858 00000000                 EXPORTAS         ||area_number.19||, ||.ARM.exid
x||
  859 00000000 00000000        DCD              0x00000000
  860 00000004                 RELOC            42, ||i._ZN6Stream13peekNextDig
itE13LookaheadModeb||
  861 00000004 00000001        DCD              0x00000001
  862 00000008         
  863 00000008                 AREA             ||area_number.20||, LINKORDER=|
|i._ZN6Stream10setTimeoutEm||, DATA, READONLY, SECTYPE={SHT_ARM_EXIDX}, ALIGN=2
  864 00000000         
  865 00000000                 EXPORTAS         ||area_number.20||, ||.ARM.exid
x||
  866 00000000 00000000        DCD              0x00000000
  867 00000004                 RELOC            42, ||i._ZN6Stream10setTimeoutE
m||
  868 00000004 00000001        DCD              0x00000001
  869 00000008         
  870 00000008                 AREA             ||area_number.21||, LINKORDER=|
|i._ZN6Stream9findMultiEPNS_11MultiTargetEi||, DATA, READONLY, SECTYPE={SHT_ARM
_EXIDX}, ALIGN=2
  871 00000000         
  872 00000000                 EXPORTAS         ||area_number.21||, ||.ARM.exid
x||
  873 00000000 00000000        DCD              0x00000000
  874 00000004                 RELOC            42, ||i._ZN6Stream9findMultiEPN
S_11MultiTargetEi||
  875 00000004 00000001        DCD              0x00000001
  876 00000008         
  877 00000008                 AREA             ||area_number.22||, LINKORDER=|



ARM Macro Assembler    Page 17 


|i._ZN6Stream9findUntilEPcjS0_j||, DATA, READONLY, SECTYPE={SHT_ARM_EXIDX}, ALI
GN=2
  878 00000000         
  879 00000000                 EXPORTAS         ||area_number.22||, ||.ARM.exid
x||
  880 00000000 00000000        DCD              0x00000000
  881 00000004                 RELOC            42, ||i._ZN6Stream9findUntilEPc
jS0_j||
  882 00000004 00000001        DCD              0x00000001
  883 00000008         
  884 00000008                 AREA             ||area_number.23||, LINKORDER=|
|i._ZN6Stream4findEPc||, DATA, READONLY, SECTYPE={SHT_ARM_EXIDX}, ALIGN=2
  885 00000000         
  886 00000000                 EXPORTAS         ||area_number.23||, ||.ARM.exid
x||
  887 00000000 00000000        DCD              0x00000000
  888 00000004                 RELOC            42, ||i._ZN6Stream4findEPc||
  889 00000004 00000001        DCD              0x00000001
  890 00000008         
  891 00000008                 AREA             ||area_number.24||, LINKORDER=|
|i._ZN6Stream4findEPcj||, DATA, READONLY, SECTYPE={SHT_ARM_EXIDX}, ALIGN=2
  892 00000000         
  893 00000000                 EXPORTAS         ||area_number.24||, ||.ARM.exid
x||
  894 00000000 00000000        DCD              0x00000000
  895 00000004                 RELOC            42, ||i._ZN6Stream4findEPcj||
  896 00000004 00000001        DCD              0x00000001
  897 00000008         
  898 00000008                 AREA             ||area_number.25||, LINKORDER=|
|i._ZN6Stream9findUntilEPcS0_||, DATA, READONLY, SECTYPE={SHT_ARM_EXIDX}, ALIGN
=2
  899 00000000         
  900 00000000                 EXPORTAS         ||area_number.25||, ||.ARM.exid
x||
  901 00000000 00000000        DCD              0x00000000
  902 00000004                 RELOC            42, ||i._ZN6Stream9findUntilEPc
S0_||
  903 00000004 00000001        DCD              0x00000001
  904 00000008         
  905 00000008                 AREA             ||area_number.26||, LINKORDER=|
|i._ZN6Stream8parseIntE13LookaheadModec||, DATA, READONLY, SECTYPE={SHT_ARM_EXI
DX}, ALIGN=2
  906 00000000         
  907 00000000                 EXPORTAS         ||area_number.26||, ||.ARM.exid
x||
  908 00000000 00000000        DCD              0x00000000
  909 00000004                 RELOC            42, ||i._ZN6Stream8parseIntE13L
ookaheadModec||
  910 00000004 00000001        DCD              0x00000001
  911 00000008         
  912 00000008                 AREA             ||area_number.27||, LINKORDER=|
|i._ZN6Stream10parseFloatE13LookaheadModec||, DATA, READONLY, SECTYPE={SHT_ARM_
EXIDX}, ALIGN=2
  913 00000000         
  914 00000000                 EXPORTAS         ||area_number.27||, ||.ARM.exid
x||
  915 00000000 00000000        DCD              0x00000000
  916 00000004                 RELOC            42, ||i._ZN6Stream10parseFloatE
13LookaheadModec||



ARM Macro Assembler    Page 18 


  917 00000004 00000001        DCD              0x00000001
  918 00000008         
  919 00000008                 AREA             ||area_number.28||, LINKORDER=|
|i._ZN6Stream9readBytesEPcj||, DATA, READONLY, SECTYPE={SHT_ARM_EXIDX}, ALIGN=2
  920 00000000         
  921 00000000                 EXPORTAS         ||area_number.28||, ||.ARM.exid
x||
  922 00000000 00000000        DCD              0x00000000
  923 00000004                 RELOC            42, ||i._ZN6Stream9readBytesEPc
j||
  924 00000004 00000001        DCD              0x00000001
  925 00000008         
  926 00000008                 AREA             ||area_number.29||, LINKORDER=|
|i._ZN6Stream14readBytesUntilEcPcj||, DATA, READONLY, SECTYPE={SHT_ARM_EXIDX}, 
ALIGN=2
  927 00000000         
  928 00000000                 EXPORTAS         ||area_number.29||, ||.ARM.exid
x||
  929 00000000 00000000        DCD              0x00000000
  930 00000004                 RELOC            42, ||i._ZN6Stream14readBytesUn
tilEcPcj||
  931 00000004 00000001        DCD              0x00000001
  932 00000008         
  933 00000008                 AREA             ||area_number.30||, LINKORDER=|
|i._ZN6Stream10readStringEv||, DATA, READONLY, SECTYPE={SHT_ARM_EXIDX}, ALIGN=2
  934 00000000         
  935 00000000                 EXPORTAS         ||area_number.30||, ||.ARM.exid
x||
  936 00000000 00000000        DCD              0x00000000
  937 00000004                 RELOC            42, ||i._ZN6Stream10readStringE
v||
  938 00000004 00000001        DCD              0x00000001
  939 00000008         
  940 00000008                 AREA             ||area_number.31||, LINKORDER=|
|i._ZN6Stream15readStringUntilEc||, DATA, READONLY, SECTYPE={SHT_ARM_EXIDX}, AL
IGN=2
  941 00000000         
  942 00000000                 EXPORTAS         ||area_number.31||, ||.ARM.exid
x||
  943 00000000 00000000        DCD              0x00000000
  944 00000004                 RELOC            42, ||i._ZN6Stream15readStringU
ntilEc||
  945 00000004 00000001        DCD              0x00000001
  946 00000008         
  947 00000008                 AREA             ||.arm_vfe_header||, DATA, READ
ONLY, NOALLOC, ALIGN=2
  948 00000000         
  949 00000000 00000000        DCD              0x00000000
  950 00000004         
  951 00000004                 AREA             ||.arm_vfe_vcallinfoi._ZN6Strea
m10parseFloatE13LookaheadModec||, DATA, READONLY, NOALLOC, ALIGN=2
  952 00000000         
  953 00000000 00000000        DCD              ||i._ZN6Stream10parseFloatE13Lo
okaheadModec||
  954 00000004 00000000        DCD              0x00000000
  955 00000008 00000000        DCD              0x00000000
  956 0000000C 00000001        DCD              0x00000001
  957 00000010 00000000        DCD              _ZTI6Stream
  958 00000014 00000001        DCD              0x00000001



ARM Macro Assembler    Page 19 


  959 00000018 00000008        DCD              0x00000008
  960 0000001C 00000000        DCD              0x00000000
  961 00000020 00000000        DCD              0x00000000
  962 00000024         
  963 00000024                 AREA             ||.arm_vfe_vcallinfoi._ZN6Strea
m13peekNextDigitE13LookaheadModeb||, DATA, READONLY, NOALLOC, ALIGN=2
  964 00000000         
  965 00000000 00000000        DCD              ||i._ZN6Stream13peekNextDigitE1
3LookaheadModeb||
  966 00000004 00000000        DCD              0x00000000
  967 00000008 00000000        DCD              0x00000000
  968 0000000C 00000001        DCD              0x00000001
  969 00000010 00000000        DCD              _ZTI6Stream
  970 00000014 00000001        DCD              0x00000001
  971 00000018 00000008        DCD              0x00000008
  972 0000001C 00000000        DCD              0x00000000
  973 00000020 00000000        DCD              0x00000000
  974 00000024         
  975 00000024                 AREA             ||.arm_vfe_vcallinfoi._ZN6Strea
m8parseIntE13LookaheadModec||, DATA, READONLY, NOALLOC, ALIGN=2
  976 00000000         
  977 00000000 00000000        DCD              ||i._ZN6Stream8parseIntE13Looka
headModec||
  978 00000004 00000000        DCD              0x00000000
  979 00000008 00000000        DCD              0x00000000
  980 0000000C 00000001        DCD              0x00000001
  981 00000010 00000000        DCD              _ZTI6Stream
  982 00000014 00000001        DCD              0x00000001
  983 00000018 00000008        DCD              0x00000008
  984 0000001C 00000000        DCD              0x00000000
  985 00000020 00000000        DCD              0x00000000
  986 00000024         
  987 00000024                 AREA             ||.arm_vfe_vcallinfoi._ZN6Strea
m9timedPeekEv||, DATA, READONLY, NOALLOC, ALIGN=2
  988 00000000         
  989 00000000 00000000        DCD              ||i._ZN6Stream9timedPeekEv||
  990 00000004 00000000        DCD              0x00000000
  991 00000008 00000000        DCD              0x00000000
  992 0000000C 00000001        DCD              0x00000001
  993 00000010 00000000        DCD              _ZTI6Stream
  994 00000014 00000001        DCD              0x00000001
  995 00000018 00000010        DCD              0x00000010
  996 0000001C 00000000        DCD              0x00000000
  997 00000020 00000000        DCD              0x00000000
  998 00000024         
  999 00000024                 AREA             ||.arm_vfe_vcallinfoi._ZN6Strea
m9timedReadEv||, DATA, READONLY, NOALLOC, ALIGN=2
 1000 00000000         
 1001 00000000 00000000        DCD              ||i._ZN6Stream9timedReadEv||
 1002 00000004 00000000        DCD              0x00000000
 1003 00000008 00000000        DCD              0x00000000
 1004 0000000C 00000001        DCD              0x00000001
 1005 00000010 00000000        DCD              _ZTI6Stream
 1006 00000014 00000001        DCD              0x00000001
 1007 00000018 00000008        DCD              0x00000008
 1008 0000001C 00000000        DCD              0x00000000
 1009 00000020 00000000        DCD              0x00000000
 1010 00000024         
 1011 00000024                 AREA             ||i._ZN6StringpLEc||, COMGROUP=



ARM Macro Assembler    Page 20 


_ZN6StringpLEc, CODE, READONLY, ALIGN=1
 1012 00000000         
 1013 00000000         _ZN6StringpLEc
                               PROC
 1014 00000000 B570            PUSH             {r4-r6,lr}
 1015 00000002 4604            MOV              r4,r0
 1016 00000004 460D            MOV              r5,r1
 1017 00000006 4629            MOV              r1,r5
 1018 00000008 4620            MOV              r0,r4
 1019 0000000A F7FF FFFE       BL               _ZN6String6concatEc
 1020 0000000E 4620            MOV              r0,r4
 1021 00000010 BD70            POP              {r4-r6,pc}
 1022 00000012                 ENDP
 1023 00000012         
 1024 00000012         
 1025 00000012                 AREA             ||area_number.108||, COMGROUP=_
ZN6StringpLEc, LINKORDER=||i._ZN6StringpLEc||, DATA, READONLY, SECTYPE={SHT_ARM
_EXIDX}, ALIGN=2
 1026 00000000         
 1027 00000000                 EXPORTAS         ||area_number.108||, ||.ARM.exi
dx||
 1028 00000000 00000000        DCD              0x00000000
 1029 00000004                 RELOC            42, ||i._ZN6StringpLEc||
 1030 00000004 00000001        DCD              0x00000001
 1031 00000008         
 1032 00000008         ;*** Start embedded assembler ***
 1033 00000008         
 1034 00000008         #line   1                "cores\\Stream.cpp"
    1 00000008                 AREA             ||.rev16_text||, CODE
    2 00000000                 THUMB
    3 00000000                 EXPORT           |__asm___10_Stream_cpp_dbd866df
___Z7__REV16j|
    4 00000000         #line   447              "C:\\Keil_v5\\ARM\\PACK\\ARM\\C
MSIS\\5.0.1\\CMSIS\\Include\\cmsis_armcc.h"
  447 00000000         |__asm___10_Stream_cpp_dbd866df___Z7__REV16j|
                               PROC
  448 00000000         #line   448
  448 00000000         
  449 00000000 BA40            rev16            r0, r0
  450 00000002 4770            bx               lr
  451 00000004                 ENDP
  452 00000004                 AREA             ||.revsh_text||, CODE
  453 00000000                 THUMB
  454 00000000                 EXPORT           |__asm___10_Stream_cpp_dbd866df
___Z7__REVSHi|
  455 00000000         #line   462
  462 00000000         |__asm___10_Stream_cpp_dbd866df___Z7__REVSHi|
                               PROC
  463 00000000         #line   463
  463 00000000         
  464 00000000 BAC0            revsh            r0, r0
  465 00000002 4770            bx               lr
  466 00000004                 ENDP
  467 00000004                 AREA             ||.rrx_text||, CODE
  468 00000000                 THUMB
  469 00000000                 EXPORT           |__asm___10_Stream_cpp_dbd866df
___Z5__RRXj|
  470 00000000         #line   649
  649 00000000         |__asm___10_Stream_cpp_dbd866df___Z5__RRXj|



ARM Macro Assembler    Page 21 


                               PROC
  650 00000000         #line   650
  650 00000000         
  651 00000000 EA4F 0030       rrx              r0, r0
  652 00000004 4770            bx               lr
  653 00000006                 ENDP
  654 00000006         
  655 00000006         ;*** End   embedded assembler ***
  656 00000006         
  657 00000006                 EXPORT           NOPS_FOR_USEC [CODE]
  658 00000006                 EXPORT           _ZN6Stream10parseFloatE13Lookah
eadModec [CODE]
  659 00000006                 EXPORT           _ZN6Stream10readStringEv [CODE]
  660 00000006                 EXPORT           _ZN6Stream10setTimeoutEm [CODE]
  661 00000006                 EXPORT           _ZN6Stream13peekNextDigitE13Loo
kaheadModeb [CODE]
  662 00000006                 EXPORT           _ZN6Stream14readBytesUntilEcPcj
 [CODE]
  663 00000006                 EXPORT           _ZN6Stream15readStringUntilEc [
CODE]
  664 00000006                 EXPORT           _ZN6Stream4findEPc [CODE]
  665 00000006                 EXPORT           _ZN6Stream4findEPcj [CODE]
  666 00000006                 EXPORT           _ZN6Stream8parseIntE13Lookahead
Modec [CODE]
  667 00000006                 EXPORT           _ZN6Stream9findMultiEPNS_11Mult
iTargetEi [CODE]
  668 00000006                 EXPORT           _ZN6Stream9findUntilEPcS0_ [COD
E]
  669 00000006                 EXPORT           _ZN6Stream9findUntilEPcjS0_j [C
ODE]
  670 00000006                 EXPORT           _ZN6Stream9readBytesEPcj [CODE]
  671 00000006                 EXPORT           _ZN6Stream9timedPeekEv [CODE]
  672 00000006                 EXPORT           _ZN6Stream9timedReadEv [CODE]
  673 00000006                 EXPORT           _ZN6StringpLEc [CODE]
  674 00000006         
  675 00000006                 IMPORT           ||Lib$$Request$$armlib|| [CODE,
WEAK]
  676 00000006                 IMPORT           ||Lib$$Request$$cpplib|| [CODE,
WEAK]
  677 00000006                 IMPORT           millis [CODE]
  678 00000006                 IMPORT           __aeabi_memclr4 [CODE]
  679 00000006                 IMPORT           strlen [CODE]
  680 00000006                 IMPORT           __aeabi_f2d [CODE]
  681 00000006                 IMPORT           __aeabi_dmul [CODE]
  682 00000006                 IMPORT           __aeabi_d2f [CODE]
  683 00000006                 IMPORT           _ZN6StringC1EPKc [CODE]
  684 00000006                 IMPORT           _ZN6String6concatEc [CODE]
  685 00000006                 IMPORT           _ZTI6Stream [DATA,WEAK]
  686 00000006         
  687 00000006                 ATTR             FILESCOPE
  688 00000006                 ATTR             SETVALUE Tag_ABI_PCS_wchar_t,2
  689 00000006                 ATTR             SETVALUE Tag_ABI_enum_size,1
  690 00000006                 ATTR             SETVALUE Tag_ABI_optimization_g
oals,6
  691 00000006                 ATTR             SETSTRING Tag_conformance,"2.09
"
  692 00000006                 ATTR             SETVALUE AV,6,0
  693 00000006                 ATTR             SETVALUE AV,18,1
  694 00000006         



ARM Macro Assembler    Page 22 


  695 00000006                 ASSERT           {ENDIAN} = "little"
  696 00000006                 ASSERT           {INTER} = {TRUE}
  697 00000006                 ASSERT           {ROPI} = {FALSE}
  698 00000006                 ASSERT           {RWPI} = {FALSE}
  699 00000006                 ASSERT           {IEEE_FULL} = {FALSE}
  700 00000006                 ASSERT           {IEEE_PART} = {FALSE}
  701 00000006                 ASSERT           {IEEE_JAVA} = {FALSE}
  702 00000006                 END
Command Line: --debug --xref --diag_suppress=9931 --cpu=Cortex-M4.fp --apcs=int
erwork -o.\objects\stream.o -I.\cores -I.\RTE\Device\XMC4700-F144x2048 -I.\RTE\
_Target_1 -IC:\Keil_v5\ARM\PACK\ARM\CMSIS\5.0.1\CMSIS\Include -IC:\Keil_v5\ARM\
PACK\Infineon\XMC4000_DFP\2.9.1\Device\XMC4700_series\Include -IC:\Keil_v5\ARM\
PACK\Infineon\XMC4000_DFP\2.9.1\Device\XMClib\inc -IC:\Keil_v5\ARM\PACK\Infineo
n\XMC4000_DFP\2.9.1\RTE_Driver --predefine="__UVISION_VERSION SETA 524" --prede
fine="_RTE_ SETA 1" --predefine="XMC4700_F144x2048 SETA 1" --list=.\listings\st
ream.lst .\objects\stream.s



ARM Macro Assembler    Page 1 Alphabetic symbol ordering
Relocatable symbols

NOPS_FOR_USEC 00000000

Symbol: NOPS_FOR_USEC
   Definitions
      At line 9 in file .\objects\stream.s
   Uses
      At line 657 in file C:\\Keil_v5\\ARM\\PACK\\ARM\\CMSIS\\5.0.1\\CMSIS\\Inc
lude\\cmsis_armcc.h
Comment: NOPS_FOR_USEC used once
|i.NOPS_FOR_USEC| 00000000

Symbol: |i.NOPS_FOR_USEC|
   Definitions
      At line 7 in file .\objects\stream.s
   Uses
      At line 839 in file .\objects\stream.s
Comment: |i.NOPS_FOR_USEC| used once
2 symbols



ARM Macro Assembler    Page 1 Alphabetic symbol ordering
Relocatable symbols

L1.140 0000008C

Symbol: L1.140
   Definitions
      At line 212 in file .\objects\stream.s
   Uses
      At line 184 in file .\objects\stream.s
      At line 188 in file .\objects\stream.s
      At line 193 in file .\objects\stream.s
      At line 196 in file .\objects\stream.s
      At line 198 in file .\objects\stream.s
      At line 202 in file .\objects\stream.s

L1.166 000000A6

Symbol: L1.166
   Definitions
      At line 224 in file .\objects\stream.s
   Uses
      At line 221 in file .\objects\stream.s
Comment: L1.166 used once
L1.174 000000AE

Symbol: L1.174
   Definitions
      At line 229 in file .\objects\stream.s
   Uses
      At line 226 in file .\objects\stream.s
Comment: L1.174 used once
L1.186 000000BA

Symbol: L1.186
   Definitions
      At line 235 in file .\objects\stream.s
   Uses
      At line 233 in file .\objects\stream.s
Comment: L1.186 used once
L1.202 000000CA

Symbol: L1.202
   Definitions
      At line 241 in file .\objects\stream.s
   Uses
      At line 236 in file .\objects\stream.s
Comment: L1.202 used once
L1.212 000000D4

Symbol: L1.212
   Definitions
      At line 247 in file .\objects\stream.s
   Uses
      At line 176 in file .\objects\stream.s
Comment: L1.212 used once
L1.216 000000D8

Symbol: L1.216
   Definitions
      At line 249 in file .\objects\stream.s
   Uses



ARM Macro Assembler    Page 2 Alphabetic symbol ordering
Relocatable symbols

      At line 206 in file .\objects\stream.s
Comment: L1.216 used once
L1.50 00000032

Symbol: L1.50
   Definitions
      At line 177 in file .\objects\stream.s
   Uses
      At line 240 in file .\objects\stream.s
      At line 244 in file .\objects\stream.s

L1.58 0000003A

Symbol: L1.58
   Definitions
      At line 180 in file .\objects\stream.s
   Uses
      At line 175 in file .\objects\stream.s
Comment: L1.58 used once
L1.60 0000003C

Symbol: L1.60
   Definitions
      At line 182 in file .\objects\stream.s
   Uses
      At line 223 in file .\objects\stream.s
      At line 228 in file .\objects\stream.s
      At line 231 in file .\objects\stream.s

L1.74 0000004A

Symbol: L1.74
   Definitions
      At line 189 in file .\objects\stream.s
   Uses
      At line 186 in file .\objects\stream.s
Comment: L1.74 used once
L1.82 00000052

Symbol: L1.82
   Definitions
      At line 194 in file .\objects\stream.s
   Uses
      At line 191 in file .\objects\stream.s
Comment: L1.82 used once
_ZN6Stream10parseFloatE13LookaheadModec 00000000

Symbol: _ZN6Stream10parseFloatE13LookaheadModec
   Definitions
      At line 158 in file .\objects\stream.s
   Uses
      At line 658 in file C:\\Keil_v5\\ARM\\PACK\\ARM\\CMSIS\\5.0.1\\CMSIS\\Inc
lude\\cmsis_armcc.h
Comment: _ZN6Stream10parseFloatE13LookaheadModec used once
|i._ZN6Stream10parseFloatE13LookaheadModec| 00000000

Symbol: |i._ZN6Stream10parseFloatE13LookaheadModec|
   Definitions
      At line 156 in file .\objects\stream.s



ARM Macro Assembler    Page 3 Alphabetic symbol ordering
Relocatable symbols

   Uses
      At line 916 in file .\objects\stream.s
      At line 953 in file .\objects\stream.s

14 symbols



ARM Macro Assembler    Page 1 Alphabetic symbol ordering
Relocatable symbols

L2.26 0000001A

Symbol: L2.26
   Definitions
      At line 266 in file .\objects\stream.s
   Uses
      At line 275 in file .\objects\stream.s
Comment: L2.26 used once
L2.42 0000002A

Symbol: L2.42
   Definitions
      At line 273 in file .\objects\stream.s
   Uses
      At line 265 in file .\objects\stream.s
Comment: L2.42 used once
L2.48 00000030

Symbol: L2.48
   Definitions
      At line 279 in file .\objects\stream.s
   Uses
      At line 258 in file .\objects\stream.s
Comment: L2.48 used once
_ZN6Stream10readStringEv 00000000

Symbol: _ZN6Stream10readStringEv
   Definitions
      At line 254 in file .\objects\stream.s
   Uses
      At line 659 in file C:\\Keil_v5\\ARM\\PACK\\ARM\\CMSIS\\5.0.1\\CMSIS\\Inc
lude\\cmsis_armcc.h
Comment: _ZN6Stream10readStringEv used once
|i._ZN6Stream10readStringEv| 00000000

Symbol: |i._ZN6Stream10readStringEv|
   Definitions
      At line 252 in file .\objects\stream.s
   Uses
      At line 937 in file .\objects\stream.s
Comment: |i._ZN6Stream10readStringEv| used once
5 symbols



ARM Macro Assembler    Page 1 Alphabetic symbol ordering
Relocatable symbols

_ZN6Stream10setTimeoutEm 00000000

Symbol: _ZN6Stream10setTimeoutEm
   Definitions
      At line 287 in file .\objects\stream.s
   Uses
      At line 660 in file C:\\Keil_v5\\ARM\\PACK\\ARM\\CMSIS\\5.0.1\\CMSIS\\Inc
lude\\cmsis_armcc.h
Comment: _ZN6Stream10setTimeoutEm used once
|i._ZN6Stream10setTimeoutEm| 00000000

Symbol: |i._ZN6Stream10setTimeoutEm|
   Definitions
      At line 285 in file .\objects\stream.s
   Uses
      At line 867 in file .\objects\stream.s
Comment: |i._ZN6Stream10setTimeoutEm| used once
2 symbols



ARM Macro Assembler    Page 1 Alphabetic symbol ordering
Relocatable symbols

L4.100 00000064

Symbol: L4.100
   Definitions
      At line 353 in file .\objects\stream.s
   Uses
      At line 322 in file .\objects\stream.s
Comment: L4.100 used once
L4.102 00000066

Symbol: L4.102
   Definitions
      At line 355 in file .\objects\stream.s
   Uses
      At line 326 in file .\objects\stream.s
Comment: L4.102 used once
L4.112 00000070

Symbol: L4.112
   Definitions
      At line 361 in file .\objects\stream.s
   Uses
      At line 300 in file .\objects\stream.s
Comment: L4.112 used once
L4.12 0000000C

Symbol: L4.12
   Definitions
      At line 301 in file .\objects\stream.s
   Uses
      At line 362 in file .\objects\stream.s
Comment: L4.12 used once
L4.36 00000024

Symbol: L4.36
   Definitions
      At line 313 in file .\objects\stream.s
   Uses
      At line 310 in file .\objects\stream.s
Comment: L4.36 used once
L4.42 0000002A

Symbol: L4.42
   Definitions
      At line 317 in file .\objects\stream.s
   Uses
      At line 306 in file .\objects\stream.s
      At line 308 in file .\objects\stream.s
      At line 312 in file .\objects\stream.s

L4.44 0000002C

Symbol: L4.44
   Definitions
      At line 319 in file .\objects\stream.s
   Uses
      At line 330 in file .\objects\stream.s
      At line 349 in file .\objects\stream.s




ARM Macro Assembler    Page 2 Alphabetic symbol ordering
Relocatable symbols

L4.48 00000030

Symbol: L4.48
   Definitions
      At line 321 in file .\objects\stream.s
   Uses
      At line 314 in file .\objects\stream.s
      At line 316 in file .\objects\stream.s

L4.60 0000003C

Symbol: L4.60
   Definitions
      At line 328 in file .\objects\stream.s
   Uses
      At line 324 in file .\objects\stream.s
Comment: L4.60 used once
L4.66 00000042

Symbol: L4.66
   Definitions
      At line 331 in file .\objects\stream.s
   Uses
      At line 327 in file .\objects\stream.s
Comment: L4.66 used once
L4.84 00000054

Symbol: L4.84
   Definitions
      At line 341 in file .\objects\stream.s
   Uses
      At line 333 in file .\objects\stream.s
Comment: L4.84 used once
L4.86 00000056

Symbol: L4.86
   Definitions
      At line 343 in file .\objects\stream.s
   Uses
      At line 337 in file .\objects\stream.s
Comment: L4.86 used once
L4.88 00000058

Symbol: L4.88
   Definitions
      At line 345 in file .\objects\stream.s
   Uses
      At line 335 in file .\objects\stream.s
Comment: L4.88 used once
L4.90 0000005A

Symbol: L4.90
   Definitions
      At line 347 in file .\objects\stream.s
   Uses
      At line 339 in file .\objects\stream.s
Comment: L4.90 used once
L4.96 00000060




ARM Macro Assembler    Page 3 Alphabetic symbol ordering
Relocatable symbols

Symbol: L4.96
   Definitions
      At line 350 in file .\objects\stream.s
   Uses
      At line 346 in file .\objects\stream.s
Comment: L4.96 used once
_ZN6Stream13peekNextDigitE13LookaheadModeb 00000000

Symbol: _ZN6Stream13peekNextDigitE13LookaheadModeb
   Definitions
      At line 295 in file .\objects\stream.s
   Uses
      At line 172 in file .\objects\stream.s
      At line 493 in file .\objects\stream.s
      At line 661 in file C:\\Keil_v5\\ARM\\PACK\\ARM\\CMSIS\\5.0.1\\CMSIS\\Inc
lude\\cmsis_armcc.h

|i._ZN6Stream13peekNextDigitE13LookaheadModeb| 00000000

Symbol: |i._ZN6Stream13peekNextDigitE13LookaheadModeb|
   Definitions
      At line 293 in file .\objects\stream.s
   Uses
      At line 860 in file .\objects\stream.s
      At line 965 in file .\objects\stream.s

17 symbols



ARM Macro Assembler    Page 1 Alphabetic symbol ordering
Relocatable symbols

L5.16 00000010

Symbol: L5.16
   Definitions
      At line 376 in file .\objects\stream.s
   Uses
      At line 401 in file .\objects\stream.s
Comment: L5.16 used once
L5.20 00000014

Symbol: L5.20
   Definitions
      At line 378 in file .\objects\stream.s
   Uses
      At line 374 in file .\objects\stream.s
Comment: L5.20 used once
L5.24 00000018

Symbol: L5.24
   Definitions
      At line 381 in file .\objects\stream.s
   Uses
      At line 397 in file .\objects\stream.s
Comment: L5.24 used once
L5.40 00000028

Symbol: L5.40
   Definitions
      At line 389 in file .\objects\stream.s
   Uses
      At line 386 in file .\objects\stream.s
Comment: L5.40 used once
L5.42 0000002A

Symbol: L5.42
   Definitions
      At line 391 in file .\objects\stream.s
   Uses
      At line 388 in file .\objects\stream.s
Comment: L5.42 used once
L5.50 00000032

Symbol: L5.50
   Definitions
      At line 395 in file .\objects\stream.s
   Uses
      At line 380 in file .\objects\stream.s
Comment: L5.50 used once
L5.54 00000036

Symbol: L5.54
   Definitions
      At line 398 in file .\objects\stream.s
   Uses
      At line 390 in file .\objects\stream.s
Comment: L5.54 used once
_ZN6Stream14readBytesUntilEcPcj 00000000

Symbol: _ZN6Stream14readBytesUntilEcPcj



ARM Macro Assembler    Page 2 Alphabetic symbol ordering
Relocatable symbols

   Definitions
      At line 368 in file .\objects\stream.s
   Uses
      At line 662 in file C:\\Keil_v5\\ARM\\PACK\\ARM\\CMSIS\\5.0.1\\CMSIS\\Inc
lude\\cmsis_armcc.h
Comment: _ZN6Stream14readBytesUntilEcPcj used once
|i._ZN6Stream14readBytesUntilEcPcj| 00000000

Symbol: |i._ZN6Stream14readBytesUntilEcPcj|
   Definitions
      At line 366 in file .\objects\stream.s
   Uses
      At line 930 in file .\objects\stream.s
Comment: |i._ZN6Stream14readBytesUntilEcPcj| used once
9 symbols



ARM Macro Assembler    Page 1 Alphabetic symbol ordering
Relocatable symbols

L6.30 0000001E

Symbol: L6.30
   Definitions
      At line 420 in file .\objects\stream.s
   Uses
      At line 431 in file .\objects\stream.s
Comment: L6.30 used once
L6.46 0000002E

Symbol: L6.46
   Definitions
      At line 427 in file .\objects\stream.s
   Uses
      At line 419 in file .\objects\stream.s
Comment: L6.46 used once
L6.54 00000036

Symbol: L6.54
   Definitions
      At line 432 in file .\objects\stream.s
   Uses
      At line 429 in file .\objects\stream.s
Comment: L6.54 used once
L6.60 0000003C

Symbol: L6.60
   Definitions
      At line 437 in file .\objects\stream.s
   Uses
      At line 412 in file .\objects\stream.s
Comment: L6.60 used once
_ZN6Stream15readStringUntilEc 00000000

Symbol: _ZN6Stream15readStringUntilEc
   Definitions
      At line 407 in file .\objects\stream.s
   Uses
      At line 663 in file C:\\Keil_v5\\ARM\\PACK\\ARM\\CMSIS\\5.0.1\\CMSIS\\Inc
lude\\cmsis_armcc.h
Comment: _ZN6Stream15readStringUntilEc used once
|i._ZN6Stream15readStringUntilEc| 00000000

Symbol: |i._ZN6Stream15readStringUntilEc|
   Definitions
      At line 405 in file .\objects\stream.s
   Uses
      At line 944 in file .\objects\stream.s
Comment: |i._ZN6Stream15readStringUntilEc| used once
6 symbols



ARM Macro Assembler    Page 1 Alphabetic symbol ordering
Relocatable symbols

_ZN6Stream4findEPc 00000000

Symbol: _ZN6Stream4findEPc
   Definitions
      At line 445 in file .\objects\stream.s
   Uses
      At line 664 in file C:\\Keil_v5\\ARM\\PACK\\ARM\\CMSIS\\5.0.1\\CMSIS\\Inc
lude\\cmsis_armcc.h
Comment: _ZN6Stream4findEPc used once
|i._ZN6Stream4findEPc| 00000000

Symbol: |i._ZN6Stream4findEPc|
   Definitions
      At line 443 in file .\objects\stream.s
   Uses
      At line 888 in file .\objects\stream.s
Comment: |i._ZN6Stream4findEPc| used once
2 symbols



ARM Macro Assembler    Page 1 Alphabetic symbol ordering
Relocatable symbols

_ZN6Stream4findEPcj 00000000

Symbol: _ZN6Stream4findEPcj
   Definitions
      At line 465 in file .\objects\stream.s
   Uses
      At line 665 in file C:\\Keil_v5\\ARM\\PACK\\ARM\\CMSIS\\5.0.1\\CMSIS\\Inc
lude\\cmsis_armcc.h
Comment: _ZN6Stream4findEPcj used once
|i._ZN6Stream4findEPcj| 00000000

Symbol: |i._ZN6Stream4findEPcj|
   Definitions
      At line 463 in file .\objects\stream.s
   Uses
      At line 895 in file .\objects\stream.s
Comment: |i._ZN6Stream4findEPcj| used once
2 symbols



ARM Macro Assembler    Page 1 Alphabetic symbol ordering
Relocatable symbols

L9.110 0000006E

Symbol: L9.110
   Definitions
      At line 535 in file .\objects\stream.s
   Uses
      At line 533 in file .\objects\stream.s
Comment: L9.110 used once
L9.34 00000022

Symbol: L9.34
   Definitions
      At line 498 in file .\objects\stream.s
   Uses
      At line 537 in file .\objects\stream.s
Comment: L9.34 used once
L9.38 00000026

Symbol: L9.38
   Definitions
      At line 500 in file .\objects\stream.s
   Uses
      At line 496 in file .\objects\stream.s
Comment: L9.38 used once
L9.40 00000028

Symbol: L9.40
   Definitions
      At line 502 in file .\objects\stream.s
   Uses
      At line 528 in file .\objects\stream.s
      At line 531 in file .\objects\stream.s

L9.54 00000036

Symbol: L9.54
   Definitions
      At line 509 in file .\objects\stream.s
   Uses
      At line 506 in file .\objects\stream.s
Comment: L9.54 used once
L9.74 0000004A

Symbol: L9.74
   Definitions
      At line 517 in file .\objects\stream.s
   Uses
      At line 504 in file .\objects\stream.s
      At line 508 in file .\objects\stream.s
      At line 511 in file .\objects\stream.s
      At line 513 in file .\objects\stream.s

L9.98 00000062

Symbol: L9.98
   Definitions
      At line 529 in file .\objects\stream.s
   Uses
      At line 526 in file .\objects\stream.s



ARM Macro Assembler    Page 2 Alphabetic symbol ordering
Relocatable symbols

Comment: L9.98 used once
_ZN6Stream8parseIntE13LookaheadModec 00000000

Symbol: _ZN6Stream8parseIntE13LookaheadModec
   Definitions
      At line 483 in file .\objects\stream.s
   Uses
      At line 666 in file C:\\Keil_v5\\ARM\\PACK\\ARM\\CMSIS\\5.0.1\\CMSIS\\Inc
lude\\cmsis_armcc.h
Comment: _ZN6Stream8parseIntE13LookaheadModec used once
|i._ZN6Stream8parseIntE13LookaheadModec| 00000000

Symbol: |i._ZN6Stream8parseIntE13LookaheadModec|
   Definitions
      At line 481 in file .\objects\stream.s
   Uses
      At line 909 in file .\objects\stream.s
      At line 977 in file .\objects\stream.s

9 symbols



ARM Macro Assembler    Page 1 Alphabetic symbol ordering
Relocatable symbols

L10.100 00000064

Symbol: L10.100
   Definitions
      At line 593 in file .\objects\stream.s
   Uses
      At line 588 in file .\objects\stream.s
Comment: L10.100 used once
L10.102 00000066

Symbol: L10.102
   Definitions
      At line 595 in file .\objects\stream.s
   Uses
      At line 582 in file .\objects\stream.s
Comment: L10.102 used once
L10.108 0000006C

Symbol: L10.108
   Definitions
      At line 599 in file .\objects\stream.s
   Uses
      At line 597 in file .\objects\stream.s
Comment: L10.108 used once
L10.112 00000070

Symbol: L10.112
   Definitions
      At line 602 in file .\objects\stream.s
   Uses
      At line 654 in file .\objects\stream.s
Comment: L10.112 used once
L10.14 0000000E

Symbol: L10.14
   Definitions
      At line 550 in file .\objects\stream.s
   Uses
      At line 564 in file .\objects\stream.s
Comment: L10.14 used once
L10.142 0000008E

Symbol: L10.142
   Definitions
      At line 612 in file .\objects\stream.s
   Uses
      At line 610 in file .\objects\stream.s
Comment: L10.142 used once
L10.166 000000A6

Symbol: L10.166
   Definitions
      At line 620 in file .\objects\stream.s
   Uses
      At line 615 in file .\objects\stream.s
Comment: L10.166 used once
L10.178 000000B2

Symbol: L10.178



ARM Macro Assembler    Page 2 Alphabetic symbol ordering
Relocatable symbols

   Definitions
      At line 625 in file .\objects\stream.s
   Uses
      At line 639 in file .\objects\stream.s
Comment: L10.178 used once
L10.204 000000CC

Symbol: L10.204
   Definitions
      At line 634 in file .\objects\stream.s
   Uses
      At line 632 in file .\objects\stream.s
Comment: L10.204 used once
L10.206 000000CE

Symbol: L10.206
   Definitions
      At line 636 in file .\objects\stream.s
   Uses
      At line 624 in file .\objects\stream.s
Comment: L10.206 used once
L10.214 000000D6

Symbol: L10.214
   Definitions
      At line 640 in file .\objects\stream.s
   Uses
      At line 633 in file .\objects\stream.s
Comment: L10.214 used once
L10.238 000000EE

Symbol: L10.238
   Definitions
      At line 649 in file .\objects\stream.s
   Uses
      At line 644 in file .\objects\stream.s
Comment: L10.238 used once
L10.240 000000F0

Symbol: L10.240
   Definitions
      At line 651 in file .\objects\stream.s
   Uses
      At line 611 in file .\objects\stream.s
Comment: L10.240 used once
L10.246 000000F6

Symbol: L10.246
   Definitions
      At line 655 in file .\objects\stream.s
   Uses
      At line 619 in file .\objects\stream.s
      At line 648 in file .\objects\stream.s

L10.250 000000FA

Symbol: L10.250
   Definitions
      At line 658 in file .\objects\stream.s



ARM Macro Assembler    Page 3 Alphabetic symbol ordering
Relocatable symbols

   Uses
      At line 594 in file .\objects\stream.s
      At line 598 in file .\objects\stream.s

L10.252 000000FC

Symbol: L10.252
   Definitions
      At line 660 in file .\objects\stream.s
   Uses
      At line 576 in file .\objects\stream.s
Comment: L10.252 used once
L10.26 0000001A

Symbol: L10.26
   Definitions
      At line 556 in file .\objects\stream.s
   Uses
      At line 573 in file .\objects\stream.s
      At line 592 in file .\objects\stream.s

L10.266 0000010A

Symbol: L10.266
   Definitions
      At line 666 in file .\objects\stream.s
   Uses
      At line 565 in file .\objects\stream.s
Comment: L10.266 used once
L10.30 0000001E

Symbol: L10.30
   Definitions
      At line 558 in file .\objects\stream.s
   Uses
      At line 552 in file .\objects\stream.s
Comment: L10.30 used once
L10.32 00000020

Symbol: L10.32
   Definitions
      At line 560 in file .\objects\stream.s
   Uses
      At line 549 in file .\objects\stream.s
Comment: L10.32 used once
L10.46 0000002E

Symbol: L10.46
   Definitions
      At line 566 in file .\objects\stream.s
   Uses
      At line 667 in file .\objects\stream.s
Comment: L10.46 used once
L10.64 00000040

Symbol: L10.64
   Definitions
      At line 574 in file .\objects\stream.s
   Uses



ARM Macro Assembler    Page 4 Alphabetic symbol ordering
Relocatable symbols

      At line 571 in file .\objects\stream.s
Comment: L10.64 used once
L10.68 00000044

Symbol: L10.68
   Definitions
      At line 577 in file .\objects\stream.s
   Uses
      At line 664 in file .\objects\stream.s
Comment: L10.68 used once
_ZN6Stream9findMultiEPNS_11MultiTargetEi 00000000

Symbol: _ZN6Stream9findMultiEPNS_11MultiTargetEi
   Definitions
      At line 543 in file .\objects\stream.s
   Uses
      At line 714 in file .\objects\stream.s
      At line 734 in file .\objects\stream.s
      At line 667 in file C:\\Keil_v5\\ARM\\PACK\\ARM\\CMSIS\\5.0.1\\CMSIS\\Inc
lude\\cmsis_armcc.h

|i._ZN6Stream9findMultiEPNS_11MultiTargetEi| 00000000

Symbol: |i._ZN6Stream9findMultiEPNS_11MultiTargetEi|
   Definitions
      At line 541 in file .\objects\stream.s
   Uses
      At line 874 in file .\objects\stream.s
Comment: |i._ZN6Stream9findMultiEPNS_11MultiTargetEi| used once
25 symbols



ARM Macro Assembler    Page 1 Alphabetic symbol ordering
Relocatable symbols

_ZN6Stream9findUntilEPcS0_ 00000000

Symbol: _ZN6Stream9findUntilEPcS0_
   Definitions
      At line 673 in file .\objects\stream.s
   Uses
      At line 668 in file C:\\Keil_v5\\ARM\\PACK\\ARM\\CMSIS\\5.0.1\\CMSIS\\Inc
lude\\cmsis_armcc.h
Comment: _ZN6Stream9findUntilEPcS0_ used once
|i._ZN6Stream9findUntilEPcS0_| 00000000

Symbol: |i._ZN6Stream9findUntilEPcS0_|
   Definitions
      At line 671 in file .\objects\stream.s
   Uses
      At line 902 in file .\objects\stream.s
Comment: |i._ZN6Stream9findUntilEPcS0_| used once
2 symbols



ARM Macro Assembler    Page 1 Alphabetic symbol ordering
Relocatable symbols

L12.46 0000002E

Symbol: L12.46
   Definitions
      At line 717 in file .\objects\stream.s
   Uses
      At line 722 in file .\objects\stream.s
      At line 737 in file .\objects\stream.s
      At line 740 in file .\objects\stream.s

L12.52 00000034

Symbol: L12.52
   Definitions
      At line 720 in file .\objects\stream.s
   Uses
      At line 715 in file .\objects\stream.s
Comment: L12.52 used once
L12.56 00000038

Symbol: L12.56
   Definitions
      At line 723 in file .\objects\stream.s
   Uses
      At line 704 in file .\objects\stream.s
Comment: L12.56 used once
L12.90 0000005A

Symbol: L12.90
   Definitions
      At line 738 in file .\objects\stream.s
   Uses
      At line 735 in file .\objects\stream.s
Comment: L12.90 used once
_ZN6Stream9findUntilEPcjS0_j 00000000

Symbol: _ZN6Stream9findUntilEPcjS0_j
   Definitions
      At line 696 in file .\objects\stream.s
   Uses
      At line 458 in file .\objects\stream.s
      At line 476 in file .\objects\stream.s
      At line 689 in file .\objects\stream.s
      At line 669 in file C:\\Keil_v5\\ARM\\PACK\\ARM\\CMSIS\\5.0.1\\CMSIS\\Inc
lude\\cmsis_armcc.h

|i._ZN6Stream9findUntilEPcjS0_j| 00000000

Symbol: |i._ZN6Stream9findUntilEPcjS0_j|
   Definitions
      At line 694 in file .\objects\stream.s
   Uses
      At line 881 in file .\objects\stream.s
Comment: |i._ZN6Stream9findUntilEPcjS0_j| used once
6 symbols



ARM Macro Assembler    Page 1 Alphabetic symbol ordering
Relocatable symbols

L13.14 0000000E

Symbol: L13.14
   Definitions
      At line 753 in file .\objects\stream.s
   Uses
      At line 766 in file .\objects\stream.s
Comment: L13.14 used once
L13.28 0000001C

Symbol: L13.28
   Definitions
      At line 760 in file .\objects\stream.s
   Uses
      At line 758 in file .\objects\stream.s
Comment: L13.28 used once
L13.36 00000024

Symbol: L13.36
   Definitions
      At line 764 in file .\objects\stream.s
   Uses
      At line 752 in file .\objects\stream.s
Comment: L13.36 used once
L13.40 00000028

Symbol: L13.40
   Definitions
      At line 767 in file .\objects\stream.s
   Uses
      At line 759 in file .\objects\stream.s
Comment: L13.40 used once
_ZN6Stream9readBytesEPcj 00000000

Symbol: _ZN6Stream9readBytesEPcj
   Definitions
      At line 746 in file .\objects\stream.s
   Uses
      At line 670 in file C:\\Keil_v5\\ARM\\PACK\\ARM\\CMSIS\\5.0.1\\CMSIS\\Inc
lude\\cmsis_armcc.h
Comment: _ZN6Stream9readBytesEPcj used once
|i._ZN6Stream9readBytesEPcj| 00000000

Symbol: |i._ZN6Stream9readBytesEPcj|
   Definitions
      At line 744 in file .\objects\stream.s
   Uses
      At line 923 in file .\objects\stream.s
Comment: |i._ZN6Stream9readBytesEPcj| used once
6 symbols



ARM Macro Assembler    Page 1 Alphabetic symbol ordering
Relocatable symbols

L14.12 0000000C

Symbol: L14.12
   Definitions
      At line 782 in file .\objects\stream.s
   Uses
      At line 799 in file .\objects\stream.s
Comment: L14.12 used once
L14.28 0000001C

Symbol: L14.28
   Definitions
      At line 791 in file .\objects\stream.s
   Uses
      At line 801 in file .\objects\stream.s
Comment: L14.28 used once
L14.30 0000001E

Symbol: L14.30
   Definitions
      At line 793 in file .\objects\stream.s
   Uses
      At line 789 in file .\objects\stream.s
Comment: L14.30 used once
_ZN6Stream9timedPeekEv 00000000

Symbol: _ZN6Stream9timedPeekEv
   Definitions
      At line 776 in file .\objects\stream.s
   Uses
      At line 218 in file .\objects\stream.s
      At line 303 in file .\objects\stream.s
      At line 523 in file .\objects\stream.s
      At line 671 in file C:\\Keil_v5\\ARM\\PACK\\ARM\\CMSIS\\5.0.1\\CMSIS\\Inc
lude\\cmsis_armcc.h

|i._ZN6Stream9timedPeekEv| 00000000

Symbol: |i._ZN6Stream9timedPeekEv|
   Definitions
      At line 774 in file .\objects\stream.s
   Uses
      At line 853 in file .\objects\stream.s
      At line 989 in file .\objects\stream.s

5 symbols



ARM Macro Assembler    Page 1 Alphabetic symbol ordering
Relocatable symbols

L15.12 0000000C

Symbol: L15.12
   Definitions
      At line 813 in file .\objects\stream.s
   Uses
      At line 830 in file .\objects\stream.s
Comment: L15.12 used once
L15.28 0000001C

Symbol: L15.28
   Definitions
      At line 822 in file .\objects\stream.s
   Uses
      At line 832 in file .\objects\stream.s
Comment: L15.28 used once
L15.30 0000001E

Symbol: L15.30
   Definitions
      At line 824 in file .\objects\stream.s
   Uses
      At line 820 in file .\objects\stream.s
Comment: L15.30 used once
_ZN6Stream9timedReadEv 00000000

Symbol: _ZN6Stream9timedReadEv
   Definitions
      At line 807 in file .\objects\stream.s
   Uses
      At line 263 in file .\objects\stream.s
      At line 271 in file .\objects\stream.s
      At line 383 in file .\objects\stream.s
      At line 417 in file .\objects\stream.s
      At line 425 in file .\objects\stream.s
      At line 568 in file .\objects\stream.s
      At line 755 in file .\objects\stream.s
      At line 672 in file C:\\Keil_v5\\ARM\\PACK\\ARM\\CMSIS\\5.0.1\\CMSIS\\Inc
lude\\cmsis_armcc.h

|i._ZN6Stream9timedReadEv| 00000000

Symbol: |i._ZN6Stream9timedReadEv|
   Definitions
      At line 805 in file .\objects\stream.s
   Uses
      At line 846 in file .\objects\stream.s
      At line 1001 in file .\objects\stream.s

5 symbols



ARM Macro Assembler    Page 1 Alphabetic symbol ordering
Relocatable symbols

|.ARM.exidx| 00000000

Symbol: |.ARM.exidx|
   Definitions
      At line 836 in file .\objects\stream.s
   Uses
      None
Comment: |.ARM.exidx| unused
1 symbol



ARM Macro Assembler    Page 1 Alphabetic symbol ordering
Relocatable symbols

|area_number.17| 00000000

Symbol: |area_number.17|
   Definitions
      At line 842 in file .\objects\stream.s
   Uses
      None
Comment: |area_number.17| unused
1 symbol



ARM Macro Assembler    Page 1 Alphabetic symbol ordering
Relocatable symbols

|area_number.18| 00000000

Symbol: |area_number.18|
   Definitions
      At line 849 in file .\objects\stream.s
   Uses
      None
Comment: |area_number.18| unused
1 symbol



ARM Macro Assembler    Page 1 Alphabetic symbol ordering
Relocatable symbols

|area_number.19| 00000000

Symbol: |area_number.19|
   Definitions
      At line 856 in file .\objects\stream.s
   Uses
      None
Comment: |area_number.19| unused
1 symbol



ARM Macro Assembler    Page 1 Alphabetic symbol ordering
Relocatable symbols

|area_number.20| 00000000

Symbol: |area_number.20|
   Definitions
      At line 863 in file .\objects\stream.s
   Uses
      None
Comment: |area_number.20| unused
1 symbol



ARM Macro Assembler    Page 1 Alphabetic symbol ordering
Relocatable symbols

|area_number.21| 00000000

Symbol: |area_number.21|
   Definitions
      At line 870 in file .\objects\stream.s
   Uses
      None
Comment: |area_number.21| unused
1 symbol



ARM Macro Assembler    Page 1 Alphabetic symbol ordering
Relocatable symbols

|area_number.22| 00000000

Symbol: |area_number.22|
   Definitions
      At line 877 in file .\objects\stream.s
   Uses
      None
Comment: |area_number.22| unused
1 symbol



ARM Macro Assembler    Page 1 Alphabetic symbol ordering
Relocatable symbols

|area_number.23| 00000000

Symbol: |area_number.23|
   Definitions
      At line 884 in file .\objects\stream.s
   Uses
      None
Comment: |area_number.23| unused
1 symbol



ARM Macro Assembler    Page 1 Alphabetic symbol ordering
Relocatable symbols

|area_number.24| 00000000

Symbol: |area_number.24|
   Definitions
      At line 891 in file .\objects\stream.s
   Uses
      None
Comment: |area_number.24| unused
1 symbol



ARM Macro Assembler    Page 1 Alphabetic symbol ordering
Relocatable symbols

|area_number.25| 00000000

Symbol: |area_number.25|
   Definitions
      At line 898 in file .\objects\stream.s
   Uses
      None
Comment: |area_number.25| unused
1 symbol



ARM Macro Assembler    Page 1 Alphabetic symbol ordering
Relocatable symbols

|area_number.26| 00000000

Symbol: |area_number.26|
   Definitions
      At line 905 in file .\objects\stream.s
   Uses
      None
Comment: |area_number.26| unused
1 symbol



ARM Macro Assembler    Page 1 Alphabetic symbol ordering
Relocatable symbols

|area_number.27| 00000000

Symbol: |area_number.27|
   Definitions
      At line 912 in file .\objects\stream.s
   Uses
      None
Comment: |area_number.27| unused
1 symbol



ARM Macro Assembler    Page 1 Alphabetic symbol ordering
Relocatable symbols

|area_number.28| 00000000

Symbol: |area_number.28|
   Definitions
      At line 919 in file .\objects\stream.s
   Uses
      None
Comment: |area_number.28| unused
1 symbol



ARM Macro Assembler    Page 1 Alphabetic symbol ordering
Relocatable symbols

|area_number.29| 00000000

Symbol: |area_number.29|
   Definitions
      At line 926 in file .\objects\stream.s
   Uses
      None
Comment: |area_number.29| unused
1 symbol



ARM Macro Assembler    Page 1 Alphabetic symbol ordering
Relocatable symbols

|area_number.30| 00000000

Symbol: |area_number.30|
   Definitions
      At line 933 in file .\objects\stream.s
   Uses
      None
Comment: |area_number.30| unused
1 symbol



ARM Macro Assembler    Page 1 Alphabetic symbol ordering
Relocatable symbols

|area_number.31| 00000000

Symbol: |area_number.31|
   Definitions
      At line 940 in file .\objects\stream.s
   Uses
      None
Comment: |area_number.31| unused
1 symbol



ARM Macro Assembler    Page 1 Alphabetic symbol ordering
Relocatable symbols

|.arm_vfe_header| 00000000

Symbol: |.arm_vfe_header|
   Definitions
      At line 947 in file .\objects\stream.s
   Uses
      None
Comment: |.arm_vfe_header| unused
1 symbol



ARM Macro Assembler    Page 1 Alphabetic symbol ordering
Relocatable symbols

|.arm_vfe_vcallinfoi._ZN6Stream10parseFloatE13LookaheadModec| 00000000

Symbol: |.arm_vfe_vcallinfoi._ZN6Stream10parseFloatE13LookaheadModec|
   Definitions
      At line 951 in file .\objects\stream.s
   Uses
      None
Comment: |.arm_vfe_vcallinfoi._ZN6Stream10parseFloatE13LookaheadModec| unused
1 symbol



ARM Macro Assembler    Page 1 Alphabetic symbol ordering
Relocatable symbols

|.arm_vfe_vcallinfoi._ZN6Stream13peekNextDigitE13LookaheadModeb| 00000000

Symbol: |.arm_vfe_vcallinfoi._ZN6Stream13peekNextDigitE13LookaheadModeb|
   Definitions
      At line 963 in file .\objects\stream.s
   Uses
      None
Comment: |.arm_vfe_vcallinfoi._ZN6Stream13peekNextDigitE13LookaheadModeb| unuse
d
1 symbol



ARM Macro Assembler    Page 1 Alphabetic symbol ordering
Relocatable symbols

|.arm_vfe_vcallinfoi._ZN6Stream8parseIntE13LookaheadModec| 00000000

Symbol: |.arm_vfe_vcallinfoi._ZN6Stream8parseIntE13LookaheadModec|
   Definitions
      At line 975 in file .\objects\stream.s
   Uses
      None
Comment: |.arm_vfe_vcallinfoi._ZN6Stream8parseIntE13LookaheadModec| unused
1 symbol



ARM Macro Assembler    Page 1 Alphabetic symbol ordering
Relocatable symbols

|.arm_vfe_vcallinfoi._ZN6Stream9timedPeekEv| 00000000

Symbol: |.arm_vfe_vcallinfoi._ZN6Stream9timedPeekEv|
   Definitions
      At line 987 in file .\objects\stream.s
   Uses
      None
Comment: |.arm_vfe_vcallinfoi._ZN6Stream9timedPeekEv| unused
1 symbol



ARM Macro Assembler    Page 1 Alphabetic symbol ordering
Relocatable symbols

|.arm_vfe_vcallinfoi._ZN6Stream9timedReadEv| 00000000

Symbol: |.arm_vfe_vcallinfoi._ZN6Stream9timedReadEv|
   Definitions
      At line 999 in file .\objects\stream.s
   Uses
      None
Comment: |.arm_vfe_vcallinfoi._ZN6Stream9timedReadEv| unused
1 symbol



ARM Macro Assembler    Page 1 Alphabetic symbol ordering
Relocatable symbols

_ZN6StringpLEc 00000000

Symbol: _ZN6StringpLEc
   Definitions
      At line 1013 in file .\objects\stream.s
   Uses
      At line 269 in file .\objects\stream.s
      At line 423 in file .\objects\stream.s
      At line 673 in file C:\\Keil_v5\\ARM\\PACK\\ARM\\CMSIS\\5.0.1\\CMSIS\\Inc
lude\\cmsis_armcc.h

|i._ZN6StringpLEc| 00000000

Symbol: |i._ZN6StringpLEc|
   Definitions
      At line 1011 in file .\objects\stream.s
   Uses
      At line 1029 in file .\objects\stream.s
Comment: |i._ZN6StringpLEc| used once
2 symbols



ARM Macro Assembler    Page 1 Alphabetic symbol ordering
Relocatable symbols

|area_number.108| 00000000

Symbol: |area_number.108|
   Definitions
      At line 1025 in file .\objects\stream.s
   Uses
      None
Comment: |area_number.108| unused
1 symbol



ARM Macro Assembler    Page 1 Alphabetic symbol ordering
Relocatable symbols

__asm___10_Stream_cpp_dbd866df___Z7__REV16j 00000000

Symbol: __asm___10_Stream_cpp_dbd866df___Z7__REV16j
   Definitions
      At line 447 in file C:\\Keil_v5\\ARM\\PACK\\ARM\\CMSIS\\5.0.1\\CMSIS\\Inc
lude\\cmsis_armcc.h
   Uses
      At line 3 in file cores\\Stream.cpp
Comment: __asm___10_Stream_cpp_dbd866df___Z7__REV16j used once
|.rev16_text| 00000000

Symbol: |.rev16_text|
   Definitions
      At line 1 in file cores\\Stream.cpp
   Uses
      None
Comment: |.rev16_text| unused
2 symbols



ARM Macro Assembler    Page 1 Alphabetic symbol ordering
Relocatable symbols

__asm___10_Stream_cpp_dbd866df___Z7__REVSHi 00000000

Symbol: __asm___10_Stream_cpp_dbd866df___Z7__REVSHi
   Definitions
      At line 462 in file C:\\Keil_v5\\ARM\\PACK\\ARM\\CMSIS\\5.0.1\\CMSIS\\Inc
lude\\cmsis_armcc.h
   Uses
      At line 454 in file C:\\Keil_v5\\ARM\\PACK\\ARM\\CMSIS\\5.0.1\\CMSIS\\Inc
lude\\cmsis_armcc.h
Comment: __asm___10_Stream_cpp_dbd866df___Z7__REVSHi used once
|.revsh_text| 00000000

Symbol: |.revsh_text|
   Definitions
      At line 452 in file C:\\Keil_v5\\ARM\\PACK\\ARM\\CMSIS\\5.0.1\\CMSIS\\Inc
lude\\cmsis_armcc.h
   Uses
      None
Comment: |.revsh_text| unused
2 symbols



ARM Macro Assembler    Page 1 Alphabetic symbol ordering
Relocatable symbols

__asm___10_Stream_cpp_dbd866df___Z5__RRXj 00000000

Symbol: __asm___10_Stream_cpp_dbd866df___Z5__RRXj
   Definitions
      At line 649 in file C:\\Keil_v5\\ARM\\PACK\\ARM\\CMSIS\\5.0.1\\CMSIS\\Inc
lude\\cmsis_armcc.h
   Uses
      At line 469 in file C:\\Keil_v5\\ARM\\PACK\\ARM\\CMSIS\\5.0.1\\CMSIS\\Inc
lude\\cmsis_armcc.h
Comment: __asm___10_Stream_cpp_dbd866df___Z5__RRXj used once
|.rrx_text| 00000000

Symbol: |.rrx_text|
   Definitions
      At line 467 in file C:\\Keil_v5\\ARM\\PACK\\ARM\\CMSIS\\5.0.1\\CMSIS\\Inc
lude\\cmsis_armcc.h
   Uses
      None
Comment: |.rrx_text| unused
2 symbols



ARM Macro Assembler    Page 1 Alphabetic symbol ordering
External symbols

_ZN6String6concatEc 00000000

Symbol: _ZN6String6concatEc
   Definitions
      At line 684 in file C:\\Keil_v5\\ARM\\PACK\\ARM\\CMSIS\\5.0.1\\CMSIS\\Inc
lude\\cmsis_armcc.h
   Uses
      At line 1019 in file .\objects\stream.s
Comment: _ZN6String6concatEc used once
_ZN6StringC1EPKc 00000000

Symbol: _ZN6StringC1EPKc
   Definitions
      At line 683 in file C:\\Keil_v5\\ARM\\PACK\\ARM\\CMSIS\\5.0.1\\CMSIS\\Inc
lude\\cmsis_armcc.h
   Uses
      At line 260 in file .\objects\stream.s
      At line 414 in file .\objects\stream.s

_ZTI6Stream 00000000

Symbol: _ZTI6Stream
   Definitions
      At line 685 in file C:\\Keil_v5\\ARM\\PACK\\ARM\\CMSIS\\5.0.1\\CMSIS\\Inc
lude\\cmsis_armcc.h
   Uses
      At line 957 in file .\objects\stream.s
      At line 969 in file .\objects\stream.s
      At line 981 in file .\objects\stream.s
      At line 993 in file .\objects\stream.s
      At line 1005 in file .\objects\stream.s

__aeabi_d2f 00000000

Symbol: __aeabi_d2f
   Definitions
      At line 682 in file C:\\Keil_v5\\ARM\\PACK\\ARM\\CMSIS\\5.0.1\\CMSIS\\Inc
lude\\cmsis_armcc.h
   Uses
      At line 210 in file .\objects\stream.s
Comment: __aeabi_d2f used once
__aeabi_dmul 00000000

Symbol: __aeabi_dmul
   Definitions
      At line 681 in file C:\\Keil_v5\\ARM\\PACK\\ARM\\CMSIS\\5.0.1\\CMSIS\\Inc
lude\\cmsis_armcc.h
   Uses
      At line 208 in file .\objects\stream.s
Comment: __aeabi_dmul used once
__aeabi_f2d 00000000

Symbol: __aeabi_f2d
   Definitions
      At line 680 in file C:\\Keil_v5\\ARM\\PACK\\ARM\\CMSIS\\5.0.1\\CMSIS\\Inc
lude\\cmsis_armcc.h
   Uses
      At line 204 in file .\objects\stream.s
Comment: __aeabi_f2d used once



ARM Macro Assembler    Page 2 Alphabetic symbol ordering
External symbols

__aeabi_memclr4 00000000

Symbol: __aeabi_memclr4
   Definitions
      At line 678 in file C:\\Keil_v5\\ARM\\PACK\\ARM\\CMSIS\\5.0.1\\CMSIS\\Inc
lude\\cmsis_armcc.h
   Uses
      At line 726 in file .\objects\stream.s
Comment: __aeabi_memclr4 used once
millis 00000000

Symbol: millis
   Definitions
      At line 677 in file C:\\Keil_v5\\ARM\\PACK\\ARM\\CMSIS\\5.0.1\\CMSIS\\Inc
lude\\cmsis_armcc.h
   Uses
      At line 779 in file .\objects\stream.s
      At line 794 in file .\objects\stream.s
      At line 810 in file .\objects\stream.s
      At line 825 in file .\objects\stream.s

strlen 00000000

Symbol: strlen
   Definitions
      At line 679 in file C:\\Keil_v5\\ARM\\PACK\\ARM\\CMSIS\\5.0.1\\CMSIS\\Inc
lude\\cmsis_armcc.h
   Uses
      At line 450 in file .\objects\stream.s
      At line 679 in file .\objects\stream.s
      At line 682 in file .\objects\stream.s

|Lib$$Request$$armlib| 00000000

Symbol: |Lib$$Request$$armlib|
   Definitions
      At line 675 in file C:\\Keil_v5\\ARM\\PACK\\ARM\\CMSIS\\5.0.1\\CMSIS\\Inc
lude\\cmsis_armcc.h
   Uses
      None
Comment: |Lib$$Request$$armlib| unused
|Lib$$Request$$cpplib| 00000000

Symbol: |Lib$$Request$$cpplib|
   Definitions
      At line 676 in file C:\\Keil_v5\\ARM\\PACK\\ARM\\CMSIS\\5.0.1\\CMSIS\\Inc
lude\\cmsis_armcc.h
   Uses
      None
Comment: |Lib$$Request$$cpplib| unused
11 symbols
493 symbols in table
