


ARM Macro Assembler    Page 1 


    1 00000000         ; generated by Component: ARM Compiler 5.06 update 5 (bu
                       ild 528) Tool: ArmCC [4d3621]
    2 00000000         ; commandline ArmCC [--cpp --split_sections --debug -c -
                       S -o.\objects\wmath.s --depend=.\objects\wmath.d --cpu=C
                       ortex-M4.fp --apcs=interwork -O0 --diag_suppress=9931 -I
                       .\cores -I.\RTE\Device\XMC4700-F144x2048 -I.\RTE\_Target
                       _1 -IC:\Keil_v5\ARM\PACK\ARM\CMSIS\5.0.1\CMSIS\Include -
                       IC:\Keil_v5\ARM\PACK\Infineon\XMC4000_DFP\2.9.1\Device\X
                       MC4700_series\Include -IC:\Keil_v5\ARM\PACK\Infineon\XMC
                       4000_DFP\2.9.1\Device\XMClib\inc -IC:\Keil_v5\ARM\PACK\I
                       nfineon\XMC4000_DFP\2.9.1\RTE_Driver -D__UVISION_VERSION
                       =524 -D_RTE_ -DXMC4700_F144x2048 --omf_browse=.\objects\
                       wmath.crf cores\WMath.cpp]
    3 00000000                 THUMB
    4 00000000                 REQUIRE8
    5 00000000                 PRESERVE8
    6 00000000         
    7 00000000                 AREA             ||i._Z10randomSeedj||, CODE, RE
ADONLY, ALIGN=1
    8 00000000         
    9 00000000         _Z10randomSeedj
                               PROC
   10 00000000 B510            PUSH             {r4,lr}
   11 00000002 4604            MOV              r4,r0
   12 00000004 B114            CBZ              r4,|L0.12|
   13 00000006 4620            MOV              r0,r4
   14 00000008 F7FF FFFE       BL               srand
   15 0000000C         |L0.12|
   16 0000000C BD10            POP              {r4,pc}
   17 0000000E                 ENDP
   18 0000000E         
   19 0000000E         
   20 0000000E                 AREA             ||i._Z6randoml||, CODE, READONL
Y, ALIGN=1
   21 00000000         
   22 00000000         _Z6randoml
                               PROC
   23 00000000 B510            PUSH             {r4,lr}
   24 00000002 4604            MOV              r4,r0
   25 00000004 B90C            CBNZ             r4,|L1.10|
   26 00000006 2000            MOVS             r0,#0
   27 00000008         |L1.8|
   28 00000008 BD10            POP              {r4,pc}
   29 0000000A         |L1.10|
   30 0000000A F7FF FFFE       BL               rand
   31 0000000E FB90 F1F4       SDIV             r1,r0,r4
   32 00000012 FB04 0011       MLS              r0,r4,r1,r0
   33 00000016 E7F7            B                |L1.8|
   34 00000018                 ENDP
   35 00000018         
   36 00000018         
   37 00000018                 AREA             ||i._Z6randomll||, CODE, READON
LY, ALIGN=1
   38 00000000         
   39 00000000         _Z6randomll
                               PROC
   40 00000000 B570            PUSH             {r4-r6,lr}
   41 00000002 4604            MOV              r4,r0
   42 00000004 460D            MOV              r5,r1



ARM Macro Assembler    Page 2 


   43 00000006 42AC            CMP              r4,r5
   44 00000008 DB01            BLT              |L2.14|
   45 0000000A 4620            MOV              r0,r4
   46 0000000C         |L2.12|
   47 0000000C BD70            POP              {r4-r6,pc}
   48 0000000E         |L2.14|
   49 0000000E 1B2E            SUBS             r6,r5,r4
   50 00000010 4630            MOV              r0,r6
   51 00000012 F7FF FFFE       BL               _Z6randoml
   52 00000016 4420            ADD              r0,r0,r4
   53 00000018 E7F8            B                |L2.12|
   54 0000001A                 ENDP
   55 0000001A         
   56 0000001A         
   57 0000001A                 AREA             ||i._Z8makeWordhh||, CODE, READ
ONLY, ALIGN=1
   58 00000000         
   59 00000000         _Z8makeWordhh
                               PROC
   60 00000000 4602            MOV              r2,r0
   61 00000002 EA41 2002       ORR              r0,r1,r2,LSL #8
   62 00000006 4770            BX               lr
   63 00000008                 ENDP
   64 00000008         
   65 00000008         
   66 00000008                 AREA             ||i._Z8makeWordt||, CODE, READO
NLY, ALIGN=1
   67 00000000         
   68 00000000         _Z8makeWordt
                               PROC
   69 00000000 4770            BX               lr
   70 00000002                 ENDP
   71 00000002         
   72 00000002         
   73 00000002                 AREA             ||.ARM.exidx||, LINKORDER=||i._
Z10randomSeedj||, DATA, READONLY, SECTYPE={SHT_ARM_EXIDX}, ALIGN=2
   74 00000000         
   75 00000000 00000000        DCD              0x00000000
   76 00000004                 RELOC            42, ||i._Z10randomSeedj||
   77 00000004 00000001        DCD              0x00000001
   78 00000008         
   79 00000008                 AREA             ||area_number.6||, LINKORDER=||
i._Z6randoml||, DATA, READONLY, SECTYPE={SHT_ARM_EXIDX}, ALIGN=2
   80 00000000         
   81 00000000                 EXPORTAS         ||area_number.6||, ||.ARM.exidx
||
   82 00000000 00000000        DCD              0x00000000
   83 00000004                 RELOC            42, ||i._Z6randoml||
   84 00000004 00000001        DCD              0x00000001
   85 00000008         
   86 00000008                 AREA             ||area_number.7||, LINKORDER=||
i._Z6randomll||, DATA, READONLY, SECTYPE={SHT_ARM_EXIDX}, ALIGN=2
   87 00000000         
   88 00000000                 EXPORTAS         ||area_number.7||, ||.ARM.exidx
||
   89 00000000 00000000        DCD              0x00000000
   90 00000004                 RELOC            42, ||i._Z6randomll||
   91 00000004 00000001        DCD              0x00000001
   92 00000008         



ARM Macro Assembler    Page 3 


   93 00000008                 AREA             ||area_number.8||, LINKORDER=||
i._Z8makeWordt||, DATA, READONLY, SECTYPE={SHT_ARM_EXIDX}, ALIGN=2
   94 00000000         
   95 00000000                 EXPORTAS         ||area_number.8||, ||.ARM.exidx
||
   96 00000000 00000000        DCD              0x00000000
   97 00000004                 RELOC            42, ||i._Z8makeWordt||
   98 00000004 00000001        DCD              0x00000001
   99 00000008         
  100 00000008                 AREA             ||area_number.9||, LINKORDER=||
i._Z8makeWordhh||, DATA, READONLY, SECTYPE={SHT_ARM_EXIDX}, ALIGN=2
  101 00000000         
  102 00000000                 EXPORTAS         ||area_number.9||, ||.ARM.exidx
||
  103 00000000 00000000        DCD              0x00000000
  104 00000004                 RELOC            42, ||i._Z8makeWordhh||
  105 00000004 00000001        DCD              0x00000001
  106 00000008         
  107 00000008                 AREA             ||.arm_vfe_header||, DATA, READ
ONLY, NOALLOC, ALIGN=2
  108 00000000         
  109 00000000 00000000        DCD              0x00000000
  110 00000004         
  111 00000004                 EXPORT           _Z10randomSeedj [CODE]
  112 00000004                 EXPORT           _Z6randoml [CODE]
  113 00000004                 EXPORT           _Z6randomll [CODE]
  114 00000004                 EXPORT           _Z8makeWordhh [CODE]
  115 00000004                 EXPORT           _Z8makeWordt [CODE]
  116 00000004         
  117 00000004                 IMPORT           ||Lib$$Request$$armlib|| [CODE,
WEAK]
  118 00000004                 IMPORT           ||Lib$$Request$$cpplib|| [CODE,
WEAK]
  119 00000004                 IMPORT           srand [CODE]
  120 00000004                 IMPORT           rand [CODE]
  121 00000004         
  122 00000004                 ATTR             FILESCOPE
  123 00000004                 ATTR             SETVALUE Tag_ABI_PCS_wchar_t,2
  124 00000004                 ATTR             SETVALUE Tag_ABI_enum_size,1
  125 00000004                 ATTR             SETVALUE Tag_ABI_optimization_g
oals,6
  126 00000004                 ATTR             SETSTRING Tag_conformance,"2.09
"
  127 00000004                 ATTR             SETVALUE AV,6,0
  128 00000004                 ATTR             SETVALUE AV,18,1
  129 00000004         
  130 00000004                 ASSERT           {ENDIAN} = "little"
  131 00000004                 ASSERT           {INTER} = {TRUE}
  132 00000004                 ASSERT           {ROPI} = {FALSE}
  133 00000004                 ASSERT           {RWPI} = {FALSE}
  134 00000004                 ASSERT           {IEEE_FULL} = {FALSE}
  135 00000004                 ASSERT           {IEEE_PART} = {FALSE}
  136 00000004                 ASSERT           {IEEE_JAVA} = {FALSE}
  137 00000004                 END
Command Line: --debug --xref --diag_suppress=9931 --cpu=Cortex-M4.fp --apcs=int
erwork -o.\objects\wmath.o -I.\cores -I.\RTE\Device\XMC4700-F144x2048 -I.\RTE\_
Target_1 -IC:\Keil_v5\ARM\PACK\ARM\CMSIS\5.0.1\CMSIS\Include -IC:\Keil_v5\ARM\P
ACK\Infineon\XMC4000_DFP\2.9.1\Device\XMC4700_series\Include -IC:\Keil_v5\ARM\P
ACK\Infineon\XMC4000_DFP\2.9.1\Device\XMClib\inc -IC:\Keil_v5\ARM\PACK\Infineon



ARM Macro Assembler    Page 4 


\XMC4000_DFP\2.9.1\RTE_Driver --predefine="__UVISION_VERSION SETA 524" --predef
ine="_RTE_ SETA 1" --predefine="XMC4700_F144x2048 SETA 1" --list=.\listings\wma
th.lst .\objects\wmath.s



ARM Macro Assembler    Page 1 Alphabetic symbol ordering
Relocatable symbols

L0.12 0000000C

Symbol: L0.12
   Definitions
      At line 15 in file .\objects\wmath.s
   Uses
      At line 12 in file .\objects\wmath.s
Comment: L0.12 used once
_Z10randomSeedj 00000000

Symbol: _Z10randomSeedj
   Definitions
      At line 9 in file .\objects\wmath.s
   Uses
      At line 111 in file .\objects\wmath.s
Comment: _Z10randomSeedj used once
|i._Z10randomSeedj| 00000000

Symbol: |i._Z10randomSeedj|
   Definitions
      At line 7 in file .\objects\wmath.s
   Uses
      At line 76 in file .\objects\wmath.s
Comment: |i._Z10randomSeedj| used once
3 symbols



ARM Macro Assembler    Page 1 Alphabetic symbol ordering
Relocatable symbols

L1.10 0000000A

Symbol: L1.10
   Definitions
      At line 29 in file .\objects\wmath.s
   Uses
      At line 25 in file .\objects\wmath.s
Comment: L1.10 used once
L1.8 00000008

Symbol: L1.8
   Definitions
      At line 27 in file .\objects\wmath.s
   Uses
      At line 33 in file .\objects\wmath.s
Comment: L1.8 used once
_Z6randoml 00000000

Symbol: _Z6randoml
   Definitions
      At line 22 in file .\objects\wmath.s
   Uses
      At line 51 in file .\objects\wmath.s
      At line 112 in file .\objects\wmath.s

|i._Z6randoml| 00000000

Symbol: |i._Z6randoml|
   Definitions
      At line 20 in file .\objects\wmath.s
   Uses
      At line 83 in file .\objects\wmath.s
Comment: |i._Z6randoml| used once
4 symbols



ARM Macro Assembler    Page 1 Alphabetic symbol ordering
Relocatable symbols

L2.12 0000000C

Symbol: L2.12
   Definitions
      At line 46 in file .\objects\wmath.s
   Uses
      At line 53 in file .\objects\wmath.s
Comment: L2.12 used once
L2.14 0000000E

Symbol: L2.14
   Definitions
      At line 48 in file .\objects\wmath.s
   Uses
      At line 44 in file .\objects\wmath.s
Comment: L2.14 used once
_Z6randomll 00000000

Symbol: _Z6randomll
   Definitions
      At line 39 in file .\objects\wmath.s
   Uses
      At line 113 in file .\objects\wmath.s
Comment: _Z6randomll used once
|i._Z6randomll| 00000000

Symbol: |i._Z6randomll|
   Definitions
      At line 37 in file .\objects\wmath.s
   Uses
      At line 90 in file .\objects\wmath.s
Comment: |i._Z6randomll| used once
4 symbols



ARM Macro Assembler    Page 1 Alphabetic symbol ordering
Relocatable symbols

_Z8makeWordhh 00000000

Symbol: _Z8makeWordhh
   Definitions
      At line 59 in file .\objects\wmath.s
   Uses
      At line 114 in file .\objects\wmath.s
Comment: _Z8makeWordhh used once
|i._Z8makeWordhh| 00000000

Symbol: |i._Z8makeWordhh|
   Definitions
      At line 57 in file .\objects\wmath.s
   Uses
      At line 104 in file .\objects\wmath.s
Comment: |i._Z8makeWordhh| used once
2 symbols



ARM Macro Assembler    Page 1 Alphabetic symbol ordering
Relocatable symbols

_Z8makeWordt 00000000

Symbol: _Z8makeWordt
   Definitions
      At line 68 in file .\objects\wmath.s
   Uses
      At line 115 in file .\objects\wmath.s
Comment: _Z8makeWordt used once
|i._Z8makeWordt| 00000000

Symbol: |i._Z8makeWordt|
   Definitions
      At line 66 in file .\objects\wmath.s
   Uses
      At line 97 in file .\objects\wmath.s
Comment: |i._Z8makeWordt| used once
2 symbols



ARM Macro Assembler    Page 1 Alphabetic symbol ordering
Relocatable symbols

|.ARM.exidx| 00000000

Symbol: |.ARM.exidx|
   Definitions
      At line 73 in file .\objects\wmath.s
   Uses
      None
Comment: |.ARM.exidx| unused
1 symbol



ARM Macro Assembler    Page 1 Alphabetic symbol ordering
Relocatable symbols

|area_number.6| 00000000

Symbol: |area_number.6|
   Definitions
      At line 79 in file .\objects\wmath.s
   Uses
      None
Comment: |area_number.6| unused
1 symbol



ARM Macro Assembler    Page 1 Alphabetic symbol ordering
Relocatable symbols

|area_number.7| 00000000

Symbol: |area_number.7|
   Definitions
      At line 86 in file .\objects\wmath.s
   Uses
      None
Comment: |area_number.7| unused
1 symbol



ARM Macro Assembler    Page 1 Alphabetic symbol ordering
Relocatable symbols

|area_number.8| 00000000

Symbol: |area_number.8|
   Definitions
      At line 93 in file .\objects\wmath.s
   Uses
      None
Comment: |area_number.8| unused
1 symbol



ARM Macro Assembler    Page 1 Alphabetic symbol ordering
Relocatable symbols

|area_number.9| 00000000

Symbol: |area_number.9|
   Definitions
      At line 100 in file .\objects\wmath.s
   Uses
      None
Comment: |area_number.9| unused
1 symbol



ARM Macro Assembler    Page 1 Alphabetic symbol ordering
Relocatable symbols

|.arm_vfe_header| 00000000

Symbol: |.arm_vfe_header|
   Definitions
      At line 107 in file .\objects\wmath.s
   Uses
      None
Comment: |.arm_vfe_header| unused
1 symbol



ARM Macro Assembler    Page 1 Alphabetic symbol ordering
External symbols

rand 00000000

Symbol: rand
   Definitions
      At line 120 in file .\objects\wmath.s
   Uses
      At line 30 in file .\objects\wmath.s
Comment: rand used once
srand 00000000

Symbol: srand
   Definitions
      At line 119 in file .\objects\wmath.s
   Uses
      At line 14 in file .\objects\wmath.s
Comment: srand used once
|Lib$$Request$$armlib| 00000000

Symbol: |Lib$$Request$$armlib|
   Definitions
      At line 117 in file .\objects\wmath.s
   Uses
      None
Comment: |Lib$$Request$$armlib| unused
|Lib$$Request$$cpplib| 00000000

Symbol: |Lib$$Request$$cpplib|
   Definitions
      At line 118 in file .\objects\wmath.s
   Uses
      None
Comment: |Lib$$Request$$cpplib| unused
4 symbols
359 symbols in table
