


ARM Macro Assembler    Page 1 


    1 00000000         ; generated by Component: ARM Compiler 5.06 update 5 (bu
                       ild 528) Tool: ArmCC [4d3621]
    2 00000000         ; commandline ArmCC [--cpp --split_sections --debug -c -
                       S -o.\objects\new.s --depend=.\objects\new.d --cpu=Corte
                       x-M4.fp --apcs=interwork -O0 --diag_suppress=9931 -I.\co
                       res -I.\RTE\Device\XMC4700-F144x2048 -I.\RTE\_Target_1 -
                       IC:\Keil_v5\ARM\PACK\ARM\CMSIS\5.0.1\CMSIS\Include -IC:\
                       Keil_v5\ARM\PACK\Infineon\XMC4000_DFP\2.9.1\Device\XMC47
                       00_series\Include -IC:\Keil_v5\ARM\PACK\Infineon\XMC4000
                       _DFP\2.9.1\Device\XMClib\inc -IC:\Keil_v5\ARM\PACK\Infin
                       eon\XMC4000_DFP\2.9.1\RTE_Driver -D__UVISION_VERSION=524
                        -D_RTE_ -DXMC4700_F144x2048 --omf_browse=.\objects\new.
                       crf cores\new.cpp]
    3 00000000                 THUMB
    4 00000000                 REQUIRE8
    5 00000000                 PRESERVE8
    6 00000000         
    7 00000000                 AREA             ||i._ZdaPv||, CODE, READONLY, A
LIGN=1
    8 00000000         
    9 00000000         _ZdaPv  PROC
   10 00000000 B510            PUSH             {r4,lr}
   11 00000002 4604            MOV              r4,r0
   12 00000004 4620            MOV              r0,r4
   13 00000006 F7FF FFFE       BL               free
   14 0000000A BD10            POP              {r4,pc}
   15 0000000C                 ENDP
   16 0000000C         
   17 0000000C         
   18 0000000C                 AREA             ||i._ZdlPv||, CODE, READONLY, A
LIGN=1
   19 00000000         
   20 00000000         _ZdlPv  PROC
   21 00000000 B510            PUSH             {r4,lr}
   22 00000002 4604            MOV              r4,r0
   23 00000004 4620            MOV              r0,r4
   24 00000006 F7FF FFFE       BL               free
   25 0000000A BD10            POP              {r4,pc}
   26 0000000C                 ENDP
   27 0000000C         
   28 0000000C         
   29 0000000C                 AREA             ||i._Znaj||, CODE, READONLY, AL
IGN=1
   30 00000000         
   31 00000000         _Znaj   PROC
   32 00000000 B510            PUSH             {r4,lr}
   33 00000002 4604            MOV              r4,r0
   34 00000004 4620            MOV              r0,r4
   35 00000006 F7FF FFFE       BL               malloc
   36 0000000A BD10            POP              {r4,pc}
   37 0000000C                 ENDP
   38 0000000C         
   39 0000000C         
   40 0000000C                 AREA             ||i._Znwj||, CODE, READONLY, AL
IGN=1
   41 00000000         
   42 00000000         _Znwj   PROC
   43 00000000 B510            PUSH             {r4,lr}
   44 00000002 4604            MOV              r4,r0



ARM Macro Assembler    Page 2 


   45 00000004 4620            MOV              r0,r4
   46 00000006 F7FF FFFE       BL               malloc
   47 0000000A BD10            POP              {r4,pc}
   48 0000000C                 ENDP
   49 0000000C         
   50 0000000C         
   51 0000000C                 AREA             ||.ARM.exidx||, LINKORDER=||i._
Znwj||, DATA, READONLY, SECTYPE={SHT_ARM_EXIDX}, ALIGN=2
   52 00000000         
   53 00000000 00000000        DCD              0x00000000
   54 00000004                 RELOC            42, ||i._Znwj||
   55 00000004 00000001        DCD              0x00000001
   56 00000008         
   57 00000008                 AREA             ||area_number.5||, LINKORDER=||
i._Znaj||, DATA, READONLY, SECTYPE={SHT_ARM_EXIDX}, ALIGN=2
   58 00000000         
   59 00000000                 EXPORTAS         ||area_number.5||, ||.ARM.exidx
||
   60 00000000 00000000        DCD              0x00000000
   61 00000004                 RELOC            42, ||i._Znaj||
   62 00000004 00000001        DCD              0x00000001
   63 00000008         
   64 00000008                 AREA             ||area_number.6||, LINKORDER=||
i._ZdlPv||, DATA, READONLY, SECTYPE={SHT_ARM_EXIDX}, ALIGN=2
   65 00000000         
   66 00000000                 EXPORTAS         ||area_number.6||, ||.ARM.exidx
||
   67 00000000 00000000        DCD              0x00000000
   68 00000004                 RELOC            42, ||i._ZdlPv||
   69 00000004 00000001        DCD              0x00000001
   70 00000008         
   71 00000008                 AREA             ||area_number.7||, LINKORDER=||
i._ZdaPv||, DATA, READONLY, SECTYPE={SHT_ARM_EXIDX}, ALIGN=2
   72 00000000         
   73 00000000                 EXPORTAS         ||area_number.7||, ||.ARM.exidx
||
   74 00000000 00000000        DCD              0x00000000
   75 00000004                 RELOC            42, ||i._ZdaPv||
   76 00000004 00000001        DCD              0x00000001
   77 00000008         
   78 00000008                 AREA             ||.arm_vfe_header||, DATA, READ
ONLY, NOALLOC, ALIGN=2
   79 00000000         
   80 00000000 00000000        DCD              0x00000000
   81 00000004         
   82 00000004                 EXPORT           _ZdaPv [CODE]
   83 00000004                 EXPORT           _ZdlPv [CODE]
   84 00000004                 EXPORT           _Znaj [CODE]
   85 00000004                 EXPORT           _Znwj [CODE]
   86 00000004         
   87 00000004                 IMPORT           ||Lib$$Request$$armlib|| [CODE,
WEAK]
   88 00000004                 IMPORT           ||Lib$$Request$$cpplib|| [CODE,
WEAK]
   89 00000004                 IMPORT           malloc [CODE]
   90 00000004                 IMPORT           free [CODE]
   91 00000004         
   92 00000004                 ATTR             FILESCOPE
   93 00000004                 ATTR             SETVALUE Tag_ABI_PCS_wchar_t,2



ARM Macro Assembler    Page 3 


   94 00000004                 ATTR             SETVALUE Tag_ABI_enum_size,1
   95 00000004                 ATTR             SETVALUE Tag_ABI_optimization_g
oals,6
   96 00000004                 ATTR             SETSTRING Tag_conformance,"2.09
"
   97 00000004                 ATTR             SETVALUE AV,6,0
   98 00000004                 ATTR             SETVALUE AV,18,1
   99 00000004         
  100 00000004                 ASSERT           {ENDIAN} = "little"
  101 00000004                 ASSERT           {INTER} = {TRUE}
  102 00000004                 ASSERT           {ROPI} = {FALSE}
  103 00000004                 ASSERT           {RWPI} = {FALSE}
  104 00000004                 ASSERT           {IEEE_FULL} = {FALSE}
  105 00000004                 ASSERT           {IEEE_PART} = {FALSE}
  106 00000004                 ASSERT           {IEEE_JAVA} = {FALSE}
  107 00000004                 END
Command Line: --debug --xref --diag_suppress=9931 --cpu=Cortex-M4.fp --apcs=int
erwork -o.\objects\new.o -I.\cores -I.\RTE\Device\XMC4700-F144x2048 -I.\RTE\_Ta
rget_1 -IC:\Keil_v5\ARM\PACK\ARM\CMSIS\5.0.1\CMSIS\Include -IC:\Keil_v5\ARM\PAC
K\Infineon\XMC4000_DFP\2.9.1\Device\XMC4700_series\Include -IC:\Keil_v5\ARM\PAC
K\Infineon\XMC4000_DFP\2.9.1\Device\XMClib\inc -IC:\Keil_v5\ARM\PACK\Infineon\X
MC4000_DFP\2.9.1\RTE_Driver --predefine="__UVISION_VERSION SETA 524" --predefin
e="_RTE_ SETA 1" --predefine="XMC4700_F144x2048 SETA 1" --list=.\listings\new.l
st .\objects\new.s



ARM Macro Assembler    Page 1 Alphabetic symbol ordering
Relocatable symbols

_ZdaPv 00000000

Symbol: _ZdaPv
   Definitions
      At line 9 in file .\objects\new.s
   Uses
      At line 82 in file .\objects\new.s
Comment: _ZdaPv used once
|i._ZdaPv| 00000000

Symbol: |i._ZdaPv|
   Definitions
      At line 7 in file .\objects\new.s
   Uses
      At line 75 in file .\objects\new.s
Comment: |i._ZdaPv| used once
2 symbols



ARM Macro Assembler    Page 1 Alphabetic symbol ordering
Relocatable symbols

_ZdlPv 00000000

Symbol: _ZdlPv
   Definitions
      At line 20 in file .\objects\new.s
   Uses
      At line 83 in file .\objects\new.s
Comment: _ZdlPv used once
|i._ZdlPv| 00000000

Symbol: |i._ZdlPv|
   Definitions
      At line 18 in file .\objects\new.s
   Uses
      At line 68 in file .\objects\new.s
Comment: |i._ZdlPv| used once
2 symbols



ARM Macro Assembler    Page 1 Alphabetic symbol ordering
Relocatable symbols

_Znaj 00000000

Symbol: _Znaj
   Definitions
      At line 31 in file .\objects\new.s
   Uses
      At line 84 in file .\objects\new.s
Comment: _Znaj used once
|i._Znaj| 00000000

Symbol: |i._Znaj|
   Definitions
      At line 29 in file .\objects\new.s
   Uses
      At line 61 in file .\objects\new.s
Comment: |i._Znaj| used once
2 symbols



ARM Macro Assembler    Page 1 Alphabetic symbol ordering
Relocatable symbols

_Znwj 00000000

Symbol: _Znwj
   Definitions
      At line 42 in file .\objects\new.s
   Uses
      At line 85 in file .\objects\new.s
Comment: _Znwj used once
|i._Znwj| 00000000

Symbol: |i._Znwj|
   Definitions
      At line 40 in file .\objects\new.s
   Uses
      At line 54 in file .\objects\new.s
Comment: |i._Znwj| used once
2 symbols



ARM Macro Assembler    Page 1 Alphabetic symbol ordering
Relocatable symbols

|.ARM.exidx| 00000000

Symbol: |.ARM.exidx|
   Definitions
      At line 51 in file .\objects\new.s
   Uses
      None
Comment: |.ARM.exidx| unused
1 symbol



ARM Macro Assembler    Page 1 Alphabetic symbol ordering
Relocatable symbols

|area_number.5| 00000000

Symbol: |area_number.5|
   Definitions
      At line 57 in file .\objects\new.s
   Uses
      None
Comment: |area_number.5| unused
1 symbol



ARM Macro Assembler    Page 1 Alphabetic symbol ordering
Relocatable symbols

|area_number.6| 00000000

Symbol: |area_number.6|
   Definitions
      At line 64 in file .\objects\new.s
   Uses
      None
Comment: |area_number.6| unused
1 symbol



ARM Macro Assembler    Page 1 Alphabetic symbol ordering
Relocatable symbols

|area_number.7| 00000000

Symbol: |area_number.7|
   Definitions
      At line 71 in file .\objects\new.s
   Uses
      None
Comment: |area_number.7| unused
1 symbol



ARM Macro Assembler    Page 1 Alphabetic symbol ordering
Relocatable symbols

|.arm_vfe_header| 00000000

Symbol: |.arm_vfe_header|
   Definitions
      At line 78 in file .\objects\new.s
   Uses
      None
Comment: |.arm_vfe_header| unused
1 symbol



ARM Macro Assembler    Page 1 Alphabetic symbol ordering
External symbols

free 00000000

Symbol: free
   Definitions
      At line 90 in file .\objects\new.s
   Uses
      At line 13 in file .\objects\new.s
      At line 24 in file .\objects\new.s

malloc 00000000

Symbol: malloc
   Definitions
      At line 89 in file .\objects\new.s
   Uses
      At line 35 in file .\objects\new.s
      At line 46 in file .\objects\new.s

|Lib$$Request$$armlib| 00000000

Symbol: |Lib$$Request$$armlib|
   Definitions
      At line 87 in file .\objects\new.s
   Uses
      None
Comment: |Lib$$Request$$armlib| unused
|Lib$$Request$$cpplib| 00000000

Symbol: |Lib$$Request$$cpplib|
   Definitions
      At line 88 in file .\objects\new.s
   Uses
      None
Comment: |Lib$$Request$$cpplib| unused
4 symbols
351 symbols in table
