


ARM Macro Assembler    Page 1 


    1 00000000         ; generated by Component: ARM Compiler 5.06 update 5 (bu
                       ild 528) Tool: ArmCC [4d3621]
    2 00000000         ; commandline ArmCC [--cpp --split_sections --debug -c -
                       S -o.\objects\wstring.s --depend=.\objects\wstring.d --c
                       pu=Cortex-M4.fp --apcs=interwork -O0 --diag_suppress=993
                       1 -I.\cores -I.\RTE\Device\XMC4700-F144x2048 -I.\RTE\_Ta
                       rget_1 -IC:\Keil_v5\ARM\PACK\ARM\CMSIS\5.0.1\CMSIS\Inclu
                       de -IC:\Keil_v5\ARM\PACK\Infineon\XMC4000_DFP\2.9.1\Devi
                       ce\XMC4700_series\Include -IC:\Keil_v5\ARM\PACK\Infineon
                       \XMC4000_DFP\2.9.1\Device\XMClib\inc -IC:\Keil_v5\ARM\PA
                       CK\Infineon\XMC4000_DFP\2.9.1\RTE_Driver -D__UVISION_VER
                       SION=524 -D_RTE_ -DXMC4700_F144x2048 --omf_browse=.\obje
                       cts\wstring.crf cores\WString.cpp]
    3 00000000                 THUMB
    4 00000000                 REQUIRE8
    5 00000000                 PRESERVE8
    6 00000000         
    7 00000000                 AREA             ||i.NOPS_FOR_USEC||, CODE, READ
ONLY, ALIGN=1
    8 00000000         
    9 00000000         NOPS_FOR_USEC
                               PROC
   10 00000000 BF00            NOP
   11 00000002 BF00            NOP
   12 00000004 BF00            NOP
   13 00000006 BF00            NOP
   14 00000008 BF00            NOP
   15 0000000A BF00            NOP
   16 0000000C BF00            NOP
   17 0000000E BF00            NOP
   18 00000010 BF00            NOP
   19 00000012 BF00            NOP
   20 00000014 BF00            NOP
   21 00000016 BF00            NOP
   22 00000018 BF00            NOP
   23 0000001A BF00            NOP
   24 0000001C BF00            NOP
   25 0000001E BF00            NOP
   26 00000020 BF00            NOP
   27 00000022 BF00            NOP
   28 00000024 BF00            NOP
   29 00000026 BF00            NOP
   30 00000028 BF00            NOP
   31 0000002A BF00            NOP
   32 0000002C BF00            NOP
   33 0000002E BF00            NOP
   34 00000030 BF00            NOP
   35 00000032 BF00            NOP
   36 00000034 BF00            NOP
   37 00000036 BF00            NOP
   38 00000038 BF00            NOP
   39 0000003A BF00            NOP
   40 0000003C BF00            NOP
   41 0000003E BF00            NOP
   42 00000040 BF00            NOP
   43 00000042 BF00            NOP
   44 00000044 BF00            NOP
   45 00000046 BF00            NOP
   46 00000048 BF00            NOP



ARM Macro Assembler    Page 2 


   47 0000004A BF00            NOP
   48 0000004C BF00            NOP
   49 0000004E BF00            NOP
   50 00000050 BF00            NOP
   51 00000052 BF00            NOP
   52 00000054 BF00            NOP
   53 00000056 BF00            NOP
   54 00000058 BF00            NOP
   55 0000005A BF00            NOP
   56 0000005C BF00            NOP
   57 0000005E BF00            NOP
   58 00000060 BF00            NOP
   59 00000062 BF00            NOP
   60 00000064 BF00            NOP
   61 00000066 BF00            NOP
   62 00000068 BF00            NOP
   63 0000006A BF00            NOP
   64 0000006C BF00            NOP
   65 0000006E BF00            NOP
   66 00000070 BF00            NOP
   67 00000072 BF00            NOP
   68 00000074 BF00            NOP
   69 00000076 BF00            NOP
   70 00000078 BF00            NOP
   71 0000007A BF00            NOP
   72 0000007C BF00            NOP
   73 0000007E BF00            NOP
   74 00000080 BF00            NOP
   75 00000082 BF00            NOP
   76 00000084 BF00            NOP
   77 00000086 BF00            NOP
   78 00000088 BF00            NOP
   79 0000008A BF00            NOP
   80 0000008C BF00            NOP
   81 0000008E BF00            NOP
   82 00000090 BF00            NOP
   83 00000092 BF00            NOP
   84 00000094 BF00            NOP
   85 00000096 BF00            NOP
   86 00000098 BF00            NOP
   87 0000009A BF00            NOP
   88 0000009C BF00            NOP
   89 0000009E BF00            NOP
   90 000000A0 BF00            NOP
   91 000000A2 BF00            NOP
   92 000000A4 BF00            NOP
   93 000000A6 BF00            NOP
   94 000000A8 BF00            NOP
   95 000000AA BF00            NOP
   96 000000AC BF00            NOP
   97 000000AE BF00            NOP
   98 000000B0 BF00            NOP
   99 000000B2 BF00            NOP
  100 000000B4 BF00            NOP
  101 000000B6 BF00            NOP
  102 000000B8 BF00            NOP
  103 000000BA BF00            NOP
  104 000000BC BF00            NOP
  105 000000BE BF00            NOP



ARM Macro Assembler    Page 3 


  106 000000C0 BF00            NOP
  107 000000C2 BF00            NOP
  108 000000C4 BF00            NOP
  109 000000C6 BF00            NOP
  110 000000C8 BF00            NOP
  111 000000CA BF00            NOP
  112 000000CC BF00            NOP
  113 000000CE BF00            NOP
  114 000000D0 BF00            NOP
  115 000000D2 BF00            NOP
  116 000000D4 BF00            NOP
  117 000000D6 BF00            NOP
  118 000000D8 BF00            NOP
  119 000000DA BF00            NOP
  120 000000DC BF00            NOP
  121 000000DE BF00            NOP
  122 000000E0 BF00            NOP
  123 000000E2 BF00            NOP
  124 000000E4 BF00            NOP
  125 000000E6 BF00            NOP
  126 000000E8 BF00            NOP
  127 000000EA BF00            NOP
  128 000000EC BF00            NOP
  129 000000EE BF00            NOP
  130 000000F0 BF00            NOP
  131 000000F2 BF00            NOP
  132 000000F4 BF00            NOP
  133 000000F6 BF00            NOP
  134 000000F8 BF00            NOP
  135 000000FA BF00            NOP
  136 000000FC BF00            NOP
  137 000000FE BF00            NOP
  138 00000100 BF00            NOP
  139 00000102 BF00            NOP
  140 00000104 BF00            NOP
  141 00000106 BF00            NOP
  142 00000108 BF00            NOP
  143 0000010A BF00            NOP
  144 0000010C BF00            NOP
  145 0000010E BF00            NOP
  146 00000110 BF00            NOP
  147 00000112 BF00            NOP
  148 00000114 BF00            NOP
  149 00000116 BF00            NOP
  150 00000118 BF00            NOP
  151 0000011A BF00            NOP
  152 0000011C 4770            BX               lr
  153 0000011E                 ENDP
  154 0000011E         
  155 0000011E         
  156 0000011E                 AREA             ||i._ZN6String10invalidateEv||,
 CODE, READONLY, ALIGN=1
  157 00000000         
  158 00000000         _ZN6String10invalidateEv
                               PROC
  159 00000000 B510            PUSH             {r4,lr}
  160 00000002 4604            MOV              r4,r0
  161 00000004 6820            LDR              r0,[r4,#0]
  162 00000006 B110            CBZ              r0,|L1.14|



ARM Macro Assembler    Page 4 


  163 00000008 6820            LDR              r0,[r4,#0]
  164 0000000A F7FF FFFE       BL               free
  165 0000000E         |L1.14|
  166 0000000E 2000            MOVS             r0,#0
  167 00000010 6020            STR              r0,[r4,#0]
  168 00000012 60A0            STR              r0,[r4,#8]
  169 00000014 6060            STR              r0,[r4,#4]
  170 00000016 BD10            POP              {r4,pc}
  171 00000018                 ENDP
  172 00000018         
  173 00000018         
  174 00000018                 AREA             ||i._ZN6String11toLowerCaseEv||
, CODE, READONLY, ALIGN=1
  175 00000000         
  176 00000000         _ZN6String11toLowerCaseEv
                               PROC
  177 00000000 B570            PUSH             {r4-r6,lr}
  178 00000002 4605            MOV              r5,r0
  179 00000004 6828            LDR              r0,[r5,#0]
  180 00000006 B900            CBNZ             r0,|L2.10|
  181 00000008         |L2.8|
  182 00000008 BD70            POP              {r4-r6,pc}
  183 0000000A         |L2.10|
  184 0000000A 682C            LDR              r4,[r5,#0]
  185 0000000C E004            B                |L2.24|
  186 0000000E         |L2.14|
  187 0000000E 7820            LDRB             r0,[r4,#0]
  188 00000010 F7FF FFFE       BL               tolower
  189 00000014 7020            STRB             r0,[r4,#0]
  190 00000016 1C64            ADDS             r4,r4,#1
  191 00000018         |L2.24|
  192 00000018 7820            LDRB             r0,[r4,#0]
  193 0000001A 2800            CMP              r0,#0
  194 0000001C D1F7            BNE              |L2.14|
  195 0000001E BF00            NOP
  196 00000020 E7F2            B                |L2.8|
  197 00000022                 ENDP
  198 00000022         
  199 00000022         
  200 00000022                 AREA             ||i._ZN6String11toUpperCaseEv||
, CODE, READONLY, ALIGN=1
  201 00000000         
  202 00000000         _ZN6String11toUpperCaseEv
                               PROC
  203 00000000 B570            PUSH             {r4-r6,lr}
  204 00000002 4605            MOV              r5,r0
  205 00000004 6828            LDR              r0,[r5,#0]
  206 00000006 B900            CBNZ             r0,|L3.10|
  207 00000008         |L3.8|
  208 00000008 BD70            POP              {r4-r6,pc}
  209 0000000A         |L3.10|
  210 0000000A 682C            LDR              r4,[r5,#0]
  211 0000000C E004            B                |L3.24|
  212 0000000E         |L3.14|
  213 0000000E 7820            LDRB             r0,[r4,#0]
  214 00000010 F7FF FFFE       BL               toupper
  215 00000014 7020            STRB             r0,[r4,#0]
  216 00000016 1C64            ADDS             r4,r4,#1
  217 00000018         |L3.24|



ARM Macro Assembler    Page 5 


  218 00000018 7820            LDRB             r0,[r4,#0]
  219 0000001A 2800            CMP              r0,#0
  220 0000001C D1F7            BNE              |L3.14|
  221 0000001E BF00            NOP
  222 00000020 E7F2            B                |L3.8|
  223 00000022                 ENDP
  224 00000022         
  225 00000022         
  226 00000022                 AREA             ||i._ZN6String12changeBufferEj|
|, CODE, READONLY, ALIGN=1
  227 00000000         
  228 00000000         _ZN6String12changeBufferEj
                               PROC
  229 00000000 B570            PUSH             {r4-r6,lr}
  230 00000002 4604            MOV              r4,r0
  231 00000004 460D            MOV              r5,r1
  232 00000006 1C69            ADDS             r1,r5,#1
  233 00000008 6820            LDR              r0,[r4,#0]
  234 0000000A F7FF FFFE       BL               realloc
  235 0000000E 4606            MOV              r6,r0
  236 00000010 B11E            CBZ              r6,|L4.26|
  237 00000012 6026            STR              r6,[r4,#0]
  238 00000014 6065            STR              r5,[r4,#4]
  239 00000016 2001            MOVS             r0,#1
  240 00000018         |L4.24|
  241 00000018 BD70            POP              {r4-r6,pc}
  242 0000001A         |L4.26|
  243 0000001A 2000            MOVS             r0,#0
  244 0000001C E7FC            B                |L4.24|
  245 0000001E                 ENDP
  246 0000001E         
  247 0000001E         
  248 0000001E                 AREA             ||i._ZN6String4copyEPKcj||, COD
E, READONLY, ALIGN=1
  249 00000000         
  250 00000000         _ZN6String4copyEPKcj
                               PROC
  251 00000000 B570            PUSH             {r4-r6,lr}
  252 00000002 4604            MOV              r4,r0
  253 00000004 460E            MOV              r6,r1
  254 00000006 4615            MOV              r5,r2
  255 00000008 4629            MOV              r1,r5
  256 0000000A 4620            MOV              r0,r4
  257 0000000C F7FF FFFE       BL               _ZN6String7reserveEj
  258 00000010 B920            CBNZ             r0,|L5.28|
  259 00000012 4620            MOV              r0,r4
  260 00000014 F7FF FFFE       BL               _ZN6String10invalidateEv
  261 00000018 4620            MOV              r0,r4
  262 0000001A         |L5.26|
  263 0000001A BD70            POP              {r4-r6,pc}
  264 0000001C         |L5.28|
  265 0000001C 60A5            STR              r5,[r4,#8]
  266 0000001E 4631            MOV              r1,r6
  267 00000020 6820            LDR              r0,[r4,#0]
  268 00000022 F7FF FFFE       BL               strcpy
  269 00000026 4620            MOV              r0,r4
  270 00000028 E7F7            B                |L5.26|
  271 0000002A                 ENDP
  272 0000002A         



ARM Macro Assembler    Page 6 


  273 0000002A         
  274 0000002A                 AREA             ||i._ZN6String4trimEv||, CODE, 
READONLY, ALIGN=1
  275 00000000         
  276 00000000         _ZN6String4trimEv
                               PROC
  277 00000000 B570            PUSH             {r4-r6,lr}
  278 00000002 4604            MOV              r4,r0
  279 00000004 6820            LDR              r0,[r4,#0]
  280 00000006 B108            CBZ              r0,|L6.12|
  281 00000008 68A0            LDR              r0,[r4,#8]
  282 0000000A B900            CBNZ             r0,|L6.14|
  283 0000000C         |L6.12|
  284 0000000C BD70            POP              {r4-r6,pc}
  285 0000000E         |L6.14|
  286 0000000E 6825            LDR              r5,[r4,#0]
  287 00000010 E000            B                |L6.20|
  288 00000012         |L6.18|
  289 00000012 1C6D            ADDS             r5,r5,#1
  290 00000014         |L6.20|
  291 00000014 7828            LDRB             r0,[r5,#0]
  292 00000016 F7FF FFFE       BL               isspace
  293 0000001A 2800            CMP              r0,#0
  294 0000001C D1F9            BNE              |L6.18|
  295 0000001E 68A1            LDR              r1,[r4,#8]
  296 00000020 6820            LDR              r0,[r4,#0]
  297 00000022 4408            ADD              r0,r0,r1
  298 00000024 1E46            SUBS             r6,r0,#1
  299 00000026 E000            B                |L6.42|
  300 00000028         |L6.40|
  301 00000028 1E76            SUBS             r6,r6,#1
  302 0000002A         |L6.42|
  303 0000002A 7830            LDRB             r0,[r6,#0]
  304 0000002C F7FF FFFE       BL               isspace
  305 00000030 B108            CBZ              r0,|L6.54|
  306 00000032 42AE            CMP              r6,r5
  307 00000034 D2F8            BCS              |L6.40|
  308 00000036         |L6.54|
  309 00000036 1C70            ADDS             r0,r6,#1
  310 00000038 1B40            SUBS             r0,r0,r5
  311 0000003A 60A0            STR              r0,[r4,#8]
  312 0000003C 6820            LDR              r0,[r4,#0]
  313 0000003E 42A8            CMP              r0,r5
  314 00000040 D204            BCS              |L6.76|
  315 00000042 4629            MOV              r1,r5
  316 00000044 68A2            LDR              r2,[r4,#8]
  317 00000046 6820            LDR              r0,[r4,#0]
  318 00000048 F7FF FFFE       BL               __aeabi_memcpy
  319 0000004C         |L6.76|
  320 0000004C 2000            MOVS             r0,#0
  321 0000004E 68A2            LDR              r2,[r4,#8]
  322 00000050 6821            LDR              r1,[r4,#0]
  323 00000052 5488            STRB             r0,[r1,r2]
  324 00000054 BF00            NOP
  325 00000056 E7D9            B                |L6.12|
  326 00000058                 ENDP
  327 00000058         
  328 00000058         
  329 00000058                 AREA             ||i._ZN6String6concatEPKc||, CO



ARM Macro Assembler    Page 7 


DE, READONLY, ALIGN=1
  330 00000000         
  331 00000000         _ZN6String6concatEPKc
                               PROC
  332 00000000 B570            PUSH             {r4-r6,lr}
  333 00000002 4605            MOV              r5,r0
  334 00000004 460C            MOV              r4,r1
  335 00000006 B90C            CBNZ             r4,|L7.12|
  336 00000008 2000            MOVS             r0,#0
  337 0000000A         |L7.10|
  338 0000000A BD70            POP              {r4-r6,pc}
  339 0000000C         |L7.12|
  340 0000000C 4620            MOV              r0,r4
  341 0000000E F7FF FFFE       BL               strlen
  342 00000012 4606            MOV              r6,r0
  343 00000014 4632            MOV              r2,r6
  344 00000016 4621            MOV              r1,r4
  345 00000018 4628            MOV              r0,r5
  346 0000001A F7FF FFFE       BL               _ZN6String6concatEPKcj
  347 0000001E E7F4            B                |L7.10|
  348 00000020                 ENDP
  349 00000020         
  350 00000020         
  351 00000020                 AREA             ||i._ZN6String6concatEPKcj||, C
ODE, READONLY, ALIGN=1
  352 00000000         
  353 00000000         _ZN6String6concatEPKcj
                               PROC
  354 00000000 E92D 41F0       PUSH             {r4-r8,lr}
  355 00000004 4604            MOV              r4,r0
  356 00000006 460E            MOV              r6,r1
  357 00000008 4615            MOV              r5,r2
  358 0000000A 68A0            LDR              r0,[r4,#8]
  359 0000000C 1947            ADDS             r7,r0,r5
  360 0000000E B916            CBNZ             r6,|L8.22|
  361 00000010 2000            MOVS             r0,#0
  362 00000012         |L8.18|
  363 00000012 E8BD 81F0       POP              {r4-r8,pc}
  364 00000016         |L8.22|
  365 00000016 B90D            CBNZ             r5,|L8.28|
  366 00000018 2001            MOVS             r0,#1
  367 0000001A E7FA            B                |L8.18|
  368 0000001C         |L8.28|
  369 0000001C 4639            MOV              r1,r7
  370 0000001E 4620            MOV              r0,r4
  371 00000020 F7FF FFFE       BL               _ZN6String7reserveEj
  372 00000024 B908            CBNZ             r0,|L8.42|
  373 00000026 2000            MOVS             r0,#0
  374 00000028 E7F3            B                |L8.18|
  375 0000002A         |L8.42|
  376 0000002A 68A2            LDR              r2,[r4,#8]
  377 0000002C 6821            LDR              r1,[r4,#0]
  378 0000002E 1888            ADDS             r0,r1,r2
  379 00000030 4631            MOV              r1,r6
  380 00000032 F7FF FFFE       BL               strcpy
  381 00000036 60A7            STR              r7,[r4,#8]
  382 00000038 2001            MOVS             r0,#1
  383 0000003A E7EA            B                |L8.18|
  384 0000003C                 ENDP



ARM Macro Assembler    Page 8 


  385 0000003C         
  386 0000003C         
  387 0000003C                 AREA             ||i._ZN6String6concatERKS_||, C
ODE, READONLY, ALIGN=1
  388 00000000         
  389 00000000         _ZN6String6concatERKS_
                               PROC
  390 00000000 B570            PUSH             {r4-r6,lr}
  391 00000002 4605            MOV              r5,r0
  392 00000004 460C            MOV              r4,r1
  393 00000006 4628            MOV              r0,r5
  394 00000008 68A2            LDR              r2,[r4,#8]
  395 0000000A 6821            LDR              r1,[r4,#0]
  396 0000000C F7FF FFFE       BL               _ZN6String6concatEPKcj
  397 00000010 BD70            POP              {r4-r6,pc}
  398 00000012                 ENDP
  399 00000012         
  400 00000012         
  401 00000012                 AREA             ||i._ZN6String6concatEc||, CODE
, READONLY, ALIGN=1
  402 00000000         
  403 00000000         _ZN6String6concatEc
                               PROC
  404 00000000 B538            PUSH             {r3-r5,lr}
  405 00000002 4605            MOV              r5,r0
  406 00000004 460C            MOV              r4,r1
  407 00000006 F88D 4000       STRB             r4,[sp,#0]
  408 0000000A 2000            MOVS             r0,#0
  409 0000000C F88D 0001       STRB             r0,[sp,#1]
  410 00000010 2201            MOVS             r2,#1
  411 00000012 4669            MOV              r1,sp
  412 00000014 4628            MOV              r0,r5
  413 00000016 F7FF FFFE       BL               _ZN6String6concatEPKcj
  414 0000001A BD38            POP              {r3-r5,pc}
  415 0000001C                 ENDP
  416 0000001C         
  417 0000001C         
  418 0000001C                 AREA             ||i._ZN6String6concatEd||, CODE
, READONLY, ALIGN=1
  419 00000000         
  420 00000000         _ZN6String6concatEd
                               PROC
  421 00000000 B570            PUSH             {r4-r6,lr}
  422 00000002 ED2D 8B04       VPUSH            {d8-d9}
  423 00000006 B086            SUB              sp,sp,#0x18
  424 00000008 4605            MOV              r5,r0
  425 0000000A EEB0 8A40       VMOV.F32         s16,s0
  426 0000000E EEF0 8A60       VMOV.F32         s17,s1
  427 00000012 EC51 0B18       VMOV             r0,r1,d8
  428 00000016 F7FF FFFE       BL               __aeabi_d2f
  429 0000001A EE09 0A10       VMOV             s18,r0
  430 0000001E AA01            ADD              r2,sp,#4
  431 00000020 2102            MOVS             r1,#2
  432 00000022 2004            MOVS             r0,#4
  433 00000024 EEB0 0A49       VMOV.F32         s0,s18
  434 00000028 F7FF FFFE       BL               dtostrf
  435 0000002C 4604            MOV              r4,r0
  436 0000002E 4620            MOV              r0,r4
  437 00000030 F7FF FFFE       BL               strlen



ARM Macro Assembler    Page 9 


  438 00000034 4606            MOV              r6,r0
  439 00000036 4632            MOV              r2,r6
  440 00000038 4621            MOV              r1,r4
  441 0000003A 4628            MOV              r0,r5
  442 0000003C F7FF FFFE       BL               _ZN6String6concatEPKcj
  443 00000040 B006            ADD              sp,sp,#0x18
  444 00000042 ECBD 8B04       VPOP             {d8-d9}
  445 00000046 BD70            POP              {r4-r6,pc}
  446 00000048                 ENDP
  447 00000048         
  448 00000048         
  449 00000048                 AREA             ||i._ZN6String6concatEf||, CODE
, READONLY, ALIGN=1
  450 00000000         
  451 00000000         _ZN6String6concatEf
                               PROC
  452 00000000 B570            PUSH             {r4-r6,lr}
  453 00000002 ED2D 8B02       VPUSH            {d8}
  454 00000006 B086            SUB              sp,sp,#0x18
  455 00000008 4604            MOV              r4,r0
  456 0000000A EEB0 8A40       VMOV.F32         s16,s0
  457 0000000E AA01            ADD              r2,sp,#4
  458 00000010 2102            MOVS             r1,#2
  459 00000012 2004            MOVS             r0,#4
  460 00000014 EEB0 0A48       VMOV.F32         s0,s16
  461 00000018 F7FF FFFE       BL               dtostrf
  462 0000001C 4605            MOV              r5,r0
  463 0000001E 4628            MOV              r0,r5
  464 00000020 F7FF FFFE       BL               strlen
  465 00000024 4606            MOV              r6,r0
  466 00000026 4632            MOV              r2,r6
  467 00000028 4629            MOV              r1,r5
  468 0000002A 4620            MOV              r0,r4
  469 0000002C F7FF FFFE       BL               _ZN6String6concatEPKcj
  470 00000030 B006            ADD              sp,sp,#0x18
  471 00000032 ECBD 8B02       VPOP             {d8}
  472 00000036 BD70            POP              {r4-r6,pc}
  473 00000038                 ENDP
  474 00000038         
  475 00000038         
  476 00000038                 AREA             ||i._ZN6String6concatEh||, CODE
, READONLY, ALIGN=1
  477 00000000         
  478 00000000         _ZN6String6concatEh
                               PROC
  479 00000000 B5F8            PUSH             {r3-r7,lr}
  480 00000002 4605            MOV              r5,r0
  481 00000004 460C            MOV              r4,r1
  482 00000006 220A            MOVS             r2,#0xa
  483 00000008 4669            MOV              r1,sp
  484 0000000A 4620            MOV              r0,r4
  485 0000000C F7FF FFFE       BL               itoa
  486 00000010 4668            MOV              r0,sp
  487 00000012 F7FF FFFE       BL               strlen
  488 00000016 4606            MOV              r6,r0
  489 00000018 4632            MOV              r2,r6
  490 0000001A 4669            MOV              r1,sp
  491 0000001C 4628            MOV              r0,r5
  492 0000001E F7FF FFFE       BL               _ZN6String6concatEPKcj



ARM Macro Assembler    Page 10 


  493 00000022 BDF8            POP              {r3-r7,pc}
  494 00000024                 ENDP
  495 00000024         
  496 00000024         
  497 00000024                 AREA             ||i._ZN6String6concatEi||, CODE
, READONLY, ALIGN=1
  498 00000000         
  499 00000000         _ZN6String6concatEi
                               PROC
  500 00000000 B5FE            PUSH             {r1-r7,lr}
  501 00000002 4605            MOV              r5,r0
  502 00000004 460C            MOV              r4,r1
  503 00000006 220A            MOVS             r2,#0xa
  504 00000008 4669            MOV              r1,sp
  505 0000000A 4620            MOV              r0,r4
  506 0000000C F7FF FFFE       BL               itoa
  507 00000010 4668            MOV              r0,sp
  508 00000012 F7FF FFFE       BL               strlen
  509 00000016 4606            MOV              r6,r0
  510 00000018 4632            MOV              r2,r6
  511 0000001A 4669            MOV              r1,sp
  512 0000001C 4628            MOV              r0,r5
  513 0000001E F7FF FFFE       BL               _ZN6String6concatEPKcj
  514 00000022 BDFE            POP              {r1-r7,pc}
  515 00000024                 ENDP
  516 00000024         
  517 00000024         
  518 00000024                 AREA             ||i._ZN6String6concatEj||, CODE
, READONLY, ALIGN=1
  519 00000000         
  520 00000000         _ZN6String6concatEj
                               PROC
  521 00000000 B5FE            PUSH             {r1-r7,lr}
  522 00000002 4605            MOV              r5,r0
  523 00000004 460C            MOV              r4,r1
  524 00000006 220A            MOVS             r2,#0xa
  525 00000008 4669            MOV              r1,sp
  526 0000000A 4620            MOV              r0,r4
  527 0000000C F7FF FFFE       BL               utoa
  528 00000010 4668            MOV              r0,sp
  529 00000012 F7FF FFFE       BL               strlen
  530 00000016 4606            MOV              r6,r0
  531 00000018 4632            MOV              r2,r6
  532 0000001A 4669            MOV              r1,sp
  533 0000001C 4628            MOV              r0,r5
  534 0000001E F7FF FFFE       BL               _ZN6String6concatEPKcj
  535 00000022 BDFE            POP              {r1-r7,pc}
  536 00000024                 ENDP
  537 00000024         
  538 00000024         
  539 00000024                 AREA             ||i._ZN6String6concatEl||, CODE
, READONLY, ALIGN=1
  540 00000000         
  541 00000000         _ZN6String6concatEl
                               PROC
  542 00000000 B5FE            PUSH             {r1-r7,lr}
  543 00000002 4605            MOV              r5,r0
  544 00000004 460C            MOV              r4,r1
  545 00000006 220A            MOVS             r2,#0xa



ARM Macro Assembler    Page 11 


  546 00000008 4669            MOV              r1,sp
  547 0000000A 4620            MOV              r0,r4
  548 0000000C F7FF FFFE       BL               ltoa
  549 00000010 4668            MOV              r0,sp
  550 00000012 F7FF FFFE       BL               strlen
  551 00000016 4606            MOV              r6,r0
  552 00000018 4632            MOV              r2,r6
  553 0000001A 4669            MOV              r1,sp
  554 0000001C 4628            MOV              r0,r5
  555 0000001E F7FF FFFE       BL               _ZN6String6concatEPKcj
  556 00000022 BDFE            POP              {r1-r7,pc}
  557 00000024                 ENDP
  558 00000024         
  559 00000024         
  560 00000024                 AREA             ||i._ZN6String6concatEm||, CODE
, READONLY, ALIGN=1
  561 00000000         
  562 00000000         _ZN6String6concatEm
                               PROC
  563 00000000 B5FE            PUSH             {r1-r7,lr}
  564 00000002 4605            MOV              r5,r0
  565 00000004 460C            MOV              r4,r1
  566 00000006 220A            MOVS             r2,#0xa
  567 00000008 4669            MOV              r1,sp
  568 0000000A 4620            MOV              r0,r4
  569 0000000C F7FF FFFE       BL               ultoa
  570 00000010 4668            MOV              r0,sp
  571 00000012 F7FF FFFE       BL               strlen
  572 00000016 4606            MOV              r6,r0
  573 00000018 4632            MOV              r2,r6
  574 0000001A 4669            MOV              r1,sp
  575 0000001C 4628            MOV              r0,r5
  576 0000001E F7FF FFFE       BL               _ZN6String6concatEPKcj
  577 00000022 BDFE            POP              {r1-r7,pc}
  578 00000024                 ENDP
  579 00000024         
  580 00000024         
  581 00000024                 AREA             ||i._ZN6String6removeEj||, CODE
, READONLY, ALIGN=1
  582 00000000         
  583 00000000         _ZN6String6removeEj
                               PROC
  584 00000000 B570            PUSH             {r4-r6,lr}
  585 00000002 4604            MOV              r4,r0
  586 00000004 460D            MOV              r5,r1
  587 00000006 68A0            LDR              r0,[r4,#8]
  588 00000008 42A8            CMP              r0,r5
  589 0000000A D800            BHI              |L18.14|
  590 0000000C         |L18.12|
  591 0000000C BD70            POP              {r4-r6,pc}
  592 0000000E         |L18.14|
  593 0000000E 68A0            LDR              r0,[r4,#8]
  594 00000010 1B46            SUBS             r6,r0,r5
  595 00000012 4632            MOV              r2,r6
  596 00000014 4629            MOV              r1,r5
  597 00000016 4620            MOV              r0,r4
  598 00000018 F7FF FFFE       BL               _ZN6String6removeEjj
  599 0000001C BF00            NOP
  600 0000001E E7F5            B                |L18.12|



ARM Macro Assembler    Page 12 


  601 00000020                 ENDP
  602 00000020         
  603 00000020         
  604 00000020                 AREA             ||i._ZN6String6removeEjj||, COD
E, READONLY, ALIGN=1
  605 00000000         
  606 00000000         _ZN6String6removeEjj
                               PROC
  607 00000000 E92D 41F0       PUSH             {r4-r8,lr}
  608 00000004 4604            MOV              r4,r0
  609 00000006 460D            MOV              r5,r1
  610 00000008 4616            MOV              r6,r2
  611 0000000A 68A0            LDR              r0,[r4,#8]
  612 0000000C 42A8            CMP              r0,r5
  613 0000000E D801            BHI              |L19.20|
  614 00000010         |L19.16|
  615 00000010 E8BD 81F0       POP              {r4-r8,pc}
  616 00000014         |L19.20|
  617 00000014 B906            CBNZ             r6,|L19.24|
  618 00000016 E7FB            B                |L19.16|
  619 00000018         |L19.24|
  620 00000018 19A8            ADDS             r0,r5,r6
  621 0000001A 68A1            LDR              r1,[r4,#8]
  622 0000001C 4288            CMP              r0,r1
  623 0000001E D901            BLS              |L19.36|
  624 00000020 68A0            LDR              r0,[r4,#8]
  625 00000022 1B46            SUBS             r6,r0,r5
  626 00000024         |L19.36|
  627 00000024 6820            LDR              r0,[r4,#0]
  628 00000026 1947            ADDS             r7,r0,r5
  629 00000028 68A0            LDR              r0,[r4,#8]
  630 0000002A 1B80            SUBS             r0,r0,r6
  631 0000002C 60A0            STR              r0,[r4,#8]
  632 0000002E 68A0            LDR              r0,[r4,#8]
  633 00000030 1B42            SUBS             r2,r0,r5
  634 00000032 6820            LDR              r0,[r4,#0]
  635 00000034 4428            ADD              r0,r0,r5
  636 00000036 1981            ADDS             r1,r0,r6
  637 00000038 4638            MOV              r0,r7
  638 0000003A F7FF FFFE       BL               strncpy
  639 0000003E 2000            MOVS             r0,#0
  640 00000040 68A2            LDR              r2,[r4,#8]
  641 00000042 6821            LDR              r1,[r4,#0]
  642 00000044 5488            STRB             r0,[r1,r2]
  643 00000046 BF00            NOP
  644 00000048 E7E2            B                |L19.16|
  645 0000004A                 ENDP
  646 0000004A         
  647 0000004A         
  648 0000004A                 AREA             ||i._ZN6String7replaceERKS_S1_|
|, CODE, READONLY, ALIGN=1
  649 00000000         
  650 00000000         _ZN6String7replaceERKS_S1_
                               PROC
  651 00000000 E92D 5FF0       PUSH             {r4-r12,lr}
  652 00000004 4604            MOV              r4,r0
  653 00000006 460E            MOV              r6,r1
  654 00000008 4615            MOV              r5,r2
  655 0000000A 68A0            LDR              r0,[r4,#8]



ARM Macro Assembler    Page 13 


  656 0000000C B108            CBZ              r0,|L20.18|
  657 0000000E 68B0            LDR              r0,[r6,#8]
  658 00000010 B908            CBNZ             r0,|L20.22|
  659 00000012         |L20.18|
  660 00000012 E8BD 9FF0       POP              {r4-r12,pc}
  661 00000016         |L20.22|
  662 00000016 68A8            LDR              r0,[r5,#8]
  663 00000018 68B1            LDR              r1,[r6,#8]
  664 0000001A EBA0 0801       SUB              r8,r0,r1
  665 0000001E F8D4 9000       LDR              r9,[r4,#0]
  666 00000022 F1B8 0F00       CMP              r8,#0
  667 00000026 D10F            BNE              |L20.72|
  668 00000028 E007            B                |L20.58|
  669 0000002A         |L20.42|
  670 0000002A 4638            MOV              r0,r7
  671 0000002C 68AA            LDR              r2,[r5,#8]
  672 0000002E 6829            LDR              r1,[r5,#0]
  673 00000030 F7FF FFFE       BL               __aeabi_memcpy
  674 00000034 68A8            LDR              r0,[r5,#8]
  675 00000036 EB00 0907       ADD              r9,r0,r7
  676 0000003A         |L20.58|
  677 0000003A 4648            MOV              r0,r9
  678 0000003C 6831            LDR              r1,[r6,#0]
  679 0000003E F7FF FFFE       BL               _ZSt6strstrPcPKc
  680 00000042 1E07            SUBS             r7,r0,#0
  681 00000044 D1F1            BNE              |L20.42|
  682 00000046 E06F            B                |L20.296|
  683 00000048         |L20.72|
  684 00000048 F1B8 0F00       CMP              r8,#0
  685 0000004C DA23            BGE              |L20.150|
  686 0000004E F8D4 A000       LDR              r10,[r4,#0]
  687 00000052 E015            B                |L20.128|
  688 00000054         |L20.84|
  689 00000054 EBA7 0B09       SUB              r11,r7,r9
  690 00000058 465A            MOV              r2,r11
  691 0000005A 4649            MOV              r1,r9
  692 0000005C 4650            MOV              r0,r10
  693 0000005E F7FF FFFE       BL               __aeabi_memcpy
  694 00000062 44DA            ADD              r10,r10,r11
  695 00000064 4650            MOV              r0,r10
  696 00000066 68AA            LDR              r2,[r5,#8]
  697 00000068 6829            LDR              r1,[r5,#0]
  698 0000006A F7FF FFFE       BL               __aeabi_memcpy
  699 0000006E 68A8            LDR              r0,[r5,#8]
  700 00000070 4482            ADD              r10,r10,r0
  701 00000072 68B0            LDR              r0,[r6,#8]
  702 00000074 EB00 0907       ADD              r9,r0,r7
  703 00000078 68A0            LDR              r0,[r4,#8]
  704 0000007A 4440            ADD              r0,r0,r8
  705 0000007C 60A0            STR              r0,[r4,#8]
  706 0000007E BF00            NOP
  707 00000080         |L20.128|
  708 00000080 4648            MOV              r0,r9
  709 00000082 6831            LDR              r1,[r6,#0]
  710 00000084 F7FF FFFE       BL               _ZSt6strstrPcPKc
  711 00000088 1E07            SUBS             r7,r0,#0
  712 0000008A D1E3            BNE              |L20.84|
  713 0000008C 4649            MOV              r1,r9
  714 0000008E 4650            MOV              r0,r10



ARM Macro Assembler    Page 14 


  715 00000090 F7FF FFFE       BL               strcpy
  716 00000094 E048            B                |L20.296|
  717 00000096         |L20.150|
  718 00000096 F8D4 B008       LDR              r11,[r4,#8]
  719 0000009A E003            B                |L20.164|
  720 0000009C         |L20.156|
  721 0000009C 68B0            LDR              r0,[r6,#8]
  722 0000009E EB00 0907       ADD              r9,r0,r7
  723 000000A2 44C3            ADD              r11,r11,r8
  724 000000A4         |L20.164|
  725 000000A4 4648            MOV              r0,r9
  726 000000A6 6831            LDR              r1,[r6,#0]
  727 000000A8 F7FF FFFE       BL               _ZSt6strstrPcPKc
  728 000000AC 1E07            SUBS             r7,r0,#0
  729 000000AE D1F5            BNE              |L20.156|
  730 000000B0 68A0            LDR              r0,[r4,#8]
  731 000000B2 4558            CMP              r0,r11
  732 000000B4 D100            BNE              |L20.184|
  733 000000B6 E7AC            B                |L20.18|
  734 000000B8         |L20.184|
  735 000000B8 6860            LDR              r0,[r4,#4]
  736 000000BA 4558            CMP              r0,r11
  737 000000BC D205            BCS              |L20.202|
  738 000000BE 4659            MOV              r1,r11
  739 000000C0 4620            MOV              r0,r4
  740 000000C2 F7FF FFFE       BL               _ZN6String12changeBufferEj
  741 000000C6 B900            CBNZ             r0,|L20.202|
  742 000000C8 E7A3            B                |L20.18|
  743 000000CA         |L20.202|
  744 000000CA 68A0            LDR              r0,[r4,#8]
  745 000000CC F1A0 0A01       SUB              r10,r0,#1
  746 000000D0 E01E            B                |L20.272|
  747 000000D2         |L20.210|
  748 000000D2 6820            LDR              r0,[r4,#0]
  749 000000D4 4450            ADD              r0,r0,r10
  750 000000D6 68B1            LDR              r1,[r6,#8]
  751 000000D8 EB00 0901       ADD              r9,r0,r1
  752 000000DC 6823            LDR              r3,[r4,#0]
  753 000000DE EBA9 0303       SUB              r3,r9,r3
  754 000000E2 68A1            LDR              r1,[r4,#8]
  755 000000E4 1ACA            SUBS             r2,r1,r3
  756 000000E6 EB09 0008       ADD              r0,r9,r8
  757 000000EA 4649            MOV              r1,r9
  758 000000EC F7FF FFFE       BL               __aeabi_memmove
  759 000000F0 68A0            LDR              r0,[r4,#8]
  760 000000F2 4440            ADD              r0,r0,r8
  761 000000F4 60A0            STR              r0,[r4,#8]
  762 000000F6 2000            MOVS             r0,#0
  763 000000F8 68A2            LDR              r2,[r4,#8]
  764 000000FA 6821            LDR              r1,[r4,#0]
  765 000000FC 5488            STRB             r0,[r1,r2]
  766 000000FE 68AA            LDR              r2,[r5,#8]
  767 00000100 6829            LDR              r1,[r5,#0]
  768 00000102 6823            LDR              r3,[r4,#0]
  769 00000104 EB03 000A       ADD              r0,r3,r10
  770 00000108 F7FF FFFE       BL               __aeabi_memcpy
  771 0000010C F1AA 0A01       SUB              r10,r10,#1
  772 00000110         |L20.272|
  773 00000110 F1BA 0F00       CMP              r10,#0



ARM Macro Assembler    Page 15 


  774 00000114 DB07            BLT              |L20.294|
  775 00000116 4652            MOV              r2,r10
  776 00000118 4631            MOV              r1,r6
  777 0000011A 4620            MOV              r0,r4
  778 0000011C F7FF FFFE       BL               _ZNK6String11lastIndexOfERKS_j
  779 00000120 F1B0 0A00       SUBS             r10,r0,#0
  780 00000124 DAD5            BGE              |L20.210|
  781 00000126         |L20.294|
  782 00000126 BF00            NOP
  783 00000128         |L20.296|
  784 00000128 BF00            NOP
  785 0000012A E772            B                |L20.18|
  786 0000012C                 ENDP
  787 0000012C         
  788 0000012C         
  789 0000012C                 AREA             ||i._ZN6String7replaceEcc||, CO
DE, READONLY, ALIGN=1
  790 00000000         
  791 00000000         _ZN6String7replaceEcc
                               PROC
  792 00000000 B510            PUSH             {r4,lr}
  793 00000002 4603            MOV              r3,r0
  794 00000004 6818            LDR              r0,[r3,#0]
  795 00000006 B900            CBNZ             r0,|L21.10|
  796 00000008         |L21.8|
  797 00000008 BD10            POP              {r4,pc}
  798 0000000A         |L21.10|
  799 0000000A 6818            LDR              r0,[r3,#0]
  800 0000000C E004            B                |L21.24|
  801 0000000E         |L21.14|
  802 0000000E 7804            LDRB             r4,[r0,#0]
  803 00000010 428C            CMP              r4,r1
  804 00000012 D100            BNE              |L21.22|
  805 00000014 7002            STRB             r2,[r0,#0]
  806 00000016         |L21.22|
  807 00000016 1C40            ADDS             r0,r0,#1
  808 00000018         |L21.24|
  809 00000018 7804            LDRB             r4,[r0,#0]
  810 0000001A 2C00            CMP              r4,#0
  811 0000001C D1F7            BNE              |L21.14|
  812 0000001E BF00            NOP
  813 00000020 E7F2            B                |L21.8|
  814 00000022                 ENDP
  815 00000022         
  816 00000022         
  817 00000022                 AREA             ||i._ZN6String7reserveEj||, COD
E, READONLY, ALIGN=1
  818 00000000         
  819 00000000         _ZN6String7reserveEj
                               PROC
  820 00000000 B570            PUSH             {r4-r6,lr}
  821 00000002 4604            MOV              r4,r0
  822 00000004 460D            MOV              r5,r1
  823 00000006 6820            LDR              r0,[r4,#0]
  824 00000008 B120            CBZ              r0,|L22.20|
  825 0000000A 6860            LDR              r0,[r4,#4]
  826 0000000C 42A8            CMP              r0,r5
  827 0000000E D301            BCC              |L22.20|
  828 00000010 2001            MOVS             r0,#1



ARM Macro Assembler    Page 16 


  829 00000012         |L22.18|
  830 00000012 BD70            POP              {r4-r6,pc}
  831 00000014         |L22.20|
  832 00000014 4629            MOV              r1,r5
  833 00000016 4620            MOV              r0,r4
  834 00000018 F7FF FFFE       BL               _ZN6String12changeBufferEj
  835 0000001C B130            CBZ              r0,|L22.44|
  836 0000001E 68A0            LDR              r0,[r4,#8]
  837 00000020 B910            CBNZ             r0,|L22.40|
  838 00000022 2000            MOVS             r0,#0
  839 00000024 6821            LDR              r1,[r4,#0]
  840 00000026 7008            STRB             r0,[r1,#0]
  841 00000028         |L22.40|
  842 00000028 2001            MOVS             r0,#1
  843 0000002A E7F2            B                |L22.18|
  844 0000002C         |L22.44|
  845 0000002C 2000            MOVS             r0,#0
  846 0000002E E7F0            B                |L22.18|
  847 00000030                 ENDP
  848 00000030         
  849 00000030         
  850 00000030                 AREA             ||i._ZN6String9setCharAtEjc||, 
CODE, READONLY, ALIGN=1
  851 00000000         
  852 00000000         _ZN6String9setCharAtEjc
                               PROC
  853 00000000 6883            LDR              r3,[r0,#8]
  854 00000002 428B            CMP              r3,r1
  855 00000004 D901            BLS              |L23.10|
  856 00000006 6803            LDR              r3,[r0,#0]
  857 00000008 545A            STRB             r2,[r3,r1]
  858 0000000A         |L23.10|
  859 0000000A 4770            BX               lr
  860 0000000C                 ENDP
  861 0000000C         
  862 0000000C         
  863 0000000C                 AREA             ||i._ZN6StringC1EPKc||, CODE, R
EADONLY, ALIGN=1
  864 00000000         
  865 00000000         _ZN6StringC2EPKc                     ; Alternate entry p
                                                            oint
  866 00000000         _ZN6StringC1EPKc
                               PROC
  867 00000000 B570            PUSH             {r4-r6,lr}
  868 00000002 4605            MOV              r5,r0
  869 00000004 460C            MOV              r4,r1
  870 00000006 4628            MOV              r0,r5
  871 00000008 F7FF FFFE       BL               _ZN6String4initEv
  872 0000000C B144            CBZ              r4,|L24.32|
  873 0000000E 4620            MOV              r0,r4
  874 00000010 F7FF FFFE       BL               strlen
  875 00000014 4606            MOV              r6,r0
  876 00000016 4632            MOV              r2,r6
  877 00000018 4621            MOV              r1,r4
  878 0000001A 4628            MOV              r0,r5
  879 0000001C F7FF FFFE       BL               _ZN6String4copyEPKcj
  880 00000020         |L24.32|
  881 00000020 4628            MOV              r0,r5
  882 00000022 BD70            POP              {r4-r6,pc}



ARM Macro Assembler    Page 17 


  883 00000024                 ENDP
  884 00000024         
  885 00000024         
  886 00000024                 AREA             ||i._ZN6StringC1ERKS_||, CODE, 
READONLY, ALIGN=1
  887 00000000         
  888 00000000         _ZN6StringC2ERKS_                    ; Alternate entry p
                                                            oint
  889 00000000         _ZN6StringC1ERKS_
                               PROC
  890 00000000 B570            PUSH             {r4-r6,lr}
  891 00000002 4604            MOV              r4,r0
  892 00000004 460D            MOV              r5,r1
  893 00000006 4620            MOV              r0,r4
  894 00000008 F7FF FFFE       BL               _ZN6String4initEv
  895 0000000C 4629            MOV              r1,r5
  896 0000000E 4620            MOV              r0,r4
  897 00000010 F7FF FFFE       BL               _ZN6StringaSERKS_
  898 00000014 4620            MOV              r0,r4
  899 00000016 BD70            POP              {r4-r6,pc}
  900 00000018                 ENDP
  901 00000018         
  902 00000018         
  903 00000018                 AREA             ||i._ZN6StringC1Ec||, CODE, REA
DONLY, ALIGN=1
  904 00000000         
  905 00000000         _ZN6StringC2Ec                       ; Alternate entry p
                                                            oint
  906 00000000         _ZN6StringC1Ec
                               PROC
  907 00000000 B538            PUSH             {r3-r5,lr}
  908 00000002 4605            MOV              r5,r0
  909 00000004 460C            MOV              r4,r1
  910 00000006 4628            MOV              r0,r5
  911 00000008 F7FF FFFE       BL               _ZN6String4initEv
  912 0000000C F88D 4000       STRB             r4,[sp,#0]
  913 00000010 2000            MOVS             r0,#0
  914 00000012 F88D 0001       STRB             r0,[sp,#1]
  915 00000016 4669            MOV              r1,sp
  916 00000018 4628            MOV              r0,r5
  917 0000001A F7FF FFFE       BL               _ZN6StringaSEPKc
  918 0000001E 4628            MOV              r0,r5
  919 00000020 BD38            POP              {r3-r5,pc}
  920 00000022                 ENDP
  921 00000022         
  922 00000022         
  923 00000022                 AREA             ||i._ZN6StringC1Edh||, CODE, RE
ADONLY, ALIGN=1
  924 00000000         
  925 00000000         _ZN6StringC2Edh                      ; Alternate entry p
                                                            oint
  926 00000000         _ZN6StringC1Edh
                               PROC
  927 00000000 B570            PUSH             {r4-r6,lr}
  928 00000002 ED2D 8B04       VPUSH            {d8-d9}
  929 00000006 B08A            SUB              sp,sp,#0x28
  930 00000008 4605            MOV              r5,r0
  931 0000000A EEB0 8A40       VMOV.F32         s16,s0
  932 0000000E EEF0 8A60       VMOV.F32         s17,s1



ARM Macro Assembler    Page 18 


  933 00000012 460C            MOV              r4,r1
  934 00000014 4628            MOV              r0,r5
  935 00000016 F7FF FFFE       BL               _ZN6String4initEv
  936 0000001A EC51 0B18       VMOV             r0,r1,d8
  937 0000001E F7FF FFFE       BL               __aeabi_d2f
  938 00000022 EE09 0A10       VMOV             s18,r0
  939 00000026 AA01            ADD              r2,sp,#4
  940 00000028 4621            MOV              r1,r4
  941 0000002A 1CA0            ADDS             r0,r4,#2
  942 0000002C EEB0 0A49       VMOV.F32         s0,s18
  943 00000030 F7FF FFFE       BL               dtostrf
  944 00000034 4606            MOV              r6,r0
  945 00000036 4631            MOV              r1,r6
  946 00000038 4628            MOV              r0,r5
  947 0000003A F7FF FFFE       BL               _ZN6StringaSEPKc
  948 0000003E 4628            MOV              r0,r5
  949 00000040 B00A            ADD              sp,sp,#0x28
  950 00000042 ECBD 8B04       VPOP             {d8-d9}
  951 00000046 BD70            POP              {r4-r6,pc}
  952 00000048                 ENDP
  953 00000048         
  954 00000048         
  955 00000048                 AREA             ||i._ZN6StringC1Efh||, CODE, RE
ADONLY, ALIGN=1
  956 00000000         
  957 00000000         _ZN6StringC2Efh                      ; Alternate entry p
                                                            oint
  958 00000000         _ZN6StringC1Efh
                               PROC
  959 00000000 B570            PUSH             {r4-r6,lr}
  960 00000002 ED2D 8B02       VPUSH            {d8}
  961 00000006 B08A            SUB              sp,sp,#0x28
  962 00000008 4605            MOV              r5,r0
  963 0000000A EEB0 8A40       VMOV.F32         s16,s0
  964 0000000E 460C            MOV              r4,r1
  965 00000010 4628            MOV              r0,r5
  966 00000012 F7FF FFFE       BL               _ZN6String4initEv
  967 00000016 AA01            ADD              r2,sp,#4
  968 00000018 4621            MOV              r1,r4
  969 0000001A 1CA0            ADDS             r0,r4,#2
  970 0000001C EEB0 0A48       VMOV.F32         s0,s16
  971 00000020 F7FF FFFE       BL               dtostrf
  972 00000024 4606            MOV              r6,r0
  973 00000026 4631            MOV              r1,r6
  974 00000028 4628            MOV              r0,r5
  975 0000002A F7FF FFFE       BL               _ZN6StringaSEPKc
  976 0000002E 4628            MOV              r0,r5
  977 00000030 B00A            ADD              sp,sp,#0x28
  978 00000032 ECBD 8B02       VPOP             {d8}
  979 00000036 BD70            POP              {r4-r6,pc}
  980 00000038                 ENDP
  981 00000038         
  982 00000038         
  983 00000038                 AREA             ||i._ZN6StringC1Ehh||, CODE, RE
ADONLY, ALIGN=1
  984 00000000         
  985 00000000         _ZN6StringC2Ehh                      ; Alternate entry p
                                                            oint
  986 00000000         _ZN6StringC1Ehh



ARM Macro Assembler    Page 19 


                               PROC
  987 00000000 B5FE            PUSH             {r1-r7,lr}
  988 00000002 4605            MOV              r5,r0
  989 00000004 460C            MOV              r4,r1
  990 00000006 4616            MOV              r6,r2
  991 00000008 4628            MOV              r0,r5
  992 0000000A F7FF FFFE       BL               _ZN6String4initEv
  993 0000000E 4632            MOV              r2,r6
  994 00000010 4669            MOV              r1,sp
  995 00000012 4620            MOV              r0,r4
  996 00000014 F7FF FFFE       BL               utoa
  997 00000018 4669            MOV              r1,sp
  998 0000001A 4628            MOV              r0,r5
  999 0000001C F7FF FFFE       BL               _ZN6StringaSEPKc
 1000 00000020 4628            MOV              r0,r5
 1001 00000022 BDFE            POP              {r1-r7,pc}
 1002 00000024                 ENDP
 1003 00000024         
 1004 00000024         
 1005 00000024                 AREA             ||i._ZN6StringC1Eih||, CODE, RE
ADONLY, ALIGN=1
 1006 00000000         
 1007 00000000         _ZN6StringC2Eih                      ; Alternate entry p
                                                            oint
 1008 00000000         _ZN6StringC1Eih
                               PROC
 1009 00000000 B570            PUSH             {r4-r6,lr}
 1010 00000002 B086            SUB              sp,sp,#0x18
 1011 00000004 4605            MOV              r5,r0
 1012 00000006 460C            MOV              r4,r1
 1013 00000008 4616            MOV              r6,r2
 1014 0000000A 4628            MOV              r0,r5
 1015 0000000C F7FF FFFE       BL               _ZN6String4initEv
 1016 00000010 4632            MOV              r2,r6
 1017 00000012 A901            ADD              r1,sp,#4
 1018 00000014 4620            MOV              r0,r4
 1019 00000016 F7FF FFFE       BL               itoa
 1020 0000001A A901            ADD              r1,sp,#4
 1021 0000001C 4628            MOV              r0,r5
 1022 0000001E F7FF FFFE       BL               _ZN6StringaSEPKc
 1023 00000022 4628            MOV              r0,r5
 1024 00000024 B006            ADD              sp,sp,#0x18
 1025 00000026 BD70            POP              {r4-r6,pc}
 1026 00000028                 ENDP
 1027 00000028         
 1028 00000028         
 1029 00000028                 AREA             ||i._ZN6StringC1Ejh||, CODE, RE
ADONLY, ALIGN=1
 1030 00000000         
 1031 00000000         _ZN6StringC2Ejh                      ; Alternate entry p
                                                            oint
 1032 00000000         _ZN6StringC1Ejh
                               PROC
 1033 00000000 B570            PUSH             {r4-r6,lr}
 1034 00000002 B086            SUB              sp,sp,#0x18
 1035 00000004 4605            MOV              r5,r0
 1036 00000006 460C            MOV              r4,r1
 1037 00000008 4616            MOV              r6,r2
 1038 0000000A 4628            MOV              r0,r5



ARM Macro Assembler    Page 20 


 1039 0000000C F7FF FFFE       BL               _ZN6String4initEv
 1040 00000010 4632            MOV              r2,r6
 1041 00000012 A901            ADD              r1,sp,#4
 1042 00000014 4620            MOV              r0,r4
 1043 00000016 F7FF FFFE       BL               utoa
 1044 0000001A A901            ADD              r1,sp,#4
 1045 0000001C 4628            MOV              r0,r5
 1046 0000001E F7FF FFFE       BL               _ZN6StringaSEPKc
 1047 00000022 4628            MOV              r0,r5
 1048 00000024 B006            ADD              sp,sp,#0x18
 1049 00000026 BD70            POP              {r4-r6,pc}
 1050 00000028                 ENDP
 1051 00000028         
 1052 00000028         
 1053 00000028                 AREA             ||i._ZN6StringC1Elh||, CODE, RE
ADONLY, ALIGN=1
 1054 00000000         
 1055 00000000         _ZN6StringC2Elh                      ; Alternate entry p
                                                            oint
 1056 00000000         _ZN6StringC1Elh
                               PROC
 1057 00000000 B570            PUSH             {r4-r6,lr}
 1058 00000002 B08A            SUB              sp,sp,#0x28
 1059 00000004 4605            MOV              r5,r0
 1060 00000006 460C            MOV              r4,r1
 1061 00000008 4616            MOV              r6,r2
 1062 0000000A 4628            MOV              r0,r5
 1063 0000000C F7FF FFFE       BL               _ZN6String4initEv
 1064 00000010 4632            MOV              r2,r6
 1065 00000012 A901            ADD              r1,sp,#4
 1066 00000014 4620            MOV              r0,r4
 1067 00000016 F7FF FFFE       BL               ltoa
 1068 0000001A A901            ADD              r1,sp,#4
 1069 0000001C 4628            MOV              r0,r5
 1070 0000001E F7FF FFFE       BL               _ZN6StringaSEPKc
 1071 00000022 4628            MOV              r0,r5
 1072 00000024 B00A            ADD              sp,sp,#0x28
 1073 00000026 BD70            POP              {r4-r6,pc}
 1074 00000028                 ENDP
 1075 00000028         
 1076 00000028         
 1077 00000028                 AREA             ||i._ZN6StringC1Emh||, CODE, RE
ADONLY, ALIGN=1
 1078 00000000         
 1079 00000000         _ZN6StringC2Emh                      ; Alternate entry p
                                                            oint
 1080 00000000         _ZN6StringC1Emh
                               PROC
 1081 00000000 B570            PUSH             {r4-r6,lr}
 1082 00000002 B08A            SUB              sp,sp,#0x28
 1083 00000004 4605            MOV              r5,r0
 1084 00000006 460C            MOV              r4,r1
 1085 00000008 4616            MOV              r6,r2
 1086 0000000A 4628            MOV              r0,r5
 1087 0000000C F7FF FFFE       BL               _ZN6String4initEv
 1088 00000010 4632            MOV              r2,r6
 1089 00000012 A901            ADD              r1,sp,#4
 1090 00000014 4620            MOV              r0,r4
 1091 00000016 F7FF FFFE       BL               ultoa



ARM Macro Assembler    Page 21 


 1092 0000001A A901            ADD              r1,sp,#4
 1093 0000001C 4628            MOV              r0,r5
 1094 0000001E F7FF FFFE       BL               _ZN6StringaSEPKc
 1095 00000022 4628            MOV              r0,r5
 1096 00000024 B00A            ADD              sp,sp,#0x28
 1097 00000026 BD70            POP              {r4-r6,pc}
 1098 00000028                 ENDP
 1099 00000028         
 1100 00000028         
 1101 00000028                 AREA             ||i._ZN6StringD1Ev||, CODE, REA
DONLY, ALIGN=1
 1102 00000000         
 1103 00000000         _ZN6StringD2Ev                       ; Alternate entry p
                                                            oint
 1104 00000000         _ZN6StringD1Ev
                               PROC
 1105 00000000 B510            PUSH             {r4,lr}
 1106 00000002 4604            MOV              r4,r0
 1107 00000004 6820            LDR              r0,[r4,#0]
 1108 00000006 F7FF FFFE       BL               free
 1109 0000000A 4620            MOV              r0,r4
 1110 0000000C BD10            POP              {r4,pc}
 1111 0000000E                 ENDP
 1112 0000000E         
 1113 0000000E         
 1114 0000000E                 AREA             ||i._ZN6StringaSEPKc||, CODE, R
EADONLY, ALIGN=1
 1115 00000000         
 1116 00000000         _ZN6StringaSEPKc
                               PROC
 1117 00000000 B570            PUSH             {r4-r6,lr}
 1118 00000002 4605            MOV              r5,r0
 1119 00000004 460C            MOV              r4,r1
 1120 00000006 B14C            CBZ              r4,|L35.28|
 1121 00000008 4620            MOV              r0,r4
 1122 0000000A F7FF FFFE       BL               strlen
 1123 0000000E 4606            MOV              r6,r0
 1124 00000010 4632            MOV              r2,r6
 1125 00000012 4621            MOV              r1,r4
 1126 00000014 4628            MOV              r0,r5
 1127 00000016 F7FF FFFE       BL               _ZN6String4copyEPKcj
 1128 0000001A E002            B                |L35.34|
 1129 0000001C         |L35.28|
 1130 0000001C 4628            MOV              r0,r5
 1131 0000001E F7FF FFFE       BL               _ZN6String10invalidateEv
 1132 00000022         |L35.34|
 1133 00000022 4628            MOV              r0,r5
 1134 00000024 BD70            POP              {r4-r6,pc}
 1135 00000026                 ENDP
 1136 00000026         
 1137 00000026         
 1138 00000026                 AREA             ||i._ZN6StringaSERKS_||, CODE, 
READONLY, ALIGN=1
 1139 00000000         
 1140 00000000         _ZN6StringaSERKS_
                               PROC
 1141 00000000 B570            PUSH             {r4-r6,lr}
 1142 00000002 4605            MOV              r5,r0
 1143 00000004 460C            MOV              r4,r1



ARM Macro Assembler    Page 22 


 1144 00000006 42A5            CMP              r5,r4
 1145 00000008 D101            BNE              |L36.14|
 1146 0000000A 4628            MOV              r0,r5
 1147 0000000C         |L36.12|
 1148 0000000C BD70            POP              {r4-r6,pc}
 1149 0000000E         |L36.14|
 1150 0000000E 6820            LDR              r0,[r4,#0]
 1151 00000010 B128            CBZ              r0,|L36.30|
 1152 00000012 4628            MOV              r0,r5
 1153 00000014 68A2            LDR              r2,[r4,#8]
 1154 00000016 6821            LDR              r1,[r4,#0]
 1155 00000018 F7FF FFFE       BL               _ZN6String4copyEPKcj
 1156 0000001C E002            B                |L36.36|
 1157 0000001E         |L36.30|
 1158 0000001E 4628            MOV              r0,r5
 1159 00000020 F7FF FFFE       BL               _ZN6String10invalidateEv
 1160 00000024         |L36.36|
 1161 00000024 4628            MOV              r0,r5
 1162 00000026 E7F1            B                |L36.12|
 1163 00000028                 ENDP
 1164 00000028         
 1165 00000028         
 1166 00000028                 AREA             ||i._ZN6StringixEj||, CODE, REA
DONLY, ALIGN=2
 1167 00000000         
 1168 00000000         _ZN6StringixEj
                               PROC
 1169 00000000 4602            MOV              r2,r0
 1170 00000002 6890            LDR              r0,[r2,#8]
 1171 00000004 4288            CMP              r0,r1
 1172 00000006 D901            BLS              |L37.12|
 1173 00000008 6810            LDR              r0,[r2,#0]
 1174 0000000A B920            CBNZ             r0,|L37.22|
 1175 0000000C         |L37.12|
 1176 0000000C 2000            MOVS             r0,#0
 1177 0000000E 4B03            LDR              r3,|L37.28|
 1178 00000010 7018            STRB             r0,[r3,#0]
 1179 00000012 4618            MOV              r0,r3
 1180 00000014         |L37.20|
 1181 00000014 4770            BX               lr
 1182 00000016         |L37.22|
 1183 00000016 6810            LDR              r0,[r2,#0]
 1184 00000018 4408            ADD              r0,r0,r1
 1185 0000001A E7FB            B                |L37.20|
 1186 0000001C                 ENDP
 1187 0000001C         
 1188 0000001C         |L37.28|
 1189 0000001C 00000000        DCD              dummy_writable_char
 1190 00000020         
 1191 00000020                 AREA             ||i._ZNK6String10startsWithERKS
_||, CODE, READONLY, ALIGN=1
 1192 00000000         
 1193 00000000         _ZNK6String10startsWithERKS_
                               PROC
 1194 00000000 B570            PUSH             {r4-r6,lr}
 1195 00000002 4604            MOV              r4,r0
 1196 00000004 460D            MOV              r5,r1
 1197 00000006 68A0            LDR              r0,[r4,#8]
 1198 00000008 68A9            LDR              r1,[r5,#8]



ARM Macro Assembler    Page 23 


 1199 0000000A 4288            CMP              r0,r1
 1200 0000000C D201            BCS              |L38.18|
 1201 0000000E 2000            MOVS             r0,#0
 1202 00000010         |L38.16|
 1203 00000010 BD70            POP              {r4-r6,pc}
 1204 00000012         |L38.18|
 1205 00000012 2200            MOVS             r2,#0
 1206 00000014 4629            MOV              r1,r5
 1207 00000016 4620            MOV              r0,r4
 1208 00000018 F7FF FFFE       BL               _ZNK6String10startsWithERKS_j
 1209 0000001C E7F8            B                |L38.16|
 1210 0000001E                 ENDP
 1211 0000001E         
 1212 0000001E         
 1213 0000001E                 AREA             ||i._ZNK6String10startsWithERKS
_j||, CODE, READONLY, ALIGN=1
 1214 00000000         
 1215 00000000         _ZNK6String10startsWithERKS_j
                               PROC
 1216 00000000 B570            PUSH             {r4-r6,lr}
 1217 00000002 4605            MOV              r5,r0
 1218 00000004 460C            MOV              r4,r1
 1219 00000006 4616            MOV              r6,r2
 1220 00000008 68A8            LDR              r0,[r5,#8]
 1221 0000000A 68A1            LDR              r1,[r4,#8]
 1222 0000000C 1A40            SUBS             r0,r0,r1
 1223 0000000E 42B0            CMP              r0,r6
 1224 00000010 D303            BCC              |L39.26|
 1225 00000012 6828            LDR              r0,[r5,#0]
 1226 00000014 B108            CBZ              r0,|L39.26|
 1227 00000016 6820            LDR              r0,[r4,#0]
 1228 00000018 B908            CBNZ             r0,|L39.30|
 1229 0000001A         |L39.26|
 1230 0000001A 2000            MOVS             r0,#0
 1231 0000001C         |L39.28|
 1232 0000001C BD70            POP              {r4-r6,pc}
 1233 0000001E         |L39.30|
 1234 0000001E 68A2            LDR              r2,[r4,#8]
 1235 00000020 6821            LDR              r1,[r4,#0]
 1236 00000022 682B            LDR              r3,[r5,#0]
 1237 00000024 1998            ADDS             r0,r3,r6
 1238 00000026 F7FF FFFE       BL               strncmp
 1239 0000002A B908            CBNZ             r0,|L39.48|
 1240 0000002C 2001            MOVS             r0,#1
 1241 0000002E E7F5            B                |L39.28|
 1242 00000030         |L39.48|
 1243 00000030 2000            MOVS             r0,#0
 1244 00000032 E7F3            B                |L39.28|
 1245 00000034                 ENDP
 1246 00000034         
 1247 00000034         
 1248 00000034                 AREA             ||i._ZNK6String11lastIndexOfERK
S_||, CODE, READONLY, ALIGN=1
 1249 00000000         
 1250 00000000         _ZNK6String11lastIndexOfERKS_
                               PROC
 1251 00000000 B570            PUSH             {r4-r6,lr}
 1252 00000002 4604            MOV              r4,r0
 1253 00000004 460D            MOV              r5,r1



ARM Macro Assembler    Page 24 


 1254 00000006 68A0            LDR              r0,[r4,#8]
 1255 00000008 68A9            LDR              r1,[r5,#8]
 1256 0000000A 1A42            SUBS             r2,r0,r1
 1257 0000000C 4629            MOV              r1,r5
 1258 0000000E 4620            MOV              r0,r4
 1259 00000010 F7FF FFFE       BL               _ZNK6String11lastIndexOfERKS_j
 1260 00000014 BD70            POP              {r4-r6,pc}
 1261 00000016                 ENDP
 1262 00000016         
 1263 00000016         
 1264 00000016                 AREA             ||i._ZNK6String11lastIndexOfERK
S_j||, CODE, READONLY, ALIGN=1
 1265 00000000         
 1266 00000000         _ZNK6String11lastIndexOfERKS_j
                               PROC
 1267 00000000 E92D 41F0       PUSH             {r4-r8,lr}
 1268 00000004 4604            MOV              r4,r0
 1269 00000006 460E            MOV              r6,r1
 1270 00000008 4617            MOV              r7,r2
 1271 0000000A 68B0            LDR              r0,[r6,#8]
 1272 0000000C B128            CBZ              r0,|L41.26|
 1273 0000000E 68A0            LDR              r0,[r4,#8]
 1274 00000010 B118            CBZ              r0,|L41.26|
 1275 00000012 68B0            LDR              r0,[r6,#8]
 1276 00000014 68A1            LDR              r1,[r4,#8]
 1277 00000016 4288            CMP              r0,r1
 1278 00000018 D903            BLS              |L41.34|
 1279 0000001A         |L41.26|
 1280 0000001A F04F 30FF       MOV              r0,#0xffffffff
 1281 0000001E         |L41.30|
 1282 0000001E E8BD 81F0       POP              {r4-r8,pc}
 1283 00000022         |L41.34|
 1284 00000022 68A0            LDR              r0,[r4,#8]
 1285 00000024 42B8            CMP              r0,r7
 1286 00000026 D801            BHI              |L41.44|
 1287 00000028 68A0            LDR              r0,[r4,#8]
 1288 0000002A 1E47            SUBS             r7,r0,#1
 1289 0000002C         |L41.44|
 1290 0000002C F04F 38FF       MOV              r8,#0xffffffff
 1291 00000030 6825            LDR              r5,[r4,#0]
 1292 00000032 E00E            B                |L41.82|
 1293 00000034         |L41.52|
 1294 00000034 4628            MOV              r0,r5
 1295 00000036 6831            LDR              r1,[r6,#0]
 1296 00000038 F7FF FFFE       BL               _ZSt6strstrPcPKc
 1297 0000003C 4605            MOV              r5,r0
 1298 0000003E B905            CBNZ             r5,|L41.66|
 1299 00000040 E00B            B                |L41.90|
 1300 00000042         |L41.66|
 1301 00000042 6820            LDR              r0,[r4,#0]
 1302 00000044 1A28            SUBS             r0,r5,r0
 1303 00000046 42B8            CMP              r0,r7
 1304 00000048 D802            BHI              |L41.80|
 1305 0000004A 6820            LDR              r0,[r4,#0]
 1306 0000004C EBA5 0800       SUB              r8,r5,r0
 1307 00000050         |L41.80|
 1308 00000050 1C6D            ADDS             r5,r5,#1
 1309 00000052         |L41.82|
 1310 00000052 6820            LDR              r0,[r4,#0]



ARM Macro Assembler    Page 25 


 1311 00000054 4438            ADD              r0,r0,r7
 1312 00000056 42A8            CMP              r0,r5
 1313 00000058 D2EC            BCS              |L41.52|
 1314 0000005A         |L41.90|
 1315 0000005A 4640            MOV              r0,r8
 1316 0000005C E7DF            B                |L41.30|
 1317 0000005E                 ENDP
 1318 0000005E         
 1319 0000005E         
 1320 0000005E                 AREA             ||i._ZNK6String11lastIndexOfEc|
|, CODE, READONLY, ALIGN=1
 1321 00000000         
 1322 00000000         _ZNK6String11lastIndexOfEc
                               PROC
 1323 00000000 B570            PUSH             {r4-r6,lr}
 1324 00000002 4604            MOV              r4,r0
 1325 00000004 460D            MOV              r5,r1
 1326 00000006 68A0            LDR              r0,[r4,#8]
 1327 00000008 1E42            SUBS             r2,r0,#1
 1328 0000000A 4629            MOV              r1,r5
 1329 0000000C 4620            MOV              r0,r4
 1330 0000000E F7FF FFFE       BL               _ZNK6String11lastIndexOfEcj
 1331 00000012 BD70            POP              {r4-r6,pc}
 1332 00000014                 ENDP
 1333 00000014         
 1334 00000014         
 1335 00000014                 AREA             ||i._ZNK6String11lastIndexOfEcj
||, CODE, READONLY, ALIGN=1
 1336 00000000         
 1337 00000000         _ZNK6String11lastIndexOfEcj
                               PROC
 1338 00000000 E92D 47F0       PUSH             {r4-r10,lr}
 1339 00000004 4604            MOV              r4,r0
 1340 00000006 460F            MOV              r7,r1
 1341 00000008 4615            MOV              r5,r2
 1342 0000000A 68A0            LDR              r0,[r4,#8]
 1343 0000000C 42A8            CMP              r0,r5
 1344 0000000E D803            BHI              |L43.24|
 1345 00000010 F04F 30FF       MOV              r0,#0xffffffff
 1346 00000014         |L43.20|
 1347 00000014 E8BD 87F0       POP              {r4-r10,pc}
 1348 00000018         |L43.24|
 1349 00000018 1C68            ADDS             r0,r5,#1
 1350 0000001A 6821            LDR              r1,[r4,#0]
 1351 0000001C F811 8000       LDRB             r8,[r1,r0]
 1352 00000020 2100            MOVS             r1,#0
 1353 00000022 6822            LDR              r2,[r4,#0]
 1354 00000024 5411            STRB             r1,[r2,r0]
 1355 00000026 F8D4 9000       LDR              r9,[r4,#0]
 1356 0000002A 4639            MOV              r1,r7
 1357 0000002C 4648            MOV              r0,r9
 1358 0000002E F7FF FFFE       BL               strrchr
 1359 00000032 4606            MOV              r6,r0
 1360 00000034 BF00            NOP
 1361 00000036 1C68            ADDS             r0,r5,#1
 1362 00000038 6821            LDR              r1,[r4,#0]
 1363 0000003A F801 8000       STRB             r8,[r1,r0]
 1364 0000003E B916            CBNZ             r6,|L43.70|
 1365 00000040 F04F 30FF       MOV              r0,#0xffffffff



ARM Macro Assembler    Page 26 


 1366 00000044 E7E6            B                |L43.20|
 1367 00000046         |L43.70|
 1368 00000046 6820            LDR              r0,[r4,#0]
 1369 00000048 1A30            SUBS             r0,r6,r0
 1370 0000004A E7E3            B                |L43.20|
 1371 0000004C                 ENDP
 1372 0000004C         
 1373 0000004C         
 1374 0000004C                 AREA             ||i._ZNK6String16equalsIgnoreCa
seERKS_||, CODE, READONLY, ALIGN=1
 1375 00000000         
 1376 00000000         _ZNK6String16equalsIgnoreCaseERKS_
                               PROC
 1377 00000000 E92D 41F0       PUSH             {r4-r8,lr}
 1378 00000004 4604            MOV              r4,r0
 1379 00000006 460D            MOV              r5,r1
 1380 00000008 42AC            CMP              r4,r5
 1381 0000000A D102            BNE              |L44.18|
 1382 0000000C 2001            MOVS             r0,#1
 1383 0000000E         |L44.14|
 1384 0000000E E8BD 81F0       POP              {r4-r8,pc}
 1385 00000012         |L44.18|
 1386 00000012 68A0            LDR              r0,[r4,#8]
 1387 00000014 68A9            LDR              r1,[r5,#8]
 1388 00000016 4288            CMP              r0,r1
 1389 00000018 D001            BEQ              |L44.30|
 1390 0000001A 2000            MOVS             r0,#0
 1391 0000001C E7F7            B                |L44.14|
 1392 0000001E         |L44.30|
 1393 0000001E 68A0            LDR              r0,[r4,#8]
 1394 00000020 B908            CBNZ             r0,|L44.38|
 1395 00000022 2001            MOVS             r0,#1
 1396 00000024 E7F3            B                |L44.14|
 1397 00000026         |L44.38|
 1398 00000026 6826            LDR              r6,[r4,#0]
 1399 00000028 682F            LDR              r7,[r5,#0]
 1400 0000002A E00C            B                |L44.70|
 1401 0000002C         |L44.44|
 1402 0000002C F816 0B01       LDRB             r0,[r6],#1
 1403 00000030 F7FF FFFE       BL               tolower
 1404 00000034 4680            MOV              r8,r0
 1405 00000036 F817 0B01       LDRB             r0,[r7],#1
 1406 0000003A F7FF FFFE       BL               tolower
 1407 0000003E 4580            CMP              r8,r0
 1408 00000040 D001            BEQ              |L44.70|
 1409 00000042 2000            MOVS             r0,#0
 1410 00000044 E7E3            B                |L44.14|
 1411 00000046         |L44.70|
 1412 00000046 7830            LDRB             r0,[r6,#0]
 1413 00000048 2800            CMP              r0,#0
 1414 0000004A D1EF            BNE              |L44.44|
 1415 0000004C 2001            MOVS             r0,#1
 1416 0000004E E7DE            B                |L44.14|
 1417 00000050                 ENDP
 1418 00000050         
 1419 00000050         
 1420 00000050                 AREA             ||i._ZNK6String5toIntEv||, CODE
, READONLY, ALIGN=1
 1421 00000000         



ARM Macro Assembler    Page 27 


 1422 00000000         _ZNK6String5toIntEv
                               PROC
 1423 00000000 B510            PUSH             {r4,lr}
 1424 00000002 4604            MOV              r4,r0
 1425 00000004 6820            LDR              r0,[r4,#0]
 1426 00000006 B118            CBZ              r0,|L45.16|
 1427 00000008 6820            LDR              r0,[r4,#0]
 1428 0000000A F7FF FFFE       BL               atol
 1429 0000000E         |L45.14|
 1430 0000000E BD10            POP              {r4,pc}
 1431 00000010         |L45.16|
 1432 00000010 2000            MOVS             r0,#0
 1433 00000012 E7FC            B                |L45.14|
 1434 00000014                 ENDP
 1435 00000014         
 1436 00000014         
 1437 00000014                 AREA             ||i._ZNK6String6charAtEj||, COD
E, READONLY, ALIGN=1
 1438 00000000         
 1439 00000000         _ZNK6String6charAtEj
                               PROC
 1440 00000000 B510            PUSH             {r4,lr}
 1441 00000002 4603            MOV              r3,r0
 1442 00000004 460C            MOV              r4,r1
 1443 00000006 4621            MOV              r1,r4
 1444 00000008 4618            MOV              r0,r3
 1445 0000000A F7FF FFFE       BL               _ZNK6StringixEj
 1446 0000000E BD10            POP              {r4,pc}
 1447 00000010                 ENDP
 1448 00000010         
 1449 00000010         
 1450 00000010                 AREA             ||i._ZNK6String6equalsEPKc||, C
ODE, READONLY, ALIGN=1
 1451 00000000         
 1452 00000000         _ZNK6String6equalsEPKc
                               PROC
 1453 00000000 B570            PUSH             {r4-r6,lr}
 1454 00000002 4604            MOV              r4,r0
 1455 00000004 460D            MOV              r5,r1
 1456 00000006 68A0            LDR              r0,[r4,#8]
 1457 00000008 B930            CBNZ             r0,|L47.24|
 1458 0000000A B10D            CBZ              r5,|L47.16|
 1459 0000000C 7828            LDRB             r0,[r5,#0]
 1460 0000000E B908            CBNZ             r0,|L47.20|
 1461 00000010         |L47.16|
 1462 00000010 2001            MOVS             r0,#1
 1463 00000012         |L47.18|
 1464 00000012 BD70            POP              {r4-r6,pc}
 1465 00000014         |L47.20|
 1466 00000014 2000            MOVS             r0,#0
 1467 00000016 E7FC            B                |L47.18|
 1468 00000018         |L47.24|
 1469 00000018 B935            CBNZ             r5,|L47.40|
 1470 0000001A 6820            LDR              r0,[r4,#0]
 1471 0000001C 7800            LDRB             r0,[r0,#0]
 1472 0000001E B908            CBNZ             r0,|L47.36|
 1473 00000020 2001            MOVS             r0,#1
 1474 00000022 E7F6            B                |L47.18|
 1475 00000024         |L47.36|



ARM Macro Assembler    Page 28 


 1476 00000024 2000            MOVS             r0,#0
 1477 00000026 E7F4            B                |L47.18|
 1478 00000028         |L47.40|
 1479 00000028 4629            MOV              r1,r5
 1480 0000002A 6820            LDR              r0,[r4,#0]
 1481 0000002C F7FF FFFE       BL               strcmp
 1482 00000030 B908            CBNZ             r0,|L47.54|
 1483 00000032 2001            MOVS             r0,#1
 1484 00000034 E7ED            B                |L47.18|
 1485 00000036         |L47.54|
 1486 00000036 2000            MOVS             r0,#0
 1487 00000038 E7EB            B                |L47.18|
 1488 0000003A                 ENDP
 1489 0000003A         
 1490 0000003A         
 1491 0000003A                 AREA             ||i._ZNK6String6equalsERKS_||, 
CODE, READONLY, ALIGN=1
 1492 00000000         
 1493 00000000         _ZNK6String6equalsERKS_
                               PROC
 1494 00000000 B570            PUSH             {r4-r6,lr}
 1495 00000002 4604            MOV              r4,r0
 1496 00000004 460D            MOV              r5,r1
 1497 00000006 68A0            LDR              r0,[r4,#8]
 1498 00000008 68A9            LDR              r1,[r5,#8]
 1499 0000000A 4288            CMP              r0,r1
 1500 0000000C D106            BNE              |L48.28|
 1501 0000000E 4629            MOV              r1,r5
 1502 00000010 4620            MOV              r0,r4
 1503 00000012 F7FF FFFE       BL               _ZNK6String9compareToERKS_
 1504 00000016 B908            CBNZ             r0,|L48.28|
 1505 00000018 2001            MOVS             r0,#1
 1506 0000001A         |L48.26|
 1507 0000001A BD70            POP              {r4-r6,pc}
 1508 0000001C         |L48.28|
 1509 0000001C 2000            MOVS             r0,#0
 1510 0000001E E7FC            B                |L48.26|
 1511 00000020                 ENDP
 1512 00000020         
 1513 00000020         
 1514 00000020                 AREA             ||i._ZNK6String7indexOfERKS_||,
 CODE, READONLY, ALIGN=1
 1515 00000000         
 1516 00000000         _ZNK6String7indexOfERKS_
                               PROC
 1517 00000000 B570            PUSH             {r4-r6,lr}
 1518 00000002 4604            MOV              r4,r0
 1519 00000004 460D            MOV              r5,r1
 1520 00000006 2200            MOVS             r2,#0
 1521 00000008 4629            MOV              r1,r5
 1522 0000000A 4620            MOV              r0,r4
 1523 0000000C F7FF FFFE       BL               _ZNK6String7indexOfERKS_j
 1524 00000010 BD70            POP              {r4-r6,pc}
 1525 00000012                 ENDP
 1526 00000012         
 1527 00000012         
 1528 00000012                 AREA             ||i._ZNK6String7indexOfERKS_j||
, CODE, READONLY, ALIGN=1
 1529 00000000         



ARM Macro Assembler    Page 29 


 1530 00000000         _ZNK6String7indexOfERKS_j
                               PROC
 1531 00000000 E92D 41F0       PUSH             {r4-r8,lr}
 1532 00000004 4604            MOV              r4,r0
 1533 00000006 460F            MOV              r7,r1
 1534 00000008 4616            MOV              r6,r2
 1535 0000000A 68A0            LDR              r0,[r4,#8]
 1536 0000000C 42B0            CMP              r0,r6
 1537 0000000E D803            BHI              |L50.24|
 1538 00000010 F04F 30FF       MOV              r0,#0xffffffff
 1539 00000014         |L50.20|
 1540 00000014 E8BD 81F0       POP              {r4-r8,pc}
 1541 00000018         |L50.24|
 1542 00000018 6839            LDR              r1,[r7,#0]
 1543 0000001A 6822            LDR              r2,[r4,#0]
 1544 0000001C 1990            ADDS             r0,r2,r6
 1545 0000001E F7FF FFFE       BL               _ZSt6strstrPcPKc
 1546 00000022 4605            MOV              r5,r0
 1547 00000024 B915            CBNZ             r5,|L50.44|
 1548 00000026 F04F 30FF       MOV              r0,#0xffffffff
 1549 0000002A E7F3            B                |L50.20|
 1550 0000002C         |L50.44|
 1551 0000002C 6820            LDR              r0,[r4,#0]
 1552 0000002E 1A28            SUBS             r0,r5,r0
 1553 00000030 E7F0            B                |L50.20|
 1554 00000032                 ENDP
 1555 00000032         
 1556 00000032         
 1557 00000032                 AREA             ||i._ZNK6String7indexOfEc||, CO
DE, READONLY, ALIGN=1
 1558 00000000         
 1559 00000000         _ZNK6String7indexOfEc
                               PROC
 1560 00000000 B570            PUSH             {r4-r6,lr}
 1561 00000002 4604            MOV              r4,r0
 1562 00000004 460D            MOV              r5,r1
 1563 00000006 2200            MOVS             r2,#0
 1564 00000008 4629            MOV              r1,r5
 1565 0000000A 4620            MOV              r0,r4
 1566 0000000C F7FF FFFE       BL               _ZNK6String7indexOfEcj
 1567 00000010 BD70            POP              {r4-r6,pc}
 1568 00000012                 ENDP
 1569 00000012         
 1570 00000012         
 1571 00000012                 AREA             ||i._ZNK6String7indexOfEcj||, C
ODE, READONLY, ALIGN=1
 1572 00000000         
 1573 00000000         _ZNK6String7indexOfEcj
                               PROC
 1574 00000000 E92D 41F0       PUSH             {r4-r8,lr}
 1575 00000004 4605            MOV              r5,r0
 1576 00000006 460F            MOV              r7,r1
 1577 00000008 4616            MOV              r6,r2
 1578 0000000A 68A8            LDR              r0,[r5,#8]
 1579 0000000C 42B0            CMP              r0,r6
 1580 0000000E D803            BHI              |L52.24|
 1581 00000010 F04F 30FF       MOV              r0,#0xffffffff
 1582 00000014         |L52.20|
 1583 00000014 E8BD 81F0       POP              {r4-r8,pc}



ARM Macro Assembler    Page 30 


 1584 00000018         |L52.24|
 1585 00000018 6828            LDR              r0,[r5,#0]
 1586 0000001A EB00 0806       ADD              r8,r0,r6
 1587 0000001E 4639            MOV              r1,r7
 1588 00000020 4640            MOV              r0,r8
 1589 00000022 F7FF FFFE       BL               strchr
 1590 00000026 4604            MOV              r4,r0
 1591 00000028 BF00            NOP
 1592 0000002A B914            CBNZ             r4,|L52.50|
 1593 0000002C F04F 30FF       MOV              r0,#0xffffffff
 1594 00000030 E7F0            B                |L52.20|
 1595 00000032         |L52.50|
 1596 00000032 6828            LDR              r0,[r5,#0]
 1597 00000034 1A20            SUBS             r0,r4,r0
 1598 00000036 E7ED            B                |L52.20|
 1599 00000038                 ENDP
 1600 00000038         
 1601 00000038         
 1602 00000038                 AREA             ||i._ZNK6String7toFloatEv||, CO
DE, READONLY, ALIGN=2
 1603 00000000         
 1604 00000000         _ZNK6String7toFloatEv
                               PROC
 1605 00000000 B510            PUSH             {r4,lr}
 1606 00000002 ED2D 8B02       VPUSH            {d8}
 1607 00000006 4604            MOV              r4,r0
 1608 00000008 6820            LDR              r0,[r4,#0]
 1609 0000000A B178            CBZ              r0,|L53.44|
 1610 0000000C 6820            LDR              r0,[r4,#0]
 1611 0000000E F7FF FFFE       BL               __hardfp_atof
 1612 00000012 EEB0 8A40       VMOV.F32         s16,s0
 1613 00000016 EEF0 8A60       VMOV.F32         s17,s1
 1614 0000001A EC51 0B18       VMOV             r0,r1,d8
 1615 0000001E F7FF FFFE       BL               __aeabi_d2f
 1616 00000022 EE00 0A10       VMOV             s0,r0
 1617 00000026         |L53.38|
 1618 00000026 ECBD 8B02       VPOP             {d8}
 1619 0000002A BD10            POP              {r4,pc}
 1620 0000002C         |L53.44|
 1621 0000002C ED9F 0A01       VLDR             s0,|L53.52|
 1622 00000030 E7F9            B                |L53.38|
 1623 00000032                 ENDP
 1624 00000032         
 1625 00000032 00 00           DCW              0x0000
 1626 00000034         |L53.52|
 1627 00000034 00000000        DCFS             0x00000000  ; 0
 1628 00000038         
 1629 00000038                 AREA             ||i._ZNK6String8endsWithERKS_||
, CODE, READONLY, ALIGN=1
 1630 00000000         
 1631 00000000         _ZNK6String8endsWithERKS_
                               PROC
 1632 00000000 B570            PUSH             {r4-r6,lr}
 1633 00000002 4604            MOV              r4,r0
 1634 00000004 460D            MOV              r5,r1
 1635 00000006 68A0            LDR              r0,[r4,#8]
 1636 00000008 68A9            LDR              r1,[r5,#8]
 1637 0000000A 4288            CMP              r0,r1
 1638 0000000C D303            BCC              |L54.22|



ARM Macro Assembler    Page 31 


 1639 0000000E 6820            LDR              r0,[r4,#0]
 1640 00000010 B108            CBZ              r0,|L54.22|
 1641 00000012 6828            LDR              r0,[r5,#0]
 1642 00000014 B908            CBNZ             r0,|L54.26|
 1643 00000016         |L54.22|
 1644 00000016 2000            MOVS             r0,#0
 1645 00000018         |L54.24|
 1646 00000018 BD70            POP              {r4-r6,pc}
 1647 0000001A         |L54.26|
 1648 0000001A 68A2            LDR              r2,[r4,#8]
 1649 0000001C 68AB            LDR              r3,[r5,#8]
 1650 0000001E 1AD2            SUBS             r2,r2,r3
 1651 00000020 6823            LDR              r3,[r4,#0]
 1652 00000022 18D0            ADDS             r0,r2,r3
 1653 00000024 6829            LDR              r1,[r5,#0]
 1654 00000026 F7FF FFFE       BL               strcmp
 1655 0000002A B908            CBNZ             r0,|L54.48|
 1656 0000002C 2001            MOVS             r0,#1
 1657 0000002E E7F3            B                |L54.24|
 1658 00000030         |L54.48|
 1659 00000030 2000            MOVS             r0,#0
 1660 00000032 E7F1            B                |L54.24|
 1661 00000034                 ENDP
 1662 00000034         
 1663 00000034         
 1664 00000034                 AREA             ||i._ZNK6String8getBytesEPhjj||
, CODE, READONLY, ALIGN=1
 1665 00000000         
 1666 00000000         _ZNK6String8getBytesEPhjj
                               PROC
 1667 00000000 E92D 41F0       PUSH             {r4-r8,lr}
 1668 00000004 4604            MOV              r4,r0
 1669 00000006 460D            MOV              r5,r1
 1670 00000008 4690            MOV              r8,r2
 1671 0000000A 461E            MOV              r6,r3
 1672 0000000C F1B8 0F00       CMP              r8,#0
 1673 00000010 D000            BEQ              |L55.20|
 1674 00000012 B90D            CBNZ             r5,|L55.24|
 1675 00000014         |L55.20|
 1676 00000014 E8BD 81F0       POP              {r4-r8,pc}
 1677 00000018         |L55.24|
 1678 00000018 68A0            LDR              r0,[r4,#8]
 1679 0000001A 42B0            CMP              r0,r6
 1680 0000001C D802            BHI              |L55.36|
 1681 0000001E 2000            MOVS             r0,#0
 1682 00000020 7028            STRB             r0,[r5,#0]
 1683 00000022 E7F7            B                |L55.20|
 1684 00000024         |L55.36|
 1685 00000024 F1A8 0701       SUB              r7,r8,#1
 1686 00000028 68A0            LDR              r0,[r4,#8]
 1687 0000002A 1B80            SUBS             r0,r0,r6
 1688 0000002C 42B8            CMP              r0,r7
 1689 0000002E D201            BCS              |L55.52|
 1690 00000030 68A0            LDR              r0,[r4,#8]
 1691 00000032 1B87            SUBS             r7,r0,r6
 1692 00000034         |L55.52|
 1693 00000034 6820            LDR              r0,[r4,#0]
 1694 00000036 1981            ADDS             r1,r0,r6
 1695 00000038 463A            MOV              r2,r7



ARM Macro Assembler    Page 32 


 1696 0000003A 4628            MOV              r0,r5
 1697 0000003C F7FF FFFE       BL               strncpy
 1698 00000040 2000            MOVS             r0,#0
 1699 00000042 55E8            STRB             r0,[r5,r7]
 1700 00000044 BF00            NOP
 1701 00000046 E7E5            B                |L55.20|
 1702 00000048                 ENDP
 1703 00000048         
 1704 00000048         
 1705 00000048                 AREA             ||i._ZNK6String9compareToERKS_|
|, CODE, READONLY, ALIGN=1
 1706 00000000         
 1707 00000000         _ZNK6String9compareToERKS_
                               PROC
 1708 00000000 B570            PUSH             {r4-r6,lr}
 1709 00000002 4604            MOV              r4,r0
 1710 00000004 460D            MOV              r5,r1
 1711 00000006 6820            LDR              r0,[r4,#0]
 1712 00000008 B108            CBZ              r0,|L56.14|
 1713 0000000A 6828            LDR              r0,[r5,#0]
 1714 0000000C B980            CBNZ             r0,|L56.48|
 1715 0000000E         |L56.14|
 1716 0000000E 6828            LDR              r0,[r5,#0]
 1717 00000010 B128            CBZ              r0,|L56.30|
 1718 00000012 68A8            LDR              r0,[r5,#8]
 1719 00000014 B118            CBZ              r0,|L56.30|
 1720 00000016 6828            LDR              r0,[r5,#0]
 1721 00000018 7800            LDRB             r0,[r0,#0]
 1722 0000001A 4240            RSBS             r0,r0,#0
 1723 0000001C         |L56.28|
 1724 0000001C BD70            POP              {r4-r6,pc}
 1725 0000001E         |L56.30|
 1726 0000001E 6820            LDR              r0,[r4,#0]
 1727 00000020 B120            CBZ              r0,|L56.44|
 1728 00000022 68A0            LDR              r0,[r4,#8]
 1729 00000024 B110            CBZ              r0,|L56.44|
 1730 00000026 6820            LDR              r0,[r4,#0]
 1731 00000028 7800            LDRB             r0,[r0,#0]
 1732 0000002A E7F7            B                |L56.28|
 1733 0000002C         |L56.44|
 1734 0000002C 2000            MOVS             r0,#0
 1735 0000002E E7F5            B                |L56.28|
 1736 00000030         |L56.48|
 1737 00000030 6829            LDR              r1,[r5,#0]
 1738 00000032 6820            LDR              r0,[r4,#0]
 1739 00000034 F7FF FFFE       BL               strcmp
 1740 00000038 E7F0            B                |L56.28|
 1741 0000003A                 ENDP
 1742 0000003A         
 1743 0000003A         
 1744 0000003A                 AREA             ||i._ZNK6String9substringEjj||,
 CODE, READONLY, ALIGN=2
 1745 00000000         
 1746 00000000         _ZNK6String9substringEjj
                               PROC
 1747 00000000 E92D 41F0       PUSH             {r4-r8,lr}
 1748 00000004 4680            MOV              r8,r0
 1749 00000006 460C            MOV              r4,r1
 1750 00000008 4616            MOV              r6,r2



ARM Macro Assembler    Page 33 


 1751 0000000A 461D            MOV              r5,r3
 1752 0000000C 42AE            CMP              r6,r5
 1753 0000000E D903            BLS              |L57.24|
 1754 00000010 4628            MOV              r0,r5
 1755 00000012 4635            MOV              r5,r6
 1756 00000014 4606            MOV              r6,r0
 1757 00000016 BF00            NOP
 1758 00000018         |L57.24|
 1759 00000018 A10D            ADR              r1,|L57.80|
 1760 0000001A 4640            MOV              r0,r8
 1761 0000001C F7FF FFFE       BL               _ZN6StringC1EPKc
 1762 00000020 4680            MOV              r8,r0
 1763 00000022 68A0            LDR              r0,[r4,#8]
 1764 00000024 42B0            CMP              r0,r6
 1765 00000026 D201            BCS              |L57.44|
 1766 00000028         |L57.40|
 1767 00000028 E8BD 81F0       POP              {r4-r8,pc}
 1768 0000002C         |L57.44|
 1769 0000002C 68A0            LDR              r0,[r4,#8]
 1770 0000002E 42A8            CMP              r0,r5
 1771 00000030 D200            BCS              |L57.52|
 1772 00000032 68A5            LDR              r5,[r4,#8]
 1773 00000034         |L57.52|
 1774 00000034 6820            LDR              r0,[r4,#0]
 1775 00000036 5D47            LDRB             r7,[r0,r5]
 1776 00000038 2000            MOVS             r0,#0
 1777 0000003A 6821            LDR              r1,[r4,#0]
 1778 0000003C 5548            STRB             r0,[r1,r5]
 1779 0000003E 6820            LDR              r0,[r4,#0]
 1780 00000040 1981            ADDS             r1,r0,r6
 1781 00000042 4640            MOV              r0,r8
 1782 00000044 F7FF FFFE       BL               _ZN6StringaSEPKc
 1783 00000048 6820            LDR              r0,[r4,#0]
 1784 0000004A 5547            STRB             r7,[r0,r5]
 1785 0000004C BF00            NOP
 1786 0000004E E7EB            B                |L57.40|
 1787 00000050                 ENDP
 1788 00000050         
 1789 00000050         |L57.80|
 1790 00000050 00              DCB              0
 1791 00000051 00              DCB              0
 1792 00000052 00              DCB              0
 1793 00000053 00              DCB              0
 1794 00000054         
 1795 00000054                 AREA             ||i._ZNK6StringgeERKS_||, CODE,
 READONLY, ALIGN=1
 1796 00000000         
 1797 00000000         _ZNK6StringgeERKS_
                               PROC
 1798 00000000 B570            PUSH             {r4-r6,lr}
 1799 00000002 4604            MOV              r4,r0
 1800 00000004 460D            MOV              r5,r1
 1801 00000006 4629            MOV              r1,r5
 1802 00000008 4620            MOV              r0,r4
 1803 0000000A F7FF FFFE       BL               _ZNK6String9compareToERKS_
 1804 0000000E 17C0            ASRS             r0,r0,#31
 1805 00000010 1C40            ADDS             r0,r0,#1
 1806 00000012 BD70            POP              {r4-r6,pc}
 1807 00000014                 ENDP



ARM Macro Assembler    Page 34 


 1808 00000014         
 1809 00000014         
 1810 00000014                 AREA             ||i._ZNK6StringgtERKS_||, CODE,
 READONLY, ALIGN=1
 1811 00000000         
 1812 00000000         _ZNK6StringgtERKS_
                               PROC
 1813 00000000 B570            PUSH             {r4-r6,lr}
 1814 00000002 4604            MOV              r4,r0
 1815 00000004 460D            MOV              r5,r1
 1816 00000006 4629            MOV              r1,r5
 1817 00000008 4620            MOV              r0,r4
 1818 0000000A F7FF FFFE       BL               _ZNK6String9compareToERKS_
 1819 0000000E 2800            CMP              r0,#0
 1820 00000010 DD01            BLE              |L59.22|
 1821 00000012 2001            MOVS             r0,#1
 1822 00000014         |L59.20|
 1823 00000014 BD70            POP              {r4-r6,pc}
 1824 00000016         |L59.22|
 1825 00000016 2000            MOVS             r0,#0
 1826 00000018 E7FC            B                |L59.20|
 1827 0000001A                 ENDP
 1828 0000001A         
 1829 0000001A         
 1830 0000001A                 AREA             ||i._ZNK6StringixEj||, CODE, RE
ADONLY, ALIGN=1
 1831 00000000         
 1832 00000000         _ZNK6StringixEj
                               PROC
 1833 00000000 4602            MOV              r2,r0
 1834 00000002 6890            LDR              r0,[r2,#8]
 1835 00000004 4288            CMP              r0,r1
 1836 00000006 D901            BLS              |L60.12|
 1837 00000008 6810            LDR              r0,[r2,#0]
 1838 0000000A B908            CBNZ             r0,|L60.16|
 1839 0000000C         |L60.12|
 1840 0000000C 2000            MOVS             r0,#0
 1841 0000000E         |L60.14|
 1842 0000000E 4770            BX               lr
 1843 00000010         |L60.16|
 1844 00000010 6810            LDR              r0,[r2,#0]
 1845 00000012 5C40            LDRB             r0,[r0,r1]
 1846 00000014 E7FB            B                |L60.14|
 1847 00000016                 ENDP
 1848 00000016         
 1849 00000016         
 1850 00000016                 AREA             ||i._ZNK6StringleERKS_||, CODE,
 READONLY, ALIGN=1
 1851 00000000         
 1852 00000000         _ZNK6StringleERKS_
                               PROC
 1853 00000000 B570            PUSH             {r4-r6,lr}
 1854 00000002 4604            MOV              r4,r0
 1855 00000004 460D            MOV              r5,r1
 1856 00000006 4629            MOV              r1,r5
 1857 00000008 4620            MOV              r0,r4
 1858 0000000A F7FF FFFE       BL               _ZNK6String9compareToERKS_
 1859 0000000E 2800            CMP              r0,#0
 1860 00000010 DC01            BGT              |L61.22|



ARM Macro Assembler    Page 35 


 1861 00000012 2001            MOVS             r0,#1
 1862 00000014         |L61.20|
 1863 00000014 BD70            POP              {r4-r6,pc}
 1864 00000016         |L61.22|
 1865 00000016 2000            MOVS             r0,#0
 1866 00000018 E7FC            B                |L61.20|
 1867 0000001A                 ENDP
 1868 0000001A         
 1869 0000001A         
 1870 0000001A                 AREA             ||i._ZNK6StringltERKS_||, CODE,
 READONLY, ALIGN=1
 1871 00000000         
 1872 00000000         _ZNK6StringltERKS_
                               PROC
 1873 00000000 B570            PUSH             {r4-r6,lr}
 1874 00000002 4604            MOV              r4,r0
 1875 00000004 460D            MOV              r5,r1
 1876 00000006 4629            MOV              r1,r5
 1877 00000008 4620            MOV              r0,r4
 1878 0000000A F7FF FFFE       BL               _ZNK6String9compareToERKS_
 1879 0000000E 0FC0            LSRS             r0,r0,#31
 1880 00000010 BD70            POP              {r4-r6,pc}
 1881 00000012                 ENDP
 1882 00000012         
 1883 00000012         
 1884 00000012                 AREA             ||i._ZplRK15StringSumHelperPKc|
|, CODE, READONLY, ALIGN=1
 1885 00000000         
 1886 00000000         _ZplRK15StringSumHelperPKc
                               PROC
 1887 00000000 E92D 41F0       PUSH             {r4-r8,lr}
 1888 00000004 4605            MOV              r5,r0
 1889 00000006 460C            MOV              r4,r1
 1890 00000008 462E            MOV              r6,r5
 1891 0000000A B14C            CBZ              r4,|L63.32|
 1892 0000000C 4620            MOV              r0,r4
 1893 0000000E F7FF FFFE       BL               strlen
 1894 00000012 4607            MOV              r7,r0
 1895 00000014 463A            MOV              r2,r7
 1896 00000016 4621            MOV              r1,r4
 1897 00000018 4630            MOV              r0,r6
 1898 0000001A F7FF FFFE       BL               _ZN6String6concatEPKcj
 1899 0000001E B910            CBNZ             r0,|L63.38|
 1900 00000020         |L63.32|
 1901 00000020 4630            MOV              r0,r6
 1902 00000022 F7FF FFFE       BL               _ZN6String10invalidateEv
 1903 00000026         |L63.38|
 1904 00000026 4630            MOV              r0,r6
 1905 00000028 E8BD 81F0       POP              {r4-r8,pc}
 1906 0000002C                 ENDP
 1907 0000002C         
 1908 0000002C         
 1909 0000002C                 AREA             ||i._ZplRK15StringSumHelperRK6S
tring||, CODE, READONLY, ALIGN=1
 1910 00000000         
 1911 00000000         _ZplRK15StringSumHelperRK6String
                               PROC
 1912 00000000 B570            PUSH             {r4-r6,lr}
 1913 00000002 4605            MOV              r5,r0



ARM Macro Assembler    Page 36 


 1914 00000004 460C            MOV              r4,r1
 1915 00000006 462E            MOV              r6,r5
 1916 00000008 4630            MOV              r0,r6
 1917 0000000A 68A2            LDR              r2,[r4,#8]
 1918 0000000C 6821            LDR              r1,[r4,#0]
 1919 0000000E F7FF FFFE       BL               _ZN6String6concatEPKcj
 1920 00000012 B910            CBNZ             r0,|L64.26|
 1921 00000014 4630            MOV              r0,r6
 1922 00000016 F7FF FFFE       BL               _ZN6String10invalidateEv
 1923 0000001A         |L64.26|
 1924 0000001A 4630            MOV              r0,r6
 1925 0000001C BD70            POP              {r4-r6,pc}
 1926 0000001E                 ENDP
 1927 0000001E         
 1928 0000001E         
 1929 0000001E                 AREA             ||i._ZplRK15StringSumHelperc||,
 CODE, READONLY, ALIGN=1
 1930 00000000         
 1931 00000000         _ZplRK15StringSumHelperc
                               PROC
 1932 00000000 B570            PUSH             {r4-r6,lr}
 1933 00000002 4604            MOV              r4,r0
 1934 00000004 460D            MOV              r5,r1
 1935 00000006 4626            MOV              r6,r4
 1936 00000008 4629            MOV              r1,r5
 1937 0000000A 4630            MOV              r0,r6
 1938 0000000C F7FF FFFE       BL               _ZN6String6concatEc
 1939 00000010 B910            CBNZ             r0,|L65.24|
 1940 00000012 4630            MOV              r0,r6
 1941 00000014 F7FF FFFE       BL               _ZN6String10invalidateEv
 1942 00000018         |L65.24|
 1943 00000018 4630            MOV              r0,r6
 1944 0000001A BD70            POP              {r4-r6,pc}
 1945 0000001C                 ENDP
 1946 0000001C         
 1947 0000001C         
 1948 0000001C                 AREA             ||i._ZplRK15StringSumHelperd||,
 CODE, READONLY, ALIGN=1
 1949 00000000         
 1950 00000000         _ZplRK15StringSumHelperd
                               PROC
 1951 00000000 B570            PUSH             {r4-r6,lr}
 1952 00000002 ED2D 8B02       VPUSH            {d8}
 1953 00000006 4604            MOV              r4,r0
 1954 00000008 EEB0 8A40       VMOV.F32         s16,s0
 1955 0000000C EEF0 8A60       VMOV.F32         s17,s1
 1956 00000010 4625            MOV              r5,r4
 1957 00000012 EEB0 0A48       VMOV.F32         s0,s16
 1958 00000016 EEF0 0A68       VMOV.F32         s1,s17
 1959 0000001A 4628            MOV              r0,r5
 1960 0000001C F7FF FFFE       BL               _ZN6String6concatEd
 1961 00000020 B910            CBNZ             r0,|L66.40|
 1962 00000022 4628            MOV              r0,r5
 1963 00000024 F7FF FFFE       BL               _ZN6String10invalidateEv
 1964 00000028         |L66.40|
 1965 00000028 4628            MOV              r0,r5
 1966 0000002A ECBD 8B02       VPOP             {d8}
 1967 0000002E BD70            POP              {r4-r6,pc}
 1968 00000030                 ENDP



ARM Macro Assembler    Page 37 


 1969 00000030         
 1970 00000030         
 1971 00000030                 AREA             ||i._ZplRK15StringSumHelperf||,
 CODE, READONLY, ALIGN=1
 1972 00000000         
 1973 00000000         _ZplRK15StringSumHelperf
                               PROC
 1974 00000000 B570            PUSH             {r4-r6,lr}
 1975 00000002 ED2D 8B02       VPUSH            {d8}
 1976 00000006 4604            MOV              r4,r0
 1977 00000008 EEB0 8A40       VMOV.F32         s16,s0
 1978 0000000C 4625            MOV              r5,r4
 1979 0000000E EEB0 0A48       VMOV.F32         s0,s16
 1980 00000012 4628            MOV              r0,r5
 1981 00000014 F7FF FFFE       BL               _ZN6String6concatEf
 1982 00000018 B910            CBNZ             r0,|L67.32|
 1983 0000001A 4628            MOV              r0,r5
 1984 0000001C F7FF FFFE       BL               _ZN6String10invalidateEv
 1985 00000020         |L67.32|
 1986 00000020 4628            MOV              r0,r5
 1987 00000022 ECBD 8B02       VPOP             {d8}
 1988 00000026 BD70            POP              {r4-r6,pc}
 1989 00000028                 ENDP
 1990 00000028         
 1991 00000028         
 1992 00000028                 AREA             ||i._ZplRK15StringSumHelperh||,
 CODE, READONLY, ALIGN=1
 1993 00000000         
 1994 00000000         _ZplRK15StringSumHelperh
                               PROC
 1995 00000000 B570            PUSH             {r4-r6,lr}
 1996 00000002 4604            MOV              r4,r0
 1997 00000004 460D            MOV              r5,r1
 1998 00000006 4626            MOV              r6,r4
 1999 00000008 4629            MOV              r1,r5
 2000 0000000A 4630            MOV              r0,r6
 2001 0000000C F7FF FFFE       BL               _ZN6String6concatEh
 2002 00000010 B910            CBNZ             r0,|L68.24|
 2003 00000012 4630            MOV              r0,r6
 2004 00000014 F7FF FFFE       BL               _ZN6String10invalidateEv
 2005 00000018         |L68.24|
 2006 00000018 4630            MOV              r0,r6
 2007 0000001A BD70            POP              {r4-r6,pc}
 2008 0000001C                 ENDP
 2009 0000001C         
 2010 0000001C         
 2011 0000001C                 AREA             ||i._ZplRK15StringSumHelperi||,
 CODE, READONLY, ALIGN=1
 2012 00000000         
 2013 00000000         _ZplRK15StringSumHelperi
                               PROC
 2014 00000000 B570            PUSH             {r4-r6,lr}
 2015 00000002 4604            MOV              r4,r0
 2016 00000004 460D            MOV              r5,r1
 2017 00000006 4626            MOV              r6,r4
 2018 00000008 4629            MOV              r1,r5
 2019 0000000A 4630            MOV              r0,r6
 2020 0000000C F7FF FFFE       BL               _ZN6String6concatEi
 2021 00000010 B910            CBNZ             r0,|L69.24|



ARM Macro Assembler    Page 38 


 2022 00000012 4630            MOV              r0,r6
 2023 00000014 F7FF FFFE       BL               _ZN6String10invalidateEv
 2024 00000018         |L69.24|
 2025 00000018 4630            MOV              r0,r6
 2026 0000001A BD70            POP              {r4-r6,pc}
 2027 0000001C                 ENDP
 2028 0000001C         
 2029 0000001C         
 2030 0000001C                 AREA             ||i._ZplRK15StringSumHelperj||,
 CODE, READONLY, ALIGN=1
 2031 00000000         
 2032 00000000         _ZplRK15StringSumHelperj
                               PROC
 2033 00000000 B570            PUSH             {r4-r6,lr}
 2034 00000002 4604            MOV              r4,r0
 2035 00000004 460D            MOV              r5,r1
 2036 00000006 4626            MOV              r6,r4
 2037 00000008 4629            MOV              r1,r5
 2038 0000000A 4630            MOV              r0,r6
 2039 0000000C F7FF FFFE       BL               _ZN6String6concatEj
 2040 00000010 B910            CBNZ             r0,|L70.24|
 2041 00000012 4630            MOV              r0,r6
 2042 00000014 F7FF FFFE       BL               _ZN6String10invalidateEv
 2043 00000018         |L70.24|
 2044 00000018 4630            MOV              r0,r6
 2045 0000001A BD70            POP              {r4-r6,pc}
 2046 0000001C                 ENDP
 2047 0000001C         
 2048 0000001C         
 2049 0000001C                 AREA             ||i._ZplRK15StringSumHelperl||,
 CODE, READONLY, ALIGN=1
 2050 00000000         
 2051 00000000         _ZplRK15StringSumHelperl
                               PROC
 2052 00000000 B570            PUSH             {r4-r6,lr}
 2053 00000002 4604            MOV              r4,r0
 2054 00000004 460D            MOV              r5,r1
 2055 00000006 4626            MOV              r6,r4
 2056 00000008 4629            MOV              r1,r5
 2057 0000000A 4630            MOV              r0,r6
 2058 0000000C F7FF FFFE       BL               _ZN6String6concatEl
 2059 00000010 B910            CBNZ             r0,|L71.24|
 2060 00000012 4630            MOV              r0,r6
 2061 00000014 F7FF FFFE       BL               _ZN6String10invalidateEv
 2062 00000018         |L71.24|
 2063 00000018 4630            MOV              r0,r6
 2064 0000001A BD70            POP              {r4-r6,pc}
 2065 0000001C                 ENDP
 2066 0000001C         
 2067 0000001C         
 2068 0000001C                 AREA             ||i._ZplRK15StringSumHelperm||,
 CODE, READONLY, ALIGN=1
 2069 00000000         
 2070 00000000         _ZplRK15StringSumHelperm
                               PROC
 2071 00000000 B570            PUSH             {r4-r6,lr}
 2072 00000002 4604            MOV              r4,r0
 2073 00000004 460D            MOV              r5,r1
 2074 00000006 4626            MOV              r6,r4



ARM Macro Assembler    Page 39 


 2075 00000008 4629            MOV              r1,r5
 2076 0000000A 4630            MOV              r0,r6
 2077 0000000C F7FF FFFE       BL               _ZN6String6concatEm
 2078 00000010 B910            CBNZ             r0,|L72.24|
 2079 00000012 4630            MOV              r0,r6
 2080 00000014 F7FF FFFE       BL               _ZN6String10invalidateEv
 2081 00000018         |L72.24|
 2082 00000018 4630            MOV              r0,r6
 2083 0000001A BD70            POP              {r4-r6,pc}
 2084 0000001C                 ENDP
 2085 0000001C         
 2086 0000001C         
 2087 0000001C                 AREA             ||.ARM.exidx||, LINKORDER=||i.N
OPS_FOR_USEC||, DATA, READONLY, SECTYPE={SHT_ARM_EXIDX}, ALIGN=2
 2088 00000000         
 2089 00000000 00000000        DCD              0x00000000
 2090 00000004                 RELOC            42, ||i.NOPS_FOR_USEC||
 2091 00000004 00000001        DCD              0x00000001
 2092 00000008         
 2093 00000008                 AREA             ||area_number.74||, LINKORDER=|
|i._ZN6String10invalidateEv||, DATA, READONLY, SECTYPE={SHT_ARM_EXIDX}, ALIGN=2
 2094 00000000         
 2095 00000000                 EXPORTAS         ||area_number.74||, ||.ARM.exid
x||
 2096 00000000 00000000        DCD              0x00000000
 2097 00000004                 RELOC            42, ||i._ZN6String10invalidateE
v||
 2098 00000004 00000001        DCD              0x00000001
 2099 00000008         
 2100 00000008                 AREA             ||area_number.75||, LINKORDER=|
|i._ZN6String12changeBufferEj||, DATA, READONLY, SECTYPE={SHT_ARM_EXIDX}, ALIGN
=2
 2101 00000000         
 2102 00000000                 EXPORTAS         ||area_number.75||, ||.ARM.exid
x||
 2103 00000000 00000000        DCD              0x00000000
 2104 00000004                 RELOC            42, ||i._ZN6String12changeBuffe
rEj||
 2105 00000004 00000001        DCD              0x00000001
 2106 00000008         
 2107 00000008                 AREA             ||area_number.76||, LINKORDER=|
|i._ZN6String7reserveEj||, DATA, READONLY, SECTYPE={SHT_ARM_EXIDX}, ALIGN=2
 2108 00000000         
 2109 00000000                 EXPORTAS         ||area_number.76||, ||.ARM.exid
x||
 2110 00000000 00000000        DCD              0x00000000
 2111 00000004                 RELOC            42, ||i._ZN6String7reserveEj||
 2112 00000004 00000001        DCD              0x00000001
 2113 00000008         
 2114 00000008                 AREA             ||area_number.77||, LINKORDER=|
|i._ZN6String6concatEPKcj||, DATA, READONLY, SECTYPE={SHT_ARM_EXIDX}, ALIGN=2
 2115 00000000         
 2116 00000000                 EXPORTAS         ||area_number.77||, ||.ARM.exid
x||
 2117 00000000 00000000        DCD              0x00000000
 2118 00000004                 RELOC            42, ||i._ZN6String6concatEPKcj|
|
 2119 00000004 00000001        DCD              0x00000001
 2120 00000008         



ARM Macro Assembler    Page 40 


 2121 00000008                 AREA             ||area_number.78||, LINKORDER=|
|i._ZplRK15StringSumHelperRK6String||, DATA, READONLY, SECTYPE={SHT_ARM_EXIDX},
 ALIGN=2
 2122 00000000         
 2123 00000000                 EXPORTAS         ||area_number.78||, ||.ARM.exid
x||
 2124 00000000 00000000        DCD              0x00000000
 2125 00000004                 RELOC            42, ||i._ZplRK15StringSumHelper
RK6String||
 2126 00000004 00000001        DCD              0x00000001
 2127 00000008         
 2128 00000008                 AREA             ||area_number.79||, LINKORDER=|
|i._ZplRK15StringSumHelperPKc||, DATA, READONLY, SECTYPE={SHT_ARM_EXIDX}, ALIGN
=2
 2129 00000000         
 2130 00000000                 EXPORTAS         ||area_number.79||, ||.ARM.exid
x||
 2131 00000000 00000000        DCD              0x00000000
 2132 00000004                 RELOC            42, ||i._ZplRK15StringSumHelper
PKc||
 2133 00000004 00000001        DCD              0x00000001
 2134 00000008         
 2135 00000008                 AREA             ||area_number.80||, LINKORDER=|
|i._ZN6String6concatEc||, DATA, READONLY, SECTYPE={SHT_ARM_EXIDX}, ALIGN=2
 2136 00000000         
 2137 00000000                 EXPORTAS         ||area_number.80||, ||.ARM.exid
x||
 2138 00000000 00000000        DCD              0x00000000
 2139 00000004                 RELOC            42, ||i._ZN6String6concatEc||
 2140 00000004 00000001        DCD              0x00000001
 2141 00000008         
 2142 00000008                 AREA             ||area_number.81||, LINKORDER=|
|i._ZplRK15StringSumHelperc||, DATA, READONLY, SECTYPE={SHT_ARM_EXIDX}, ALIGN=2
 2143 00000000         
 2144 00000000                 EXPORTAS         ||area_number.81||, ||.ARM.exid
x||
 2145 00000000 00000000        DCD              0x00000000
 2146 00000004                 RELOC            42, ||i._ZplRK15StringSumHelper
c||
 2147 00000004 00000001        DCD              0x00000001
 2148 00000008         
 2149 00000008                 AREA             ||area_number.82||, LINKORDER=|
|i._ZN6String6concatEh||, DATA, READONLY, SECTYPE={SHT_ARM_EXIDX}, ALIGN=2
 2150 00000000         
 2151 00000000                 EXPORTAS         ||area_number.82||, ||.ARM.exid
x||
 2152 00000000 00000000        DCD              0x00000000
 2153 00000004                 RELOC            42, ||i._ZN6String6concatEh||
 2154 00000004 00000001        DCD              0x00000001
 2155 00000008         
 2156 00000008                 AREA             ||area_number.83||, LINKORDER=|
|i._ZplRK15StringSumHelperh||, DATA, READONLY, SECTYPE={SHT_ARM_EXIDX}, ALIGN=2
 2157 00000000         
 2158 00000000                 EXPORTAS         ||area_number.83||, ||.ARM.exid
x||
 2159 00000000 00000000        DCD              0x00000000
 2160 00000004                 RELOC            42, ||i._ZplRK15StringSumHelper
h||
 2161 00000004 00000001        DCD              0x00000001



ARM Macro Assembler    Page 41 


 2162 00000008         
 2163 00000008                 AREA             ||area_number.84||, LINKORDER=|
|i._ZN6String6concatEi||, DATA, READONLY, SECTYPE={SHT_ARM_EXIDX}, ALIGN=2
 2164 00000000         
 2165 00000000                 EXPORTAS         ||area_number.84||, ||.ARM.exid
x||
 2166 00000000 00000000        DCD              0x00000000
 2167 00000004                 RELOC            42, ||i._ZN6String6concatEi||
 2168 00000004 00000001        DCD              0x00000001
 2169 00000008         
 2170 00000008                 AREA             ||area_number.85||, LINKORDER=|
|i._ZplRK15StringSumHelperi||, DATA, READONLY, SECTYPE={SHT_ARM_EXIDX}, ALIGN=2
 2171 00000000         
 2172 00000000                 EXPORTAS         ||area_number.85||, ||.ARM.exid
x||
 2173 00000000 00000000        DCD              0x00000000
 2174 00000004                 RELOC            42, ||i._ZplRK15StringSumHelper
i||
 2175 00000004 00000001        DCD              0x00000001
 2176 00000008         
 2177 00000008                 AREA             ||area_number.86||, LINKORDER=|
|i._ZN6String6concatEj||, DATA, READONLY, SECTYPE={SHT_ARM_EXIDX}, ALIGN=2
 2178 00000000         
 2179 00000000                 EXPORTAS         ||area_number.86||, ||.ARM.exid
x||
 2180 00000000 00000000        DCD              0x00000000
 2181 00000004                 RELOC            42, ||i._ZN6String6concatEj||
 2182 00000004 00000001        DCD              0x00000001
 2183 00000008         
 2184 00000008                 AREA             ||area_number.87||, LINKORDER=|
|i._ZplRK15StringSumHelperj||, DATA, READONLY, SECTYPE={SHT_ARM_EXIDX}, ALIGN=2
 2185 00000000         
 2186 00000000                 EXPORTAS         ||area_number.87||, ||.ARM.exid
x||
 2187 00000000 00000000        DCD              0x00000000
 2188 00000004                 RELOC            42, ||i._ZplRK15StringSumHelper
j||
 2189 00000004 00000001        DCD              0x00000001
 2190 00000008         
 2191 00000008                 AREA             ||area_number.88||, LINKORDER=|
|i._ZN6String6concatEl||, DATA, READONLY, SECTYPE={SHT_ARM_EXIDX}, ALIGN=2
 2192 00000000         
 2193 00000000                 EXPORTAS         ||area_number.88||, ||.ARM.exid
x||
 2194 00000000 00000000        DCD              0x00000000
 2195 00000004                 RELOC            42, ||i._ZN6String6concatEl||
 2196 00000004 00000001        DCD              0x00000001
 2197 00000008         
 2198 00000008                 AREA             ||area_number.89||, LINKORDER=|
|i._ZplRK15StringSumHelperl||, DATA, READONLY, SECTYPE={SHT_ARM_EXIDX}, ALIGN=2
 2199 00000000         
 2200 00000000                 EXPORTAS         ||area_number.89||, ||.ARM.exid
x||
 2201 00000000 00000000        DCD              0x00000000
 2202 00000004                 RELOC            42, ||i._ZplRK15StringSumHelper
l||
 2203 00000004 00000001        DCD              0x00000001
 2204 00000008         
 2205 00000008                 AREA             ||area_number.90||, LINKORDER=|



ARM Macro Assembler    Page 42 


|i._ZN6String6concatEm||, DATA, READONLY, SECTYPE={SHT_ARM_EXIDX}, ALIGN=2
 2206 00000000         
 2207 00000000                 EXPORTAS         ||area_number.90||, ||.ARM.exid
x||
 2208 00000000 00000000        DCD              0x00000000
 2209 00000004                 RELOC            42, ||i._ZN6String6concatEm||
 2210 00000004 00000001        DCD              0x00000001
 2211 00000008         
 2212 00000008                 AREA             ||area_number.91||, LINKORDER=|
|i._ZplRK15StringSumHelperm||, DATA, READONLY, SECTYPE={SHT_ARM_EXIDX}, ALIGN=2
 2213 00000000         
 2214 00000000                 EXPORTAS         ||area_number.91||, ||.ARM.exid
x||
 2215 00000000 00000000        DCD              0x00000000
 2216 00000004                 RELOC            42, ||i._ZplRK15StringSumHelper
m||
 2217 00000004 00000001        DCD              0x00000001
 2218 00000008         
 2219 00000008                 AREA             ||area_number.92||, LINKORDER=|
|i._ZN6String6concatEf||, DATA, READONLY, SECTYPE={SHT_ARM_EXIDX}, ALIGN=2
 2220 00000000         
 2221 00000000                 EXPORTAS         ||area_number.92||, ||.ARM.exid
x||
 2222 00000000 00000000        DCD              0x00000000
 2223 00000004                 RELOC            42, ||i._ZN6String6concatEf||
 2224 00000004 00000001        DCD              0x00000001
 2225 00000008         
 2226 00000008                 AREA             ||area_number.93||, LINKORDER=|
|i._ZplRK15StringSumHelperf||, DATA, READONLY, SECTYPE={SHT_ARM_EXIDX}, ALIGN=2
 2227 00000000         
 2228 00000000                 EXPORTAS         ||area_number.93||, ||.ARM.exid
x||
 2229 00000000 00000000        DCD              0x00000000
 2230 00000004                 RELOC            42, ||i._ZplRK15StringSumHelper
f||
 2231 00000004 00000001        DCD              0x00000001
 2232 00000008         
 2233 00000008                 AREA             ||area_number.94||, LINKORDER=|
|i._ZN6String6concatEd||, DATA, READONLY, SECTYPE={SHT_ARM_EXIDX}, ALIGN=2
 2234 00000000         
 2235 00000000                 EXPORTAS         ||area_number.94||, ||.ARM.exid
x||
 2236 00000000 00000000        DCD              0x00000000
 2237 00000004                 RELOC            42, ||i._ZN6String6concatEd||
 2238 00000004 00000001        DCD              0x00000001
 2239 00000008         
 2240 00000008                 AREA             ||area_number.95||, LINKORDER=|
|i._ZplRK15StringSumHelperd||, DATA, READONLY, SECTYPE={SHT_ARM_EXIDX}, ALIGN=2
 2241 00000000         
 2242 00000000                 EXPORTAS         ||area_number.95||, ||.ARM.exid
x||
 2243 00000000 00000000        DCD              0x00000000
 2244 00000004                 RELOC            42, ||i._ZplRK15StringSumHelper
d||
 2245 00000004 00000001        DCD              0x00000001
 2246 00000008         
 2247 00000008                 AREA             ||area_number.96||, LINKORDER=|
|i._ZN6String4copyEPKcj||, DATA, READONLY, SECTYPE={SHT_ARM_EXIDX}, ALIGN=2
 2248 00000000         



ARM Macro Assembler    Page 43 


 2249 00000000                 EXPORTAS         ||area_number.96||, ||.ARM.exid
x||
 2250 00000000 00000000        DCD              0x00000000
 2251 00000004                 RELOC            42, ||i._ZN6String4copyEPKcj||
 2252 00000004 00000001        DCD              0x00000001
 2253 00000008         
 2254 00000008                 AREA             ||area_number.97||, LINKORDER=|
|i._ZN6StringC1EPKc||, DATA, READONLY, SECTYPE={SHT_ARM_EXIDX}, ALIGN=2
 2255 00000000         
 2256 00000000                 EXPORTAS         ||area_number.97||, ||.ARM.exid
x||
 2257 00000000 00000000        DCD              0x00000000
 2258 00000004                 RELOC            42, ||i._ZN6StringC1EPKc||
 2259 00000004 00000001        DCD              0x00000001
 2260 00000008         
 2261 00000008                 AREA             ||area_number.98||, LINKORDER=|
|i._ZN6StringaSERKS_||, DATA, READONLY, SECTYPE={SHT_ARM_EXIDX}, ALIGN=2
 2262 00000000         
 2263 00000000                 EXPORTAS         ||area_number.98||, ||.ARM.exid
x||
 2264 00000000 00000000        DCD              0x00000000
 2265 00000004                 RELOC            42, ||i._ZN6StringaSERKS_||
 2266 00000004 00000001        DCD              0x00000001
 2267 00000008         
 2268 00000008                 AREA             ||area_number.99||, LINKORDER=|
|i._ZN6StringC1ERKS_||, DATA, READONLY, SECTYPE={SHT_ARM_EXIDX}, ALIGN=2
 2269 00000000         
 2270 00000000                 EXPORTAS         ||area_number.99||, ||.ARM.exid
x||
 2271 00000000 00000000        DCD              0x00000000
 2272 00000004                 RELOC            42, ||i._ZN6StringC1ERKS_||
 2273 00000004 00000001        DCD              0x00000001
 2274 00000008         
 2275 00000008                 AREA             ||area_number.100||, LINKORDER=
||i._ZN6StringaSEPKc||, DATA, READONLY, SECTYPE={SHT_ARM_EXIDX}, ALIGN=2
 2276 00000000         
 2277 00000000                 EXPORTAS         ||area_number.100||, ||.ARM.exi
dx||
 2278 00000000 00000000        DCD              0x00000000
 2279 00000004                 RELOC            42, ||i._ZN6StringaSEPKc||
 2280 00000004 00000001        DCD              0x00000001
 2281 00000008         
 2282 00000008                 AREA             ||area_number.101||, LINKORDER=
||i._ZN6StringC1Ec||, DATA, READONLY, SECTYPE={SHT_ARM_EXIDX}, ALIGN=2
 2283 00000000         
 2284 00000000                 EXPORTAS         ||area_number.101||, ||.ARM.exi
dx||
 2285 00000000 00000000        DCD              0x00000000
 2286 00000004                 RELOC            42, ||i._ZN6StringC1Ec||
 2287 00000004 00000001        DCD              0x00000001
 2288 00000008         
 2289 00000008                 AREA             ||area_number.102||, LINKORDER=
||i._ZN6StringC1Ehh||, DATA, READONLY, SECTYPE={SHT_ARM_EXIDX}, ALIGN=2
 2290 00000000         
 2291 00000000                 EXPORTAS         ||area_number.102||, ||.ARM.exi
dx||
 2292 00000000 00000000        DCD              0x00000000
 2293 00000004                 RELOC            42, ||i._ZN6StringC1Ehh||
 2294 00000004 00000001        DCD              0x00000001



ARM Macro Assembler    Page 44 


 2295 00000008         
 2296 00000008                 AREA             ||area_number.103||, LINKORDER=
||i._ZN6StringC1Eih||, DATA, READONLY, SECTYPE={SHT_ARM_EXIDX}, ALIGN=2
 2297 00000000         
 2298 00000000                 EXPORTAS         ||area_number.103||, ||.ARM.exi
dx||
 2299 00000000 00000000        DCD              0x00000000
 2300 00000004                 RELOC            42, ||i._ZN6StringC1Eih||
 2301 00000004 00000001        DCD              0x00000001
 2302 00000008         
 2303 00000008                 AREA             ||area_number.104||, LINKORDER=
||i._ZN6StringC1Ejh||, DATA, READONLY, SECTYPE={SHT_ARM_EXIDX}, ALIGN=2
 2304 00000000         
 2305 00000000                 EXPORTAS         ||area_number.104||, ||.ARM.exi
dx||
 2306 00000000 00000000        DCD              0x00000000
 2307 00000004                 RELOC            42, ||i._ZN6StringC1Ejh||
 2308 00000004 00000001        DCD              0x00000001
 2309 00000008         
 2310 00000008                 AREA             ||area_number.105||, LINKORDER=
||i._ZN6StringC1Elh||, DATA, READONLY, SECTYPE={SHT_ARM_EXIDX}, ALIGN=2
 2311 00000000         
 2312 00000000                 EXPORTAS         ||area_number.105||, ||.ARM.exi
dx||
 2313 00000000 00000000        DCD              0x00000000
 2314 00000004                 RELOC            42, ||i._ZN6StringC1Elh||
 2315 00000004 00000001        DCD              0x00000001
 2316 00000008         
 2317 00000008                 AREA             ||area_number.106||, LINKORDER=
||i._ZN6StringC1Emh||, DATA, READONLY, SECTYPE={SHT_ARM_EXIDX}, ALIGN=2
 2318 00000000         
 2319 00000000                 EXPORTAS         ||area_number.106||, ||.ARM.exi
dx||
 2320 00000000 00000000        DCD              0x00000000
 2321 00000004                 RELOC            42, ||i._ZN6StringC1Emh||
 2322 00000004 00000001        DCD              0x00000001
 2323 00000008         
 2324 00000008                 AREA             ||area_number.107||, LINKORDER=
||i._ZN6StringC1Efh||, DATA, READONLY, SECTYPE={SHT_ARM_EXIDX}, ALIGN=2
 2325 00000000         
 2326 00000000                 EXPORTAS         ||area_number.107||, ||.ARM.exi
dx||
 2327 00000000 00000000        DCD              0x00000000
 2328 00000004                 RELOC            42, ||i._ZN6StringC1Efh||
 2329 00000004 00000001        DCD              0x00000001
 2330 00000008         
 2331 00000008                 AREA             ||area_number.108||, LINKORDER=
||i._ZN6StringC1Edh||, DATA, READONLY, SECTYPE={SHT_ARM_EXIDX}, ALIGN=2
 2332 00000000         
 2333 00000000                 EXPORTAS         ||area_number.108||, ||.ARM.exi
dx||
 2334 00000000 00000000        DCD              0x00000000
 2335 00000004                 RELOC            42, ||i._ZN6StringC1Edh||
 2336 00000004 00000001        DCD              0x00000001
 2337 00000008         
 2338 00000008                 AREA             ||area_number.109||, LINKORDER=
||i._ZN6StringD1Ev||, DATA, READONLY, SECTYPE={SHT_ARM_EXIDX}, ALIGN=2
 2339 00000000         
 2340 00000000                 EXPORTAS         ||area_number.109||, ||.ARM.exi



ARM Macro Assembler    Page 45 


dx||
 2341 00000000 00000000        DCD              0x00000000
 2342 00000004                 RELOC            42, ||i._ZN6StringD1Ev||
 2343 00000004 00000001        DCD              0x00000001
 2344 00000008         
 2345 00000008                 AREA             ||area_number.110||, LINKORDER=
||i._ZN6String6concatERKS_||, DATA, READONLY, SECTYPE={SHT_ARM_EXIDX}, ALIGN=2
 2346 00000000         
 2347 00000000                 EXPORTAS         ||area_number.110||, ||.ARM.exi
dx||
 2348 00000000 00000000        DCD              0x00000000
 2349 00000004                 RELOC            42, ||i._ZN6String6concatERKS_|
|
 2350 00000004 00000001        DCD              0x00000001
 2351 00000008         
 2352 00000008                 AREA             ||area_number.111||, LINKORDER=
||i._ZN6String6concatEPKc||, DATA, READONLY, SECTYPE={SHT_ARM_EXIDX}, ALIGN=2
 2353 00000000         
 2354 00000000                 EXPORTAS         ||area_number.111||, ||.ARM.exi
dx||
 2355 00000000 00000000        DCD              0x00000000
 2356 00000004                 RELOC            42, ||i._ZN6String6concatEPKc||
 2357 00000004 00000001        DCD              0x00000001
 2358 00000008         
 2359 00000008                 AREA             ||area_number.112||, LINKORDER=
||i._ZNK6String9compareToERKS_||, DATA, READONLY, SECTYPE={SHT_ARM_EXIDX}, ALIG
N=2
 2360 00000000         
 2361 00000000                 EXPORTAS         ||area_number.112||, ||.ARM.exi
dx||
 2362 00000000 00000000        DCD              0x00000000
 2363 00000004                 RELOC            42, ||i._ZNK6String9compareToER
KS_||
 2364 00000004 00000001        DCD              0x00000001
 2365 00000008         
 2366 00000008                 AREA             ||area_number.113||, LINKORDER=
||i._ZNK6String6equalsERKS_||, DATA, READONLY, SECTYPE={SHT_ARM_EXIDX}, ALIGN=2
 2367 00000000         
 2368 00000000                 EXPORTAS         ||area_number.113||, ||.ARM.exi
dx||
 2369 00000000 00000000        DCD              0x00000000
 2370 00000004                 RELOC            42, ||i._ZNK6String6equalsERKS_
||
 2371 00000004 00000001        DCD              0x00000001
 2372 00000008         
 2373 00000008                 AREA             ||area_number.114||, LINKORDER=
||i._ZNK6String6equalsEPKc||, DATA, READONLY, SECTYPE={SHT_ARM_EXIDX}, ALIGN=2
 2374 00000000         
 2375 00000000                 EXPORTAS         ||area_number.114||, ||.ARM.exi
dx||
 2376 00000000 00000000        DCD              0x00000000
 2377 00000004                 RELOC            42, ||i._ZNK6String6equalsEPKc|
|
 2378 00000004 00000001        DCD              0x00000001
 2379 00000008         
 2380 00000008                 AREA             ||area_number.115||, LINKORDER=
||i._ZNK6StringltERKS_||, DATA, READONLY, SECTYPE={SHT_ARM_EXIDX}, ALIGN=2
 2381 00000000         
 2382 00000000                 EXPORTAS         ||area_number.115||, ||.ARM.exi



ARM Macro Assembler    Page 46 


dx||
 2383 00000000 00000000        DCD              0x00000000
 2384 00000004                 RELOC            42, ||i._ZNK6StringltERKS_||
 2385 00000004 00000001        DCD              0x00000001
 2386 00000008         
 2387 00000008                 AREA             ||area_number.116||, LINKORDER=
||i._ZNK6StringgtERKS_||, DATA, READONLY, SECTYPE={SHT_ARM_EXIDX}, ALIGN=2
 2388 00000000         
 2389 00000000                 EXPORTAS         ||area_number.116||, ||.ARM.exi
dx||
 2390 00000000 00000000        DCD              0x00000000
 2391 00000004                 RELOC            42, ||i._ZNK6StringgtERKS_||
 2392 00000004 00000001        DCD              0x00000001
 2393 00000008         
 2394 00000008                 AREA             ||area_number.117||, LINKORDER=
||i._ZNK6StringleERKS_||, DATA, READONLY, SECTYPE={SHT_ARM_EXIDX}, ALIGN=2
 2395 00000000         
 2396 00000000                 EXPORTAS         ||area_number.117||, ||.ARM.exi
dx||
 2397 00000000 00000000        DCD              0x00000000
 2398 00000004                 RELOC            42, ||i._ZNK6StringleERKS_||
 2399 00000004 00000001        DCD              0x00000001
 2400 00000008         
 2401 00000008                 AREA             ||area_number.118||, LINKORDER=
||i._ZNK6StringgeERKS_||, DATA, READONLY, SECTYPE={SHT_ARM_EXIDX}, ALIGN=2
 2402 00000000         
 2403 00000000                 EXPORTAS         ||area_number.118||, ||.ARM.exi
dx||
 2404 00000000 00000000        DCD              0x00000000
 2405 00000004                 RELOC            42, ||i._ZNK6StringgeERKS_||
 2406 00000004 00000001        DCD              0x00000001
 2407 00000008         
 2408 00000008                 AREA             ||area_number.119||, LINKORDER=
||i._ZNK6String16equalsIgnoreCaseERKS_||, DATA, READONLY, SECTYPE={SHT_ARM_EXID
X}, ALIGN=2
 2409 00000000         
 2410 00000000                 EXPORTAS         ||area_number.119||, ||.ARM.exi
dx||
 2411 00000000 00000000        DCD              0x00000000
 2412 00000004                 RELOC            42, ||i._ZNK6String16equalsIgno
reCaseERKS_||
 2413 00000004 00000001        DCD              0x00000001
 2414 00000008         
 2415 00000008                 AREA             ||area_number.120||, LINKORDER=
||i._ZNK6String10startsWithERKS_j||, DATA, READONLY, SECTYPE={SHT_ARM_EXIDX}, A
LIGN=2
 2416 00000000         
 2417 00000000                 EXPORTAS         ||area_number.120||, ||.ARM.exi
dx||
 2418 00000000 00000000        DCD              0x00000000
 2419 00000004                 RELOC            42, ||i._ZNK6String10startsWith
ERKS_j||
 2420 00000004 00000001        DCD              0x00000001
 2421 00000008         
 2422 00000008                 AREA             ||area_number.121||, LINKORDER=
||i._ZNK6String10startsWithERKS_||, DATA, READONLY, SECTYPE={SHT_ARM_EXIDX}, AL
IGN=2
 2423 00000000         
 2424 00000000                 EXPORTAS         ||area_number.121||, ||.ARM.exi



ARM Macro Assembler    Page 47 


dx||
 2425 00000000 00000000        DCD              0x00000000
 2426 00000004                 RELOC            42, ||i._ZNK6String10startsWith
ERKS_||
 2427 00000004 00000001        DCD              0x00000001
 2428 00000008         
 2429 00000008                 AREA             ||area_number.122||, LINKORDER=
||i._ZNK6String8endsWithERKS_||, DATA, READONLY, SECTYPE={SHT_ARM_EXIDX}, ALIGN
=2
 2430 00000000         
 2431 00000000                 EXPORTAS         ||area_number.122||, ||.ARM.exi
dx||
 2432 00000000 00000000        DCD              0x00000000
 2433 00000004                 RELOC            42, ||i._ZNK6String8endsWithERK
S_||
 2434 00000004 00000001        DCD              0x00000001
 2435 00000008         
 2436 00000008                 AREA             ||area_number.123||, LINKORDER=
||i._ZNK6StringixEj||, DATA, READONLY, SECTYPE={SHT_ARM_EXIDX}, ALIGN=2
 2437 00000000         
 2438 00000000                 EXPORTAS         ||area_number.123||, ||.ARM.exi
dx||
 2439 00000000 00000000        DCD              0x00000000
 2440 00000004                 RELOC            42, ||i._ZNK6StringixEj||
 2441 00000004 00000001        DCD              0x00000001
 2442 00000008         
 2443 00000008                 AREA             ||area_number.124||, LINKORDER=
||i._ZNK6String6charAtEj||, DATA, READONLY, SECTYPE={SHT_ARM_EXIDX}, ALIGN=2
 2444 00000000         
 2445 00000000                 EXPORTAS         ||area_number.124||, ||.ARM.exi
dx||
 2446 00000000 00000000        DCD              0x00000000
 2447 00000004                 RELOC            42, ||i._ZNK6String6charAtEj||
 2448 00000004 00000001        DCD              0x00000001
 2449 00000008         
 2450 00000008                 AREA             ||area_number.125||, LINKORDER=
||i._ZN6String9setCharAtEjc||, DATA, READONLY, SECTYPE={SHT_ARM_EXIDX}, ALIGN=2
 2451 00000000         
 2452 00000000                 EXPORTAS         ||area_number.125||, ||.ARM.exi
dx||
 2453 00000000 00000000        DCD              0x00000000
 2454 00000004                 RELOC            42, ||i._ZN6String9setCharAtEjc
||
 2455 00000004 00000001        DCD              0x00000001
 2456 00000008         
 2457 00000008                 AREA             ||area_number.126||, LINKORDER=
||i._ZN6StringixEj||, DATA, READONLY, SECTYPE={SHT_ARM_EXIDX}, ALIGN=2
 2458 00000000         
 2459 00000000                 EXPORTAS         ||area_number.126||, ||.ARM.exi
dx||
 2460 00000000 00000000        DCD              0x00000000
 2461 00000004                 RELOC            42, ||i._ZN6StringixEj||
 2462 00000004 00000001        DCD              0x00000001
 2463 00000008         
 2464 00000008                 AREA             ||area_number.127||, LINKORDER=
||i._ZNK6String8getBytesEPhjj||, DATA, READONLY, SECTYPE={SHT_ARM_EXIDX}, ALIGN
=2
 2465 00000000         
 2466 00000000                 EXPORTAS         ||area_number.127||, ||.ARM.exi



ARM Macro Assembler    Page 48 


dx||
 2467 00000000 00000000        DCD              0x00000000
 2468 00000004                 RELOC            42, ||i._ZNK6String8getBytesEPh
jj||
 2469 00000004 00000001        DCD              0x00000001
 2470 00000008         
 2471 00000008                 AREA             ||area_number.128||, LINKORDER=
||i._ZNK6String7indexOfEcj||, DATA, READONLY, SECTYPE={SHT_ARM_EXIDX}, ALIGN=2
 2472 00000000         
 2473 00000000                 EXPORTAS         ||area_number.128||, ||.ARM.exi
dx||
 2474 00000000 00000000        DCD              0x00000000
 2475 00000004                 RELOC            42, ||i._ZNK6String7indexOfEcj|
|
 2476 00000004 00000001        DCD              0x00000001
 2477 00000008         
 2478 00000008                 AREA             ||area_number.129||, LINKORDER=
||i._ZNK6String7indexOfEc||, DATA, READONLY, SECTYPE={SHT_ARM_EXIDX}, ALIGN=2
 2479 00000000         
 2480 00000000                 EXPORTAS         ||area_number.129||, ||.ARM.exi
dx||
 2481 00000000 00000000        DCD              0x00000000
 2482 00000004                 RELOC            42, ||i._ZNK6String7indexOfEc||
 2483 00000004 00000001        DCD              0x00000001
 2484 00000008         
 2485 00000008                 AREA             ||area_number.130||, LINKORDER=
||i._ZNK6String7indexOfERKS_j||, DATA, READONLY, SECTYPE={SHT_ARM_EXIDX}, ALIGN
=2
 2486 00000000         
 2487 00000000                 EXPORTAS         ||area_number.130||, ||.ARM.exi
dx||
 2488 00000000 00000000        DCD              0x00000000
 2489 00000004                 RELOC            42, ||i._ZNK6String7indexOfERKS
_j||
 2490 00000004 00000001        DCD              0x00000001
 2491 00000008         
 2492 00000008                 AREA             ||area_number.131||, LINKORDER=
||i._ZNK6String7indexOfERKS_||, DATA, READONLY, SECTYPE={SHT_ARM_EXIDX}, ALIGN=
2
 2493 00000000         
 2494 00000000                 EXPORTAS         ||area_number.131||, ||.ARM.exi
dx||
 2495 00000000 00000000        DCD              0x00000000
 2496 00000004                 RELOC            42, ||i._ZNK6String7indexOfERKS
_||
 2497 00000004 00000001        DCD              0x00000001
 2498 00000008         
 2499 00000008                 AREA             ||area_number.132||, LINKORDER=
||i._ZNK6String11lastIndexOfEcj||, DATA, READONLY, SECTYPE={SHT_ARM_EXIDX}, ALI
GN=2
 2500 00000000         
 2501 00000000                 EXPORTAS         ||area_number.132||, ||.ARM.exi
dx||
 2502 00000000 00000000        DCD              0x00000000
 2503 00000004                 RELOC            42, ||i._ZNK6String11lastIndexO
fEcj||
 2504 00000004 00000001        DCD              0x00000001
 2505 00000008         
 2506 00000008                 AREA             ||area_number.133||, LINKORDER=



ARM Macro Assembler    Page 49 


||i._ZNK6String11lastIndexOfEc||, DATA, READONLY, SECTYPE={SHT_ARM_EXIDX}, ALIG
N=2
 2507 00000000         
 2508 00000000                 EXPORTAS         ||area_number.133||, ||.ARM.exi
dx||
 2509 00000000 00000000        DCD              0x00000000
 2510 00000004                 RELOC            42, ||i._ZNK6String11lastIndexO
fEc||
 2511 00000004 00000001        DCD              0x00000001
 2512 00000008         
 2513 00000008                 AREA             ||area_number.134||, LINKORDER=
||i._ZNK6String11lastIndexOfERKS_j||, DATA, READONLY, SECTYPE={SHT_ARM_EXIDX}, 
ALIGN=2
 2514 00000000         
 2515 00000000                 EXPORTAS         ||area_number.134||, ||.ARM.exi
dx||
 2516 00000000 00000000        DCD              0x00000000
 2517 00000004                 RELOC            42, ||i._ZNK6String11lastIndexO
fERKS_j||
 2518 00000004 00000001        DCD              0x00000001
 2519 00000008         
 2520 00000008                 AREA             ||area_number.135||, LINKORDER=
||i._ZNK6String11lastIndexOfERKS_||, DATA, READONLY, SECTYPE={SHT_ARM_EXIDX}, A
LIGN=2
 2521 00000000         
 2522 00000000                 EXPORTAS         ||area_number.135||, ||.ARM.exi
dx||
 2523 00000000 00000000        DCD              0x00000000
 2524 00000004                 RELOC            42, ||i._ZNK6String11lastIndexO
fERKS_||
 2525 00000004 00000001        DCD              0x00000001
 2526 00000008         
 2527 00000008                 AREA             ||area_number.136||, LINKORDER=
||i._ZNK6String9substringEjj||, DATA, READONLY, SECTYPE={SHT_ARM_EXIDX}, ALIGN=
2
 2528 00000000         
 2529 00000000                 EXPORTAS         ||area_number.136||, ||.ARM.exi
dx||
 2530 00000000 00000000        DCD              0x00000000
 2531 00000004                 RELOC            42, ||i._ZNK6String9substringEj
j||
 2532 00000004 00000001        DCD              0x00000001
 2533 00000008         
 2534 00000008                 AREA             ||area_number.137||, LINKORDER=
||i._ZN6String7replaceEcc||, DATA, READONLY, SECTYPE={SHT_ARM_EXIDX}, ALIGN=2
 2535 00000000         
 2536 00000000                 EXPORTAS         ||area_number.137||, ||.ARM.exi
dx||
 2537 00000000 00000000        DCD              0x00000000
 2538 00000004                 RELOC            42, ||i._ZN6String7replaceEcc||
 2539 00000004 00000001        DCD              0x00000001
 2540 00000008         
 2541 00000008                 AREA             ||area_number.138||, LINKORDER=
||i._ZN6String7replaceERKS_S1_||, DATA, READONLY, SECTYPE={SHT_ARM_EXIDX}, ALIG
N=2
 2542 00000000         
 2543 00000000                 EXPORTAS         ||area_number.138||, ||.ARM.exi
dx||
 2544 00000000 00000000        DCD              0x00000000



ARM Macro Assembler    Page 50 


 2545 00000004                 RELOC            42, ||i._ZN6String7replaceERKS_
S1_||
 2546 00000004 00000001        DCD              0x00000001
 2547 00000008         
 2548 00000008                 AREA             ||area_number.139||, LINKORDER=
||i._ZN6String6removeEjj||, DATA, READONLY, SECTYPE={SHT_ARM_EXIDX}, ALIGN=2
 2549 00000000         
 2550 00000000                 EXPORTAS         ||area_number.139||, ||.ARM.exi
dx||
 2551 00000000 00000000        DCD              0x00000000
 2552 00000004                 RELOC            42, ||i._ZN6String6removeEjj||
 2553 00000004 00000001        DCD              0x00000001
 2554 00000008         
 2555 00000008                 AREA             ||area_number.140||, LINKORDER=
||i._ZN6String6removeEj||, DATA, READONLY, SECTYPE={SHT_ARM_EXIDX}, ALIGN=2
 2556 00000000         
 2557 00000000                 EXPORTAS         ||area_number.140||, ||.ARM.exi
dx||
 2558 00000000 00000000        DCD              0x00000000
 2559 00000004                 RELOC            42, ||i._ZN6String6removeEj||
 2560 00000004 00000001        DCD              0x00000001
 2561 00000008         
 2562 00000008                 AREA             ||area_number.141||, LINKORDER=
||i._ZN6String11toLowerCaseEv||, DATA, READONLY, SECTYPE={SHT_ARM_EXIDX}, ALIGN
=2
 2563 00000000         
 2564 00000000                 EXPORTAS         ||area_number.141||, ||.ARM.exi
dx||
 2565 00000000 00000000        DCD              0x00000000
 2566 00000004                 RELOC            42, ||i._ZN6String11toLowerCase
Ev||
 2567 00000004 00000001        DCD              0x00000001
 2568 00000008         
 2569 00000008                 AREA             ||area_number.142||, LINKORDER=
||i._ZN6String11toUpperCaseEv||, DATA, READONLY, SECTYPE={SHT_ARM_EXIDX}, ALIGN
=2
 2570 00000000         
 2571 00000000                 EXPORTAS         ||area_number.142||, ||.ARM.exi
dx||
 2572 00000000 00000000        DCD              0x00000000
 2573 00000004                 RELOC            42, ||i._ZN6String11toUpperCase
Ev||
 2574 00000004 00000001        DCD              0x00000001
 2575 00000008         
 2576 00000008                 AREA             ||area_number.143||, LINKORDER=
||i._ZN6String4trimEv||, DATA, READONLY, SECTYPE={SHT_ARM_EXIDX}, ALIGN=2
 2577 00000000         
 2578 00000000                 EXPORTAS         ||area_number.143||, ||.ARM.exi
dx||
 2579 00000000 00000000        DCD              0x00000000
 2580 00000004                 RELOC            42, ||i._ZN6String4trimEv||
 2581 00000004 00000001        DCD              0x00000001
 2582 00000008         
 2583 00000008                 AREA             ||area_number.144||, LINKORDER=
||i._ZNK6String5toIntEv||, DATA, READONLY, SECTYPE={SHT_ARM_EXIDX}, ALIGN=2
 2584 00000000         
 2585 00000000                 EXPORTAS         ||area_number.144||, ||.ARM.exi
dx||
 2586 00000000 00000000        DCD              0x00000000



ARM Macro Assembler    Page 51 


 2587 00000004                 RELOC            42, ||i._ZNK6String5toIntEv||
 2588 00000004 00000001        DCD              0x00000001
 2589 00000008         
 2590 00000008                 AREA             ||area_number.145||, LINKORDER=
||i._ZNK6String7toFloatEv||, DATA, READONLY, SECTYPE={SHT_ARM_EXIDX}, ALIGN=2
 2591 00000000         
 2592 00000000                 EXPORTAS         ||area_number.145||, ||.ARM.exi
dx||
 2593 00000000 00000000        DCD              0x00000000
 2594 00000004                 RELOC            42, ||i._ZNK6String7toFloatEv||
 2595 00000004 00000001        DCD              0x00000001
 2596 00000008         
 2597 00000008                 AREA             ||.arm_vfe_header||, DATA, READ
ONLY, NOALLOC, ALIGN=2
 2598 00000000         
 2599 00000000 00000000        DCD              0x00000000
 2600 00000004         
 2601 00000004                 AREA             ||.data||, DATA, ALIGN=0
 2602 00000000         
 2603 00000000         dummy_writable_char
 2604 00000000 00              DCB              0x00
 2605 00000001         
 2606 00000001                 AREA             ||i.isspace||, COMGROUP=isspace
, CODE, READONLY, ALIGN=1
 2607 00000000         
 2608 00000000         isspace PROC
 2609 00000000 B510            PUSH             {r4,lr}
 2610 00000002 4604            MOV              r4,r0
 2611 00000004 F7FF FFFE       BL               __rt_ctype_table
 2612 00000008 6800            LDR              r0,[r0,#0]
 2613 0000000A 5D00            LDRB             r0,[r0,r4]
 2614 0000000C F000 0001       AND              r0,r0,#1
 2615 00000010 BD10            POP              {r4,pc}
 2616 00000012                 ENDP
 2617 00000012         
 2618 00000012         
 2619 00000012                 AREA             ||area_number.456||, COMGROUP=i
sspace, LINKORDER=||i.isspace||, DATA, READONLY, SECTYPE={SHT_ARM_EXIDX}, ALIGN
=2
 2620 00000000         
 2621 00000000                 EXPORTAS         ||area_number.456||, ||.ARM.exi
dx||
 2622 00000000 00000000        DCD              0x00000000
 2623 00000004                 RELOC            42, ||i.isspace||
 2624 00000004 00000001        DCD              0x00000001
 2625 00000008         
 2626 00000008                 AREA             ||i._ZN6String4initEv||, COMGRO
UP=_ZN6String4initEv, CODE, READONLY, ALIGN=1
 2627 00000000         
 2628 00000000         _ZN6String4initEv
                               PROC
 2629 00000000 2100            MOVS             r1,#0
 2630 00000002 6001            STR              r1,[r0,#0]
 2631 00000004 6041            STR              r1,[r0,#4]
 2632 00000006 6081            STR              r1,[r0,#8]
 2633 00000008 4770            BX               lr
 2634 0000000A                 ENDP
 2635 0000000A         
 2636 0000000A         



ARM Macro Assembler    Page 52 


 2637 0000000A                 AREA             ||area_number.462||, COMGROUP=_
ZN6String4initEv, LINKORDER=||i._ZN6String4initEv||, DATA, READONLY, SECTYPE={S
HT_ARM_EXIDX}, ALIGN=2
 2638 00000000         
 2639 00000000                 EXPORTAS         ||area_number.462||, ||.ARM.exi
dx||
 2640 00000000 00000000        DCD              0x00000000
 2641 00000004                 RELOC            42, ||i._ZN6String4initEv||
 2642 00000004 00000001        DCD              0x00000001
 2643 00000008         
 2644 00000008                 AREA             ||i._ZSt6strstrPcPKc||, COMGROU
P=_ZSt6strstrPcPKc, CODE, READONLY, ALIGN=1
 2645 00000000         
 2646 00000000         _ZSt6strstrPcPKc
                               PROC
 2647 00000000 B570            PUSH             {r4-r6,lr}
 2648 00000002 4604            MOV              r4,r0
 2649 00000004 460D            MOV              r5,r1
 2650 00000006 4629            MOV              r1,r5
 2651 00000008 4620            MOV              r0,r4
 2652 0000000A F7FF FFFE       BL               strstr
 2653 0000000E BD70            POP              {r4-r6,pc}
 2654 00000010                 ENDP
 2655 00000010         
 2656 00000010         
 2657 00000010                 AREA             ||area_number.468||, COMGROUP=_
ZSt6strstrPcPKc, LINKORDER=||i._ZSt6strstrPcPKc||, DATA, READONLY, SECTYPE={SHT
_ARM_EXIDX}, ALIGN=2
 2658 00000000         
 2659 00000000                 EXPORTAS         ||area_number.468||, ||.ARM.exi
dx||
 2660 00000000 00000000        DCD              0x00000000
 2661 00000004                 RELOC            42, ||i._ZSt6strstrPcPKc||
 2662 00000004 00000001        DCD              0x00000001
 2663 00000008         
 2664 00000008         ;*** Start embedded assembler ***
 2665 00000008         
 2666 00000008         #line   1                "cores\\WString.cpp"
    1 00000008                 AREA             ||.rev16_text||, CODE
    2 00000000                 THUMB
    3 00000000                 EXPORT           |__asm___11_WString_cpp_dbd866d
f___Z7__REV16j|
    4 00000000         #line   447              "C:\\Keil_v5\\ARM\\PACK\\ARM\\C
MSIS\\5.0.1\\CMSIS\\Include\\cmsis_armcc.h"
  447 00000000         |__asm___11_WString_cpp_dbd866df___Z7__REV16j|
                               PROC
  448 00000000         #line   448
  448 00000000         
  449 00000000 BA40            rev16            r0, r0
  450 00000002 4770            bx               lr
  451 00000004                 ENDP
  452 00000004                 AREA             ||.revsh_text||, CODE
  453 00000000                 THUMB
  454 00000000                 EXPORT           |__asm___11_WString_cpp_dbd866d
f___Z7__REVSHi|
  455 00000000         #line   462
  462 00000000         |__asm___11_WString_cpp_dbd866df___Z7__REVSHi|
                               PROC
  463 00000000         #line   463



ARM Macro Assembler    Page 53 


  463 00000000         
  464 00000000 BAC0            revsh            r0, r0
  465 00000002 4770            bx               lr
  466 00000004                 ENDP
  467 00000004                 AREA             ||.rrx_text||, CODE
  468 00000000                 THUMB
  469 00000000                 EXPORT           |__asm___11_WString_cpp_dbd866d
f___Z5__RRXj|
  470 00000000         #line   649
  649 00000000         |__asm___11_WString_cpp_dbd866df___Z5__RRXj|
                               PROC
  650 00000000         #line   650
  650 00000000         
  651 00000000 EA4F 0030       rrx              r0, r0
  652 00000004 4770            bx               lr
  653 00000006                 ENDP
  654 00000006         
  655 00000006         ;*** End   embedded assembler ***
  656 00000006         
  657 00000006                 EXPORT           NOPS_FOR_USEC [CODE]
  658 00000006                 EXPORT           _ZN6String10invalidateEv [CODE]
  659 00000006                 EXPORT           _ZN6String11toLowerCaseEv [CODE
]
  660 00000006                 EXPORT           _ZN6String11toUpperCaseEv [CODE
]
  661 00000006                 EXPORT           _ZN6String12changeBufferEj [COD
E]
  662 00000006                 EXPORT           _ZN6String4copyEPKcj [CODE]
  663 00000006                 EXPORT           _ZN6String4trimEv [CODE]
  664 00000006                 EXPORT           _ZN6String6concatEPKc [CODE]
  665 00000006                 EXPORT           _ZN6String6concatEPKcj [CODE]
  666 00000006                 EXPORT           _ZN6String6concatERKS_ [CODE]
  667 00000006                 EXPORT           _ZN6String6concatEc [CODE]
  668 00000006                 EXPORT           _ZN6String6concatEd [CODE]
  669 00000006                 EXPORT           _ZN6String6concatEf [CODE]
  670 00000006                 EXPORT           _ZN6String6concatEh [CODE]
  671 00000006                 EXPORT           _ZN6String6concatEi [CODE]
  672 00000006                 EXPORT           _ZN6String6concatEj [CODE]
  673 00000006                 EXPORT           _ZN6String6concatEl [CODE]
  674 00000006                 EXPORT           _ZN6String6concatEm [CODE]
  675 00000006                 EXPORT           _ZN6String6removeEj [CODE]
  676 00000006                 EXPORT           _ZN6String6removeEjj [CODE]
  677 00000006                 EXPORT           _ZN6String7replaceERKS_S1_ [COD
E]
  678 00000006                 EXPORT           _ZN6String7replaceEcc [CODE]
  679 00000006                 EXPORT           _ZN6String7reserveEj [CODE]
  680 00000006                 EXPORT           _ZN6String9setCharAtEjc [CODE]
  681 00000006                 EXPORT           _ZN6StringC2EPKc [CODE]
  682 00000006                 EXPORT           _ZN6StringC1EPKc [CODE]
  683 00000006                 EXPORT           _ZN6StringC2ERKS_ [CODE]
  684 00000006                 EXPORT           _ZN6StringC1ERKS_ [CODE]
  685 00000006                 EXPORT           _ZN6StringC2Ec [CODE]
  686 00000006                 EXPORT           _ZN6StringC1Ec [CODE]
  687 00000006                 EXPORT           _ZN6StringC2Edh [CODE]
  688 00000006                 EXPORT           _ZN6StringC1Edh [CODE]
  689 00000006                 EXPORT           _ZN6StringC2Efh [CODE]
  690 00000006                 EXPORT           _ZN6StringC1Efh [CODE]
  691 00000006                 EXPORT           _ZN6StringC2Ehh [CODE]
  692 00000006                 EXPORT           _ZN6StringC1Ehh [CODE]



ARM Macro Assembler    Page 54 


  693 00000006                 EXPORT           _ZN6StringC2Eih [CODE]
  694 00000006                 EXPORT           _ZN6StringC1Eih [CODE]
  695 00000006                 EXPORT           _ZN6StringC2Ejh [CODE]
  696 00000006                 EXPORT           _ZN6StringC1Ejh [CODE]
  697 00000006                 EXPORT           _ZN6StringC2Elh [CODE]
  698 00000006                 EXPORT           _ZN6StringC1Elh [CODE]
  699 00000006                 EXPORT           _ZN6StringC2Emh [CODE]
  700 00000006                 EXPORT           _ZN6StringC1Emh [CODE]
  701 00000006                 EXPORT           _ZN6StringD2Ev [CODE]
  702 00000006                 EXPORT           _ZN6StringD1Ev [CODE]
  703 00000006                 EXPORT           _ZN6StringaSEPKc [CODE]
  704 00000006                 EXPORT           _ZN6StringaSERKS_ [CODE]
  705 00000006                 EXPORT           _ZN6StringixEj [CODE]
  706 00000006                 EXPORT           _ZNK6String10startsWithERKS_ [C
ODE]
  707 00000006                 EXPORT           _ZNK6String10startsWithERKS_j [
CODE]
  708 00000006                 EXPORT           _ZNK6String11lastIndexOfERKS_ [
CODE]
  709 00000006                 EXPORT           _ZNK6String11lastIndexOfERKS_j 
[CODE]
  710 00000006                 EXPORT           _ZNK6String11lastIndexOfEc [COD
E]
  711 00000006                 EXPORT           _ZNK6String11lastIndexOfEcj [CO
DE]
  712 00000006                 EXPORT           _ZNK6String16equalsIgnoreCaseER
KS_ [CODE]
  713 00000006                 EXPORT           _ZNK6String5toIntEv [CODE]
  714 00000006                 EXPORT           _ZNK6String6charAtEj [CODE]
  715 00000006                 EXPORT           _ZNK6String6equalsEPKc [CODE]
  716 00000006                 EXPORT           _ZNK6String6equalsERKS_ [CODE]
  717 00000006                 EXPORT           _ZNK6String7indexOfERKS_ [CODE]
  718 00000006                 EXPORT           _ZNK6String7indexOfERKS_j [CODE
]
  719 00000006                 EXPORT           _ZNK6String7indexOfEc [CODE]
  720 00000006                 EXPORT           _ZNK6String7indexOfEcj [CODE]
  721 00000006                 EXPORT           _ZNK6String7toFloatEv [CODE]
  722 00000006                 EXPORT           _ZNK6String8endsWithERKS_ [CODE
]
  723 00000006                 EXPORT           _ZNK6String8getBytesEPhjj [CODE
]
  724 00000006                 EXPORT           _ZNK6String9compareToERKS_ [COD
E]
  725 00000006                 EXPORT           _ZNK6String9substringEjj [CODE]
  726 00000006                 EXPORT           _ZNK6StringgeERKS_ [CODE]
  727 00000006                 EXPORT           _ZNK6StringgtERKS_ [CODE]
  728 00000006                 EXPORT           _ZNK6StringixEj [CODE]
  729 00000006                 EXPORT           _ZNK6StringleERKS_ [CODE]
  730 00000006                 EXPORT           _ZNK6StringltERKS_ [CODE]
  731 00000006                 EXPORT           _ZplRK15StringSumHelperPKc [COD
E]
  732 00000006                 EXPORT           _ZplRK15StringSumHelperRK6Strin
g [CODE]
  733 00000006                 EXPORT           _ZplRK15StringSumHelperc [CODE]
  734 00000006                 EXPORT           _ZplRK15StringSumHelperd [CODE]
  735 00000006                 EXPORT           _ZplRK15StringSumHelperf [CODE]
  736 00000006                 EXPORT           _ZplRK15StringSumHelperh [CODE]
  737 00000006                 EXPORT           _ZplRK15StringSumHelperi [CODE]
  738 00000006                 EXPORT           _ZplRK15StringSumHelperj [CODE]



ARM Macro Assembler    Page 55 


  739 00000006                 EXPORT           _ZplRK15StringSumHelperl [CODE]
  740 00000006                 EXPORT           _ZplRK15StringSumHelperm [CODE]
  741 00000006                 EXPORT           isspace [CODE]
  742 00000006                 EXPORT           _ZN6String4initEv [CODE]
  743 00000006                 EXPORT           _ZSt6strstrPcPKc [CODE]
  744 00000006         
  745 00000006                 IMPORT           ||Lib$$Request$$armlib|| [CODE,
WEAK]
  746 00000006                 IMPORT           ||Lib$$Request$$cpplib|| [CODE,
WEAK]
  747 00000006                 IMPORT           free [CODE]
  748 00000006                 IMPORT           realloc [CODE]
  749 00000006                 IMPORT           strcpy [CODE]
  750 00000006                 IMPORT           strlen [CODE]
  751 00000006                 IMPORT           itoa [CODE]
  752 00000006                 IMPORT           utoa [CODE]
  753 00000006                 IMPORT           ltoa [CODE]
  754 00000006                 IMPORT           ultoa [CODE]
  755 00000006                 IMPORT           dtostrf [CODE]
  756 00000006                 IMPORT           __aeabi_d2f [CODE]
  757 00000006                 IMPORT           strcmp [CODE]
  758 00000006                 IMPORT           tolower [CODE]
  759 00000006                 IMPORT           strncmp [CODE]
  760 00000006                 IMPORT           strncpy [CODE]
  761 00000006                 IMPORT           strchr [CODE]
  762 00000006                 IMPORT           strrchr [CODE]
  763 00000006                 IMPORT           __aeabi_memcpy [CODE]
  764 00000006                 IMPORT           __aeabi_memmove [CODE]
  765 00000006                 IMPORT           toupper [CODE]
  766 00000006                 IMPORT           atol [CODE]
  767 00000006                 IMPORT           __hardfp_atof [CODE]
  768 00000006                 IMPORT           __rt_ctype_table [CODE]
  769 00000006                 IMPORT           strstr [CODE]
  770 00000006         
  771 00000006                 KEEP             dummy_writable_char
  772 00000006         
  773 00000006                 ATTR             FILESCOPE
  774 00000006                 ATTR             SETVALUE Tag_ABI_PCS_wchar_t,2
  775 00000006                 ATTR             SETVALUE Tag_ABI_enum_size,1
  776 00000006                 ATTR             SETVALUE Tag_ABI_optimization_g
oals,6
  777 00000006                 ATTR             SETSTRING Tag_conformance,"2.09
"
  778 00000006                 ATTR             SETVALUE AV,6,0
  779 00000006                 ATTR             SETVALUE AV,18,1
  780 00000006         
  781 00000006                 ASSERT           {ENDIAN} = "little"
  782 00000006                 ASSERT           {INTER} = {TRUE}
  783 00000006                 ASSERT           {ROPI} = {FALSE}
  784 00000006                 ASSERT           {RWPI} = {FALSE}
  785 00000006                 ASSERT           {IEEE_FULL} = {FALSE}
  786 00000006                 ASSERT           {IEEE_PART} = {FALSE}
  787 00000006                 ASSERT           {IEEE_JAVA} = {FALSE}
  788 00000006                 END
Command Line: --debug --xref --diag_suppress=9931 --cpu=Cortex-M4.fp --apcs=int
erwork -o.\objects\wstring.o -I.\cores -I.\RTE\Device\XMC4700-F144x2048 -I.\RTE
\_Target_1 -IC:\Keil_v5\ARM\PACK\ARM\CMSIS\5.0.1\CMSIS\Include -IC:\Keil_v5\ARM
\PACK\Infineon\XMC4000_DFP\2.9.1\Device\XMC4700_series\Include -IC:\Keil_v5\ARM
\PACK\Infineon\XMC4000_DFP\2.9.1\Device\XMClib\inc -IC:\Keil_v5\ARM\PACK\Infine



ARM Macro Assembler    Page 56 


on\XMC4000_DFP\2.9.1\RTE_Driver --predefine="__UVISION_VERSION SETA 524" --pred
efine="_RTE_ SETA 1" --predefine="XMC4700_F144x2048 SETA 1" --list=.\listings\w
string.lst .\objects\wstring.s



ARM Macro Assembler    Page 1 Alphabetic symbol ordering
Relocatable symbols

NOPS_FOR_USEC 00000000

Symbol: NOPS_FOR_USEC
   Definitions
      At line 9 in file .\objects\wstring.s
   Uses
      At line 657 in file C:\\Keil_v5\\ARM\\PACK\\ARM\\CMSIS\\5.0.1\\CMSIS\\Inc
lude\\cmsis_armcc.h
Comment: NOPS_FOR_USEC used once
|i.NOPS_FOR_USEC| 00000000

Symbol: |i.NOPS_FOR_USEC|
   Definitions
      At line 7 in file .\objects\wstring.s
   Uses
      At line 2090 in file .\objects\wstring.s
Comment: |i.NOPS_FOR_USEC| used once
2 symbols



ARM Macro Assembler    Page 1 Alphabetic symbol ordering
Relocatable symbols

L1.14 0000000E

Symbol: L1.14
   Definitions
      At line 165 in file .\objects\wstring.s
   Uses
      At line 162 in file .\objects\wstring.s
Comment: L1.14 used once
_ZN6String10invalidateEv 00000000

Symbol: _ZN6String10invalidateEv
   Definitions
      At line 158 in file .\objects\wstring.s
   Uses
      At line 260 in file .\objects\wstring.s
      At line 1131 in file .\objects\wstring.s
      At line 1159 in file .\objects\wstring.s
      At line 1902 in file .\objects\wstring.s
      At line 1922 in file .\objects\wstring.s
      At line 1941 in file .\objects\wstring.s
      At line 1963 in file .\objects\wstring.s
      At line 1984 in file .\objects\wstring.s
      At line 2004 in file .\objects\wstring.s
      At line 2023 in file .\objects\wstring.s
      At line 2042 in file .\objects\wstring.s
      At line 2061 in file .\objects\wstring.s
      At line 2080 in file .\objects\wstring.s
      At line 658 in file C:\\Keil_v5\\ARM\\PACK\\ARM\\CMSIS\\5.0.1\\CMSIS\\Inc
lude\\cmsis_armcc.h

|i._ZN6String10invalidateEv| 00000000

Symbol: |i._ZN6String10invalidateEv|
   Definitions
      At line 156 in file .\objects\wstring.s
   Uses
      At line 2097 in file .\objects\wstring.s
Comment: |i._ZN6String10invalidateEv| used once
3 symbols



ARM Macro Assembler    Page 1 Alphabetic symbol ordering
Relocatable symbols

L2.10 0000000A

Symbol: L2.10
   Definitions
      At line 183 in file .\objects\wstring.s
   Uses
      At line 180 in file .\objects\wstring.s
Comment: L2.10 used once
L2.14 0000000E

Symbol: L2.14
   Definitions
      At line 186 in file .\objects\wstring.s
   Uses
      At line 194 in file .\objects\wstring.s
Comment: L2.14 used once
L2.24 00000018

Symbol: L2.24
   Definitions
      At line 191 in file .\objects\wstring.s
   Uses
      At line 185 in file .\objects\wstring.s
Comment: L2.24 used once
L2.8 00000008

Symbol: L2.8
   Definitions
      At line 181 in file .\objects\wstring.s
   Uses
      At line 196 in file .\objects\wstring.s
Comment: L2.8 used once
_ZN6String11toLowerCaseEv 00000000

Symbol: _ZN6String11toLowerCaseEv
   Definitions
      At line 176 in file .\objects\wstring.s
   Uses
      At line 659 in file C:\\Keil_v5\\ARM\\PACK\\ARM\\CMSIS\\5.0.1\\CMSIS\\Inc
lude\\cmsis_armcc.h
Comment: _ZN6String11toLowerCaseEv used once
|i._ZN6String11toLowerCaseEv| 00000000

Symbol: |i._ZN6String11toLowerCaseEv|
   Definitions
      At line 174 in file .\objects\wstring.s
   Uses
      At line 2566 in file .\objects\wstring.s
Comment: |i._ZN6String11toLowerCaseEv| used once
6 symbols



ARM Macro Assembler    Page 1 Alphabetic symbol ordering
Relocatable symbols

L3.10 0000000A

Symbol: L3.10
   Definitions
      At line 209 in file .\objects\wstring.s
   Uses
      At line 206 in file .\objects\wstring.s
Comment: L3.10 used once
L3.14 0000000E

Symbol: L3.14
   Definitions
      At line 212 in file .\objects\wstring.s
   Uses
      At line 220 in file .\objects\wstring.s
Comment: L3.14 used once
L3.24 00000018

Symbol: L3.24
   Definitions
      At line 217 in file .\objects\wstring.s
   Uses
      At line 211 in file .\objects\wstring.s
Comment: L3.24 used once
L3.8 00000008

Symbol: L3.8
   Definitions
      At line 207 in file .\objects\wstring.s
   Uses
      At line 222 in file .\objects\wstring.s
Comment: L3.8 used once
_ZN6String11toUpperCaseEv 00000000

Symbol: _ZN6String11toUpperCaseEv
   Definitions
      At line 202 in file .\objects\wstring.s
   Uses
      At line 660 in file C:\\Keil_v5\\ARM\\PACK\\ARM\\CMSIS\\5.0.1\\CMSIS\\Inc
lude\\cmsis_armcc.h
Comment: _ZN6String11toUpperCaseEv used once
|i._ZN6String11toUpperCaseEv| 00000000

Symbol: |i._ZN6String11toUpperCaseEv|
   Definitions
      At line 200 in file .\objects\wstring.s
   Uses
      At line 2573 in file .\objects\wstring.s
Comment: |i._ZN6String11toUpperCaseEv| used once
6 symbols



ARM Macro Assembler    Page 1 Alphabetic symbol ordering
Relocatable symbols

L4.24 00000018

Symbol: L4.24
   Definitions
      At line 240 in file .\objects\wstring.s
   Uses
      At line 244 in file .\objects\wstring.s
Comment: L4.24 used once
L4.26 0000001A

Symbol: L4.26
   Definitions
      At line 242 in file .\objects\wstring.s
   Uses
      At line 236 in file .\objects\wstring.s
Comment: L4.26 used once
_ZN6String12changeBufferEj 00000000

Symbol: _ZN6String12changeBufferEj
   Definitions
      At line 228 in file .\objects\wstring.s
   Uses
      At line 740 in file .\objects\wstring.s
      At line 834 in file .\objects\wstring.s
      At line 661 in file C:\\Keil_v5\\ARM\\PACK\\ARM\\CMSIS\\5.0.1\\CMSIS\\Inc
lude\\cmsis_armcc.h

|i._ZN6String12changeBufferEj| 00000000

Symbol: |i._ZN6String12changeBufferEj|
   Definitions
      At line 226 in file .\objects\wstring.s
   Uses
      At line 2104 in file .\objects\wstring.s
Comment: |i._ZN6String12changeBufferEj| used once
4 symbols



ARM Macro Assembler    Page 1 Alphabetic symbol ordering
Relocatable symbols

L5.26 0000001A

Symbol: L5.26
   Definitions
      At line 262 in file .\objects\wstring.s
   Uses
      At line 270 in file .\objects\wstring.s
Comment: L5.26 used once
L5.28 0000001C

Symbol: L5.28
   Definitions
      At line 264 in file .\objects\wstring.s
   Uses
      At line 258 in file .\objects\wstring.s
Comment: L5.28 used once
_ZN6String4copyEPKcj 00000000

Symbol: _ZN6String4copyEPKcj
   Definitions
      At line 250 in file .\objects\wstring.s
   Uses
      At line 879 in file .\objects\wstring.s
      At line 1127 in file .\objects\wstring.s
      At line 1155 in file .\objects\wstring.s
      At line 662 in file C:\\Keil_v5\\ARM\\PACK\\ARM\\CMSIS\\5.0.1\\CMSIS\\Inc
lude\\cmsis_armcc.h

|i._ZN6String4copyEPKcj| 00000000

Symbol: |i._ZN6String4copyEPKcj|
   Definitions
      At line 248 in file .\objects\wstring.s
   Uses
      At line 2251 in file .\objects\wstring.s
Comment: |i._ZN6String4copyEPKcj| used once
4 symbols



ARM Macro Assembler    Page 1 Alphabetic symbol ordering
Relocatable symbols

L6.12 0000000C

Symbol: L6.12
   Definitions
      At line 283 in file .\objects\wstring.s
   Uses
      At line 280 in file .\objects\wstring.s
      At line 325 in file .\objects\wstring.s

L6.14 0000000E

Symbol: L6.14
   Definitions
      At line 285 in file .\objects\wstring.s
   Uses
      At line 282 in file .\objects\wstring.s
Comment: L6.14 used once
L6.18 00000012

Symbol: L6.18
   Definitions
      At line 288 in file .\objects\wstring.s
   Uses
      At line 294 in file .\objects\wstring.s
Comment: L6.18 used once
L6.20 00000014

Symbol: L6.20
   Definitions
      At line 290 in file .\objects\wstring.s
   Uses
      At line 287 in file .\objects\wstring.s
Comment: L6.20 used once
L6.40 00000028

Symbol: L6.40
   Definitions
      At line 300 in file .\objects\wstring.s
   Uses
      At line 307 in file .\objects\wstring.s
Comment: L6.40 used once
L6.42 0000002A

Symbol: L6.42
   Definitions
      At line 302 in file .\objects\wstring.s
   Uses
      At line 299 in file .\objects\wstring.s
Comment: L6.42 used once
L6.54 00000036

Symbol: L6.54
   Definitions
      At line 308 in file .\objects\wstring.s
   Uses
      At line 305 in file .\objects\wstring.s
Comment: L6.54 used once
L6.76 0000004C




ARM Macro Assembler    Page 2 Alphabetic symbol ordering
Relocatable symbols

Symbol: L6.76
   Definitions
      At line 319 in file .\objects\wstring.s
   Uses
      At line 314 in file .\objects\wstring.s
Comment: L6.76 used once
_ZN6String4trimEv 00000000

Symbol: _ZN6String4trimEv
   Definitions
      At line 276 in file .\objects\wstring.s
   Uses
      At line 663 in file C:\\Keil_v5\\ARM\\PACK\\ARM\\CMSIS\\5.0.1\\CMSIS\\Inc
lude\\cmsis_armcc.h
Comment: _ZN6String4trimEv used once
|i._ZN6String4trimEv| 00000000

Symbol: |i._ZN6String4trimEv|
   Definitions
      At line 274 in file .\objects\wstring.s
   Uses
      At line 2580 in file .\objects\wstring.s
Comment: |i._ZN6String4trimEv| used once
10 symbols



ARM Macro Assembler    Page 1 Alphabetic symbol ordering
Relocatable symbols

L7.10 0000000A

Symbol: L7.10
   Definitions
      At line 337 in file .\objects\wstring.s
   Uses
      At line 347 in file .\objects\wstring.s
Comment: L7.10 used once
L7.12 0000000C

Symbol: L7.12
   Definitions
      At line 339 in file .\objects\wstring.s
   Uses
      At line 335 in file .\objects\wstring.s
Comment: L7.12 used once
_ZN6String6concatEPKc 00000000

Symbol: _ZN6String6concatEPKc
   Definitions
      At line 331 in file .\objects\wstring.s
   Uses
      At line 664 in file C:\\Keil_v5\\ARM\\PACK\\ARM\\CMSIS\\5.0.1\\CMSIS\\Inc
lude\\cmsis_armcc.h
Comment: _ZN6String6concatEPKc used once
|i._ZN6String6concatEPKc| 00000000

Symbol: |i._ZN6String6concatEPKc|
   Definitions
      At line 329 in file .\objects\wstring.s
   Uses
      At line 2356 in file .\objects\wstring.s
Comment: |i._ZN6String6concatEPKc| used once
4 symbols



ARM Macro Assembler    Page 1 Alphabetic symbol ordering
Relocatable symbols

L8.18 00000012

Symbol: L8.18
   Definitions
      At line 362 in file .\objects\wstring.s
   Uses
      At line 367 in file .\objects\wstring.s
      At line 374 in file .\objects\wstring.s
      At line 383 in file .\objects\wstring.s

L8.22 00000016

Symbol: L8.22
   Definitions
      At line 364 in file .\objects\wstring.s
   Uses
      At line 360 in file .\objects\wstring.s
Comment: L8.22 used once
L8.28 0000001C

Symbol: L8.28
   Definitions
      At line 368 in file .\objects\wstring.s
   Uses
      At line 365 in file .\objects\wstring.s
Comment: L8.28 used once
L8.42 0000002A

Symbol: L8.42
   Definitions
      At line 375 in file .\objects\wstring.s
   Uses
      At line 372 in file .\objects\wstring.s
Comment: L8.42 used once
_ZN6String6concatEPKcj 00000000

Symbol: _ZN6String6concatEPKcj
   Definitions
      At line 353 in file .\objects\wstring.s
   Uses
      At line 346 in file .\objects\wstring.s
      At line 396 in file .\objects\wstring.s
      At line 413 in file .\objects\wstring.s
      At line 442 in file .\objects\wstring.s
      At line 469 in file .\objects\wstring.s
      At line 492 in file .\objects\wstring.s
      At line 513 in file .\objects\wstring.s
      At line 534 in file .\objects\wstring.s
      At line 555 in file .\objects\wstring.s
      At line 576 in file .\objects\wstring.s
      At line 1898 in file .\objects\wstring.s
      At line 1919 in file .\objects\wstring.s
      At line 665 in file C:\\Keil_v5\\ARM\\PACK\\ARM\\CMSIS\\5.0.1\\CMSIS\\Inc
lude\\cmsis_armcc.h

|i._ZN6String6concatEPKcj| 00000000

Symbol: |i._ZN6String6concatEPKcj|
   Definitions



ARM Macro Assembler    Page 2 Alphabetic symbol ordering
Relocatable symbols

      At line 351 in file .\objects\wstring.s
   Uses
      At line 2118 in file .\objects\wstring.s
Comment: |i._ZN6String6concatEPKcj| used once
6 symbols



ARM Macro Assembler    Page 1 Alphabetic symbol ordering
Relocatable symbols

_ZN6String6concatERKS_ 00000000

Symbol: _ZN6String6concatERKS_
   Definitions
      At line 389 in file .\objects\wstring.s
   Uses
      At line 666 in file C:\\Keil_v5\\ARM\\PACK\\ARM\\CMSIS\\5.0.1\\CMSIS\\Inc
lude\\cmsis_armcc.h
Comment: _ZN6String6concatERKS_ used once
|i._ZN6String6concatERKS_| 00000000

Symbol: |i._ZN6String6concatERKS_|
   Definitions
      At line 387 in file .\objects\wstring.s
   Uses
      At line 2349 in file .\objects\wstring.s
Comment: |i._ZN6String6concatERKS_| used once
2 symbols



ARM Macro Assembler    Page 1 Alphabetic symbol ordering
Relocatable symbols

_ZN6String6concatEc 00000000

Symbol: _ZN6String6concatEc
   Definitions
      At line 403 in file .\objects\wstring.s
   Uses
      At line 1938 in file .\objects\wstring.s
      At line 667 in file C:\\Keil_v5\\ARM\\PACK\\ARM\\CMSIS\\5.0.1\\CMSIS\\Inc
lude\\cmsis_armcc.h

|i._ZN6String6concatEc| 00000000

Symbol: |i._ZN6String6concatEc|
   Definitions
      At line 401 in file .\objects\wstring.s
   Uses
      At line 2139 in file .\objects\wstring.s
Comment: |i._ZN6String6concatEc| used once
2 symbols



ARM Macro Assembler    Page 1 Alphabetic symbol ordering
Relocatable symbols

_ZN6String6concatEd 00000000

Symbol: _ZN6String6concatEd
   Definitions
      At line 420 in file .\objects\wstring.s
   Uses
      At line 1960 in file .\objects\wstring.s
      At line 668 in file C:\\Keil_v5\\ARM\\PACK\\ARM\\CMSIS\\5.0.1\\CMSIS\\Inc
lude\\cmsis_armcc.h

|i._ZN6String6concatEd| 00000000

Symbol: |i._ZN6String6concatEd|
   Definitions
      At line 418 in file .\objects\wstring.s
   Uses
      At line 2237 in file .\objects\wstring.s
Comment: |i._ZN6String6concatEd| used once
2 symbols



ARM Macro Assembler    Page 1 Alphabetic symbol ordering
Relocatable symbols

_ZN6String6concatEf 00000000

Symbol: _ZN6String6concatEf
   Definitions
      At line 451 in file .\objects\wstring.s
   Uses
      At line 1981 in file .\objects\wstring.s
      At line 669 in file C:\\Keil_v5\\ARM\\PACK\\ARM\\CMSIS\\5.0.1\\CMSIS\\Inc
lude\\cmsis_armcc.h

|i._ZN6String6concatEf| 00000000

Symbol: |i._ZN6String6concatEf|
   Definitions
      At line 449 in file .\objects\wstring.s
   Uses
      At line 2223 in file .\objects\wstring.s
Comment: |i._ZN6String6concatEf| used once
2 symbols



ARM Macro Assembler    Page 1 Alphabetic symbol ordering
Relocatable symbols

_ZN6String6concatEh 00000000

Symbol: _ZN6String6concatEh
   Definitions
      At line 478 in file .\objects\wstring.s
   Uses
      At line 2001 in file .\objects\wstring.s
      At line 670 in file C:\\Keil_v5\\ARM\\PACK\\ARM\\CMSIS\\5.0.1\\CMSIS\\Inc
lude\\cmsis_armcc.h

|i._ZN6String6concatEh| 00000000

Symbol: |i._ZN6String6concatEh|
   Definitions
      At line 476 in file .\objects\wstring.s
   Uses
      At line 2153 in file .\objects\wstring.s
Comment: |i._ZN6String6concatEh| used once
2 symbols



ARM Macro Assembler    Page 1 Alphabetic symbol ordering
Relocatable symbols

_ZN6String6concatEi 00000000

Symbol: _ZN6String6concatEi
   Definitions
      At line 499 in file .\objects\wstring.s
   Uses
      At line 2020 in file .\objects\wstring.s
      At line 671 in file C:\\Keil_v5\\ARM\\PACK\\ARM\\CMSIS\\5.0.1\\CMSIS\\Inc
lude\\cmsis_armcc.h

|i._ZN6String6concatEi| 00000000

Symbol: |i._ZN6String6concatEi|
   Definitions
      At line 497 in file .\objects\wstring.s
   Uses
      At line 2167 in file .\objects\wstring.s
Comment: |i._ZN6String6concatEi| used once
2 symbols



ARM Macro Assembler    Page 1 Alphabetic symbol ordering
Relocatable symbols

_ZN6String6concatEj 00000000

Symbol: _ZN6String6concatEj
   Definitions
      At line 520 in file .\objects\wstring.s
   Uses
      At line 2039 in file .\objects\wstring.s
      At line 672 in file C:\\Keil_v5\\ARM\\PACK\\ARM\\CMSIS\\5.0.1\\CMSIS\\Inc
lude\\cmsis_armcc.h

|i._ZN6String6concatEj| 00000000

Symbol: |i._ZN6String6concatEj|
   Definitions
      At line 518 in file .\objects\wstring.s
   Uses
      At line 2181 in file .\objects\wstring.s
Comment: |i._ZN6String6concatEj| used once
2 symbols



ARM Macro Assembler    Page 1 Alphabetic symbol ordering
Relocatable symbols

_ZN6String6concatEl 00000000

Symbol: _ZN6String6concatEl
   Definitions
      At line 541 in file .\objects\wstring.s
   Uses
      At line 2058 in file .\objects\wstring.s
      At line 673 in file C:\\Keil_v5\\ARM\\PACK\\ARM\\CMSIS\\5.0.1\\CMSIS\\Inc
lude\\cmsis_armcc.h

|i._ZN6String6concatEl| 00000000

Symbol: |i._ZN6String6concatEl|
   Definitions
      At line 539 in file .\objects\wstring.s
   Uses
      At line 2195 in file .\objects\wstring.s
Comment: |i._ZN6String6concatEl| used once
2 symbols



ARM Macro Assembler    Page 1 Alphabetic symbol ordering
Relocatable symbols

_ZN6String6concatEm 00000000

Symbol: _ZN6String6concatEm
   Definitions
      At line 562 in file .\objects\wstring.s
   Uses
      At line 2077 in file .\objects\wstring.s
      At line 674 in file C:\\Keil_v5\\ARM\\PACK\\ARM\\CMSIS\\5.0.1\\CMSIS\\Inc
lude\\cmsis_armcc.h

|i._ZN6String6concatEm| 00000000

Symbol: |i._ZN6String6concatEm|
   Definitions
      At line 560 in file .\objects\wstring.s
   Uses
      At line 2209 in file .\objects\wstring.s
Comment: |i._ZN6String6concatEm| used once
2 symbols



ARM Macro Assembler    Page 1 Alphabetic symbol ordering
Relocatable symbols

L18.12 0000000C

Symbol: L18.12
   Definitions
      At line 590 in file .\objects\wstring.s
   Uses
      At line 600 in file .\objects\wstring.s
Comment: L18.12 used once
L18.14 0000000E

Symbol: L18.14
   Definitions
      At line 592 in file .\objects\wstring.s
   Uses
      At line 589 in file .\objects\wstring.s
Comment: L18.14 used once
_ZN6String6removeEj 00000000

Symbol: _ZN6String6removeEj
   Definitions
      At line 583 in file .\objects\wstring.s
   Uses
      At line 675 in file C:\\Keil_v5\\ARM\\PACK\\ARM\\CMSIS\\5.0.1\\CMSIS\\Inc
lude\\cmsis_armcc.h
Comment: _ZN6String6removeEj used once
|i._ZN6String6removeEj| 00000000

Symbol: |i._ZN6String6removeEj|
   Definitions
      At line 581 in file .\objects\wstring.s
   Uses
      At line 2559 in file .\objects\wstring.s
Comment: |i._ZN6String6removeEj| used once
4 symbols



ARM Macro Assembler    Page 1 Alphabetic symbol ordering
Relocatable symbols

L19.16 00000010

Symbol: L19.16
   Definitions
      At line 614 in file .\objects\wstring.s
   Uses
      At line 618 in file .\objects\wstring.s
      At line 644 in file .\objects\wstring.s

L19.20 00000014

Symbol: L19.20
   Definitions
      At line 616 in file .\objects\wstring.s
   Uses
      At line 613 in file .\objects\wstring.s
Comment: L19.20 used once
L19.24 00000018

Symbol: L19.24
   Definitions
      At line 619 in file .\objects\wstring.s
   Uses
      At line 617 in file .\objects\wstring.s
Comment: L19.24 used once
L19.36 00000024

Symbol: L19.36
   Definitions
      At line 626 in file .\objects\wstring.s
   Uses
      At line 623 in file .\objects\wstring.s
Comment: L19.36 used once
_ZN6String6removeEjj 00000000

Symbol: _ZN6String6removeEjj
   Definitions
      At line 606 in file .\objects\wstring.s
   Uses
      At line 598 in file .\objects\wstring.s
      At line 676 in file C:\\Keil_v5\\ARM\\PACK\\ARM\\CMSIS\\5.0.1\\CMSIS\\Inc
lude\\cmsis_armcc.h

|i._ZN6String6removeEjj| 00000000

Symbol: |i._ZN6String6removeEjj|
   Definitions
      At line 604 in file .\objects\wstring.s
   Uses
      At line 2552 in file .\objects\wstring.s
Comment: |i._ZN6String6removeEjj| used once
6 symbols



ARM Macro Assembler    Page 1 Alphabetic symbol ordering
Relocatable symbols

L20.128 00000080

Symbol: L20.128
   Definitions
      At line 707 in file .\objects\wstring.s
   Uses
      At line 687 in file .\objects\wstring.s
Comment: L20.128 used once
L20.150 00000096

Symbol: L20.150
   Definitions
      At line 717 in file .\objects\wstring.s
   Uses
      At line 685 in file .\objects\wstring.s
Comment: L20.150 used once
L20.156 0000009C

Symbol: L20.156
   Definitions
      At line 720 in file .\objects\wstring.s
   Uses
      At line 729 in file .\objects\wstring.s
Comment: L20.156 used once
L20.164 000000A4

Symbol: L20.164
   Definitions
      At line 724 in file .\objects\wstring.s
   Uses
      At line 719 in file .\objects\wstring.s
Comment: L20.164 used once
L20.18 00000012

Symbol: L20.18
   Definitions
      At line 659 in file .\objects\wstring.s
   Uses
      At line 656 in file .\objects\wstring.s
      At line 733 in file .\objects\wstring.s
      At line 742 in file .\objects\wstring.s
      At line 785 in file .\objects\wstring.s

L20.184 000000B8

Symbol: L20.184
   Definitions
      At line 734 in file .\objects\wstring.s
   Uses
      At line 732 in file .\objects\wstring.s
Comment: L20.184 used once
L20.202 000000CA

Symbol: L20.202
   Definitions
      At line 743 in file .\objects\wstring.s
   Uses
      At line 737 in file .\objects\wstring.s
      At line 741 in file .\objects\wstring.s



ARM Macro Assembler    Page 2 Alphabetic symbol ordering
Relocatable symbols


L20.210 000000D2

Symbol: L20.210
   Definitions
      At line 747 in file .\objects\wstring.s
   Uses
      At line 780 in file .\objects\wstring.s
Comment: L20.210 used once
L20.22 00000016

Symbol: L20.22
   Definitions
      At line 661 in file .\objects\wstring.s
   Uses
      At line 658 in file .\objects\wstring.s
Comment: L20.22 used once
L20.272 00000110

Symbol: L20.272
   Definitions
      At line 772 in file .\objects\wstring.s
   Uses
      At line 746 in file .\objects\wstring.s
Comment: L20.272 used once
L20.294 00000126

Symbol: L20.294
   Definitions
      At line 781 in file .\objects\wstring.s
   Uses
      At line 774 in file .\objects\wstring.s
Comment: L20.294 used once
L20.296 00000128

Symbol: L20.296
   Definitions
      At line 783 in file .\objects\wstring.s
   Uses
      At line 682 in file .\objects\wstring.s
      At line 716 in file .\objects\wstring.s

L20.42 0000002A

Symbol: L20.42
   Definitions
      At line 669 in file .\objects\wstring.s
   Uses
      At line 681 in file .\objects\wstring.s
Comment: L20.42 used once
L20.58 0000003A

Symbol: L20.58
   Definitions
      At line 676 in file .\objects\wstring.s
   Uses
      At line 668 in file .\objects\wstring.s
Comment: L20.58 used once
L20.72 00000048



ARM Macro Assembler    Page 3 Alphabetic symbol ordering
Relocatable symbols


Symbol: L20.72
   Definitions
      At line 683 in file .\objects\wstring.s
   Uses
      At line 667 in file .\objects\wstring.s
Comment: L20.72 used once
L20.84 00000054

Symbol: L20.84
   Definitions
      At line 688 in file .\objects\wstring.s
   Uses
      At line 712 in file .\objects\wstring.s
Comment: L20.84 used once
_ZN6String7replaceERKS_S1_ 00000000

Symbol: _ZN6String7replaceERKS_S1_
   Definitions
      At line 650 in file .\objects\wstring.s
   Uses
      At line 677 in file C:\\Keil_v5\\ARM\\PACK\\ARM\\CMSIS\\5.0.1\\CMSIS\\Inc
lude\\cmsis_armcc.h
Comment: _ZN6String7replaceERKS_S1_ used once
|i._ZN6String7replaceERKS_S1_| 00000000

Symbol: |i._ZN6String7replaceERKS_S1_|
   Definitions
      At line 648 in file .\objects\wstring.s
   Uses
      At line 2545 in file .\objects\wstring.s
Comment: |i._ZN6String7replaceERKS_S1_| used once
18 symbols



ARM Macro Assembler    Page 1 Alphabetic symbol ordering
Relocatable symbols

L21.10 0000000A

Symbol: L21.10
   Definitions
      At line 798 in file .\objects\wstring.s
   Uses
      At line 795 in file .\objects\wstring.s
Comment: L21.10 used once
L21.14 0000000E

Symbol: L21.14
   Definitions
      At line 801 in file .\objects\wstring.s
   Uses
      At line 811 in file .\objects\wstring.s
Comment: L21.14 used once
L21.22 00000016

Symbol: L21.22
   Definitions
      At line 806 in file .\objects\wstring.s
   Uses
      At line 804 in file .\objects\wstring.s
Comment: L21.22 used once
L21.24 00000018

Symbol: L21.24
   Definitions
      At line 808 in file .\objects\wstring.s
   Uses
      At line 800 in file .\objects\wstring.s
Comment: L21.24 used once
L21.8 00000008

Symbol: L21.8
   Definitions
      At line 796 in file .\objects\wstring.s
   Uses
      At line 813 in file .\objects\wstring.s
Comment: L21.8 used once
_ZN6String7replaceEcc 00000000

Symbol: _ZN6String7replaceEcc
   Definitions
      At line 791 in file .\objects\wstring.s
   Uses
      At line 678 in file C:\\Keil_v5\\ARM\\PACK\\ARM\\CMSIS\\5.0.1\\CMSIS\\Inc
lude\\cmsis_armcc.h
Comment: _ZN6String7replaceEcc used once
|i._ZN6String7replaceEcc| 00000000

Symbol: |i._ZN6String7replaceEcc|
   Definitions
      At line 789 in file .\objects\wstring.s
   Uses
      At line 2538 in file .\objects\wstring.s
Comment: |i._ZN6String7replaceEcc| used once
7 symbols



ARM Macro Assembler    Page 1 Alphabetic symbol ordering
Relocatable symbols

L22.18 00000012

Symbol: L22.18
   Definitions
      At line 829 in file .\objects\wstring.s
   Uses
      At line 843 in file .\objects\wstring.s
      At line 846 in file .\objects\wstring.s

L22.20 00000014

Symbol: L22.20
   Definitions
      At line 831 in file .\objects\wstring.s
   Uses
      At line 824 in file .\objects\wstring.s
      At line 827 in file .\objects\wstring.s

L22.40 00000028

Symbol: L22.40
   Definitions
      At line 841 in file .\objects\wstring.s
   Uses
      At line 837 in file .\objects\wstring.s
Comment: L22.40 used once
L22.44 0000002C

Symbol: L22.44
   Definitions
      At line 844 in file .\objects\wstring.s
   Uses
      At line 835 in file .\objects\wstring.s
Comment: L22.44 used once
_ZN6String7reserveEj 00000000

Symbol: _ZN6String7reserveEj
   Definitions
      At line 819 in file .\objects\wstring.s
   Uses
      At line 257 in file .\objects\wstring.s
      At line 371 in file .\objects\wstring.s
      At line 679 in file C:\\Keil_v5\\ARM\\PACK\\ARM\\CMSIS\\5.0.1\\CMSIS\\Inc
lude\\cmsis_armcc.h

|i._ZN6String7reserveEj| 00000000

Symbol: |i._ZN6String7reserveEj|
   Definitions
      At line 817 in file .\objects\wstring.s
   Uses
      At line 2111 in file .\objects\wstring.s
Comment: |i._ZN6String7reserveEj| used once
6 symbols



ARM Macro Assembler    Page 1 Alphabetic symbol ordering
Relocatable symbols

L23.10 0000000A

Symbol: L23.10
   Definitions
      At line 858 in file .\objects\wstring.s
   Uses
      At line 855 in file .\objects\wstring.s
Comment: L23.10 used once
_ZN6String9setCharAtEjc 00000000

Symbol: _ZN6String9setCharAtEjc
   Definitions
      At line 852 in file .\objects\wstring.s
   Uses
      At line 680 in file C:\\Keil_v5\\ARM\\PACK\\ARM\\CMSIS\\5.0.1\\CMSIS\\Inc
lude\\cmsis_armcc.h
Comment: _ZN6String9setCharAtEjc used once
|i._ZN6String9setCharAtEjc| 00000000

Symbol: |i._ZN6String9setCharAtEjc|
   Definitions
      At line 850 in file .\objects\wstring.s
   Uses
      At line 2454 in file .\objects\wstring.s
Comment: |i._ZN6String9setCharAtEjc| used once
3 symbols



ARM Macro Assembler    Page 1 Alphabetic symbol ordering
Relocatable symbols

L24.32 00000020

Symbol: L24.32
   Definitions
      At line 880 in file .\objects\wstring.s
   Uses
      At line 872 in file .\objects\wstring.s
Comment: L24.32 used once
_ZN6StringC1EPKc 00000000

Symbol: _ZN6StringC1EPKc
   Definitions
      At line 866 in file .\objects\wstring.s
   Uses
      At line 1761 in file .\objects\wstring.s
      At line 682 in file C:\\Keil_v5\\ARM\\PACK\\ARM\\CMSIS\\5.0.1\\CMSIS\\Inc
lude\\cmsis_armcc.h

_ZN6StringC2EPKc 00000000

Symbol: _ZN6StringC2EPKc
   Definitions
      At line 865 in file .\objects\wstring.s
   Uses
      At line 681 in file C:\\Keil_v5\\ARM\\PACK\\ARM\\CMSIS\\5.0.1\\CMSIS\\Inc
lude\\cmsis_armcc.h
Comment: _ZN6StringC2EPKc used once
|i._ZN6StringC1EPKc| 00000000

Symbol: |i._ZN6StringC1EPKc|
   Definitions
      At line 863 in file .\objects\wstring.s
   Uses
      At line 2258 in file .\objects\wstring.s
Comment: |i._ZN6StringC1EPKc| used once
4 symbols



ARM Macro Assembler    Page 1 Alphabetic symbol ordering
Relocatable symbols

_ZN6StringC1ERKS_ 00000000

Symbol: _ZN6StringC1ERKS_
   Definitions
      At line 889 in file .\objects\wstring.s
   Uses
      At line 684 in file C:\\Keil_v5\\ARM\\PACK\\ARM\\CMSIS\\5.0.1\\CMSIS\\Inc
lude\\cmsis_armcc.h
Comment: _ZN6StringC1ERKS_ used once
_ZN6StringC2ERKS_ 00000000

Symbol: _ZN6StringC2ERKS_
   Definitions
      At line 888 in file .\objects\wstring.s
   Uses
      At line 683 in file C:\\Keil_v5\\ARM\\PACK\\ARM\\CMSIS\\5.0.1\\CMSIS\\Inc
lude\\cmsis_armcc.h
Comment: _ZN6StringC2ERKS_ used once
|i._ZN6StringC1ERKS_| 00000000

Symbol: |i._ZN6StringC1ERKS_|
   Definitions
      At line 886 in file .\objects\wstring.s
   Uses
      At line 2272 in file .\objects\wstring.s
Comment: |i._ZN6StringC1ERKS_| used once
3 symbols



ARM Macro Assembler    Page 1 Alphabetic symbol ordering
Relocatable symbols

_ZN6StringC1Ec 00000000

Symbol: _ZN6StringC1Ec
   Definitions
      At line 906 in file .\objects\wstring.s
   Uses
      At line 686 in file C:\\Keil_v5\\ARM\\PACK\\ARM\\CMSIS\\5.0.1\\CMSIS\\Inc
lude\\cmsis_armcc.h
Comment: _ZN6StringC1Ec used once
_ZN6StringC2Ec 00000000

Symbol: _ZN6StringC2Ec
   Definitions
      At line 905 in file .\objects\wstring.s
   Uses
      At line 685 in file C:\\Keil_v5\\ARM\\PACK\\ARM\\CMSIS\\5.0.1\\CMSIS\\Inc
lude\\cmsis_armcc.h
Comment: _ZN6StringC2Ec used once
|i._ZN6StringC1Ec| 00000000

Symbol: |i._ZN6StringC1Ec|
   Definitions
      At line 903 in file .\objects\wstring.s
   Uses
      At line 2286 in file .\objects\wstring.s
Comment: |i._ZN6StringC1Ec| used once
3 symbols



ARM Macro Assembler    Page 1 Alphabetic symbol ordering
Relocatable symbols

_ZN6StringC1Edh 00000000

Symbol: _ZN6StringC1Edh
   Definitions
      At line 926 in file .\objects\wstring.s
   Uses
      At line 688 in file C:\\Keil_v5\\ARM\\PACK\\ARM\\CMSIS\\5.0.1\\CMSIS\\Inc
lude\\cmsis_armcc.h
Comment: _ZN6StringC1Edh used once
_ZN6StringC2Edh 00000000

Symbol: _ZN6StringC2Edh
   Definitions
      At line 925 in file .\objects\wstring.s
   Uses
      At line 687 in file C:\\Keil_v5\\ARM\\PACK\\ARM\\CMSIS\\5.0.1\\CMSIS\\Inc
lude\\cmsis_armcc.h
Comment: _ZN6StringC2Edh used once
|i._ZN6StringC1Edh| 00000000

Symbol: |i._ZN6StringC1Edh|
   Definitions
      At line 923 in file .\objects\wstring.s
   Uses
      At line 2335 in file .\objects\wstring.s
Comment: |i._ZN6StringC1Edh| used once
3 symbols



ARM Macro Assembler    Page 1 Alphabetic symbol ordering
Relocatable symbols

_ZN6StringC1Efh 00000000

Symbol: _ZN6StringC1Efh
   Definitions
      At line 958 in file .\objects\wstring.s
   Uses
      At line 690 in file C:\\Keil_v5\\ARM\\PACK\\ARM\\CMSIS\\5.0.1\\CMSIS\\Inc
lude\\cmsis_armcc.h
Comment: _ZN6StringC1Efh used once
_ZN6StringC2Efh 00000000

Symbol: _ZN6StringC2Efh
   Definitions
      At line 957 in file .\objects\wstring.s
   Uses
      At line 689 in file C:\\Keil_v5\\ARM\\PACK\\ARM\\CMSIS\\5.0.1\\CMSIS\\Inc
lude\\cmsis_armcc.h
Comment: _ZN6StringC2Efh used once
|i._ZN6StringC1Efh| 00000000

Symbol: |i._ZN6StringC1Efh|
   Definitions
      At line 955 in file .\objects\wstring.s
   Uses
      At line 2328 in file .\objects\wstring.s
Comment: |i._ZN6StringC1Efh| used once
3 symbols



ARM Macro Assembler    Page 1 Alphabetic symbol ordering
Relocatable symbols

_ZN6StringC1Ehh 00000000

Symbol: _ZN6StringC1Ehh
   Definitions
      At line 986 in file .\objects\wstring.s
   Uses
      At line 692 in file C:\\Keil_v5\\ARM\\PACK\\ARM\\CMSIS\\5.0.1\\CMSIS\\Inc
lude\\cmsis_armcc.h
Comment: _ZN6StringC1Ehh used once
_ZN6StringC2Ehh 00000000

Symbol: _ZN6StringC2Ehh
   Definitions
      At line 985 in file .\objects\wstring.s
   Uses
      At line 691 in file C:\\Keil_v5\\ARM\\PACK\\ARM\\CMSIS\\5.0.1\\CMSIS\\Inc
lude\\cmsis_armcc.h
Comment: _ZN6StringC2Ehh used once
|i._ZN6StringC1Ehh| 00000000

Symbol: |i._ZN6StringC1Ehh|
   Definitions
      At line 983 in file .\objects\wstring.s
   Uses
      At line 2293 in file .\objects\wstring.s
Comment: |i._ZN6StringC1Ehh| used once
3 symbols



ARM Macro Assembler    Page 1 Alphabetic symbol ordering
Relocatable symbols

_ZN6StringC1Eih 00000000

Symbol: _ZN6StringC1Eih
   Definitions
      At line 1008 in file .\objects\wstring.s
   Uses
      At line 694 in file C:\\Keil_v5\\ARM\\PACK\\ARM\\CMSIS\\5.0.1\\CMSIS\\Inc
lude\\cmsis_armcc.h
Comment: _ZN6StringC1Eih used once
_ZN6StringC2Eih 00000000

Symbol: _ZN6StringC2Eih
   Definitions
      At line 1007 in file .\objects\wstring.s
   Uses
      At line 693 in file C:\\Keil_v5\\ARM\\PACK\\ARM\\CMSIS\\5.0.1\\CMSIS\\Inc
lude\\cmsis_armcc.h
Comment: _ZN6StringC2Eih used once
|i._ZN6StringC1Eih| 00000000

Symbol: |i._ZN6StringC1Eih|
   Definitions
      At line 1005 in file .\objects\wstring.s
   Uses
      At line 2300 in file .\objects\wstring.s
Comment: |i._ZN6StringC1Eih| used once
3 symbols



ARM Macro Assembler    Page 1 Alphabetic symbol ordering
Relocatable symbols

_ZN6StringC1Ejh 00000000

Symbol: _ZN6StringC1Ejh
   Definitions
      At line 1032 in file .\objects\wstring.s
   Uses
      At line 696 in file C:\\Keil_v5\\ARM\\PACK\\ARM\\CMSIS\\5.0.1\\CMSIS\\Inc
lude\\cmsis_armcc.h
Comment: _ZN6StringC1Ejh used once
_ZN6StringC2Ejh 00000000

Symbol: _ZN6StringC2Ejh
   Definitions
      At line 1031 in file .\objects\wstring.s
   Uses
      At line 695 in file C:\\Keil_v5\\ARM\\PACK\\ARM\\CMSIS\\5.0.1\\CMSIS\\Inc
lude\\cmsis_armcc.h
Comment: _ZN6StringC2Ejh used once
|i._ZN6StringC1Ejh| 00000000

Symbol: |i._ZN6StringC1Ejh|
   Definitions
      At line 1029 in file .\objects\wstring.s
   Uses
      At line 2307 in file .\objects\wstring.s
Comment: |i._ZN6StringC1Ejh| used once
3 symbols



ARM Macro Assembler    Page 1 Alphabetic symbol ordering
Relocatable symbols

_ZN6StringC1Elh 00000000

Symbol: _ZN6StringC1Elh
   Definitions
      At line 1056 in file .\objects\wstring.s
   Uses
      At line 698 in file C:\\Keil_v5\\ARM\\PACK\\ARM\\CMSIS\\5.0.1\\CMSIS\\Inc
lude\\cmsis_armcc.h
Comment: _ZN6StringC1Elh used once
_ZN6StringC2Elh 00000000

Symbol: _ZN6StringC2Elh
   Definitions
      At line 1055 in file .\objects\wstring.s
   Uses
      At line 697 in file C:\\Keil_v5\\ARM\\PACK\\ARM\\CMSIS\\5.0.1\\CMSIS\\Inc
lude\\cmsis_armcc.h
Comment: _ZN6StringC2Elh used once
|i._ZN6StringC1Elh| 00000000

Symbol: |i._ZN6StringC1Elh|
   Definitions
      At line 1053 in file .\objects\wstring.s
   Uses
      At line 2314 in file .\objects\wstring.s
Comment: |i._ZN6StringC1Elh| used once
3 symbols



ARM Macro Assembler    Page 1 Alphabetic symbol ordering
Relocatable symbols

_ZN6StringC1Emh 00000000

Symbol: _ZN6StringC1Emh
   Definitions
      At line 1080 in file .\objects\wstring.s
   Uses
      At line 700 in file C:\\Keil_v5\\ARM\\PACK\\ARM\\CMSIS\\5.0.1\\CMSIS\\Inc
lude\\cmsis_armcc.h
Comment: _ZN6StringC1Emh used once
_ZN6StringC2Emh 00000000

Symbol: _ZN6StringC2Emh
   Definitions
      At line 1079 in file .\objects\wstring.s
   Uses
      At line 699 in file C:\\Keil_v5\\ARM\\PACK\\ARM\\CMSIS\\5.0.1\\CMSIS\\Inc
lude\\cmsis_armcc.h
Comment: _ZN6StringC2Emh used once
|i._ZN6StringC1Emh| 00000000

Symbol: |i._ZN6StringC1Emh|
   Definitions
      At line 1077 in file .\objects\wstring.s
   Uses
      At line 2321 in file .\objects\wstring.s
Comment: |i._ZN6StringC1Emh| used once
3 symbols



ARM Macro Assembler    Page 1 Alphabetic symbol ordering
Relocatable symbols

_ZN6StringD1Ev 00000000

Symbol: _ZN6StringD1Ev
   Definitions
      At line 1104 in file .\objects\wstring.s
   Uses
      At line 702 in file C:\\Keil_v5\\ARM\\PACK\\ARM\\CMSIS\\5.0.1\\CMSIS\\Inc
lude\\cmsis_armcc.h
Comment: _ZN6StringD1Ev used once
_ZN6StringD2Ev 00000000

Symbol: _ZN6StringD2Ev
   Definitions
      At line 1103 in file .\objects\wstring.s
   Uses
      At line 701 in file C:\\Keil_v5\\ARM\\PACK\\ARM\\CMSIS\\5.0.1\\CMSIS\\Inc
lude\\cmsis_armcc.h
Comment: _ZN6StringD2Ev used once
|i._ZN6StringD1Ev| 00000000

Symbol: |i._ZN6StringD1Ev|
   Definitions
      At line 1101 in file .\objects\wstring.s
   Uses
      At line 2342 in file .\objects\wstring.s
Comment: |i._ZN6StringD1Ev| used once
3 symbols



ARM Macro Assembler    Page 1 Alphabetic symbol ordering
Relocatable symbols

L35.28 0000001C

Symbol: L35.28
   Definitions
      At line 1129 in file .\objects\wstring.s
   Uses
      At line 1120 in file .\objects\wstring.s
Comment: L35.28 used once
L35.34 00000022

Symbol: L35.34
   Definitions
      At line 1132 in file .\objects\wstring.s
   Uses
      At line 1128 in file .\objects\wstring.s
Comment: L35.34 used once
_ZN6StringaSEPKc 00000000

Symbol: _ZN6StringaSEPKc
   Definitions
      At line 1116 in file .\objects\wstring.s
   Uses
      At line 917 in file .\objects\wstring.s
      At line 947 in file .\objects\wstring.s
      At line 975 in file .\objects\wstring.s
      At line 999 in file .\objects\wstring.s
      At line 1022 in file .\objects\wstring.s
      At line 1046 in file .\objects\wstring.s
      At line 1070 in file .\objects\wstring.s
      At line 1094 in file .\objects\wstring.s
      At line 1782 in file .\objects\wstring.s
      At line 703 in file C:\\Keil_v5\\ARM\\PACK\\ARM\\CMSIS\\5.0.1\\CMSIS\\Inc
lude\\cmsis_armcc.h

|i._ZN6StringaSEPKc| 00000000

Symbol: |i._ZN6StringaSEPKc|
   Definitions
      At line 1114 in file .\objects\wstring.s
   Uses
      At line 2279 in file .\objects\wstring.s
Comment: |i._ZN6StringaSEPKc| used once
4 symbols



ARM Macro Assembler    Page 1 Alphabetic symbol ordering
Relocatable symbols

L36.12 0000000C

Symbol: L36.12
   Definitions
      At line 1147 in file .\objects\wstring.s
   Uses
      At line 1162 in file .\objects\wstring.s
Comment: L36.12 used once
L36.14 0000000E

Symbol: L36.14
   Definitions
      At line 1149 in file .\objects\wstring.s
   Uses
      At line 1145 in file .\objects\wstring.s
Comment: L36.14 used once
L36.30 0000001E

Symbol: L36.30
   Definitions
      At line 1157 in file .\objects\wstring.s
   Uses
      At line 1151 in file .\objects\wstring.s
Comment: L36.30 used once
L36.36 00000024

Symbol: L36.36
   Definitions
      At line 1160 in file .\objects\wstring.s
   Uses
      At line 1156 in file .\objects\wstring.s
Comment: L36.36 used once
_ZN6StringaSERKS_ 00000000

Symbol: _ZN6StringaSERKS_
   Definitions
      At line 1140 in file .\objects\wstring.s
   Uses
      At line 897 in file .\objects\wstring.s
      At line 704 in file C:\\Keil_v5\\ARM\\PACK\\ARM\\CMSIS\\5.0.1\\CMSIS\\Inc
lude\\cmsis_armcc.h

|i._ZN6StringaSERKS_| 00000000

Symbol: |i._ZN6StringaSERKS_|
   Definitions
      At line 1138 in file .\objects\wstring.s
   Uses
      At line 2265 in file .\objects\wstring.s
Comment: |i._ZN6StringaSERKS_| used once
6 symbols



ARM Macro Assembler    Page 1 Alphabetic symbol ordering
Relocatable symbols

L37.12 0000000C

Symbol: L37.12
   Definitions
      At line 1175 in file .\objects\wstring.s
   Uses
      At line 1172 in file .\objects\wstring.s
Comment: L37.12 used once
L37.20 00000014

Symbol: L37.20
   Definitions
      At line 1180 in file .\objects\wstring.s
   Uses
      At line 1185 in file .\objects\wstring.s
Comment: L37.20 used once
L37.22 00000016

Symbol: L37.22
   Definitions
      At line 1182 in file .\objects\wstring.s
   Uses
      At line 1174 in file .\objects\wstring.s
Comment: L37.22 used once
L37.28 0000001C

Symbol: L37.28
   Definitions
      At line 1188 in file .\objects\wstring.s
   Uses
      At line 1177 in file .\objects\wstring.s
Comment: L37.28 used once
_ZN6StringixEj 00000000

Symbol: _ZN6StringixEj
   Definitions
      At line 1168 in file .\objects\wstring.s
   Uses
      At line 705 in file C:\\Keil_v5\\ARM\\PACK\\ARM\\CMSIS\\5.0.1\\CMSIS\\Inc
lude\\cmsis_armcc.h
Comment: _ZN6StringixEj used once
|i._ZN6StringixEj| 00000000

Symbol: |i._ZN6StringixEj|
   Definitions
      At line 1166 in file .\objects\wstring.s
   Uses
      At line 2461 in file .\objects\wstring.s
Comment: |i._ZN6StringixEj| used once
6 symbols



ARM Macro Assembler    Page 1 Alphabetic symbol ordering
Relocatable symbols

L38.16 00000010

Symbol: L38.16
   Definitions
      At line 1202 in file .\objects\wstring.s
   Uses
      At line 1209 in file .\objects\wstring.s
Comment: L38.16 used once
L38.18 00000012

Symbol: L38.18
   Definitions
      At line 1204 in file .\objects\wstring.s
   Uses
      At line 1200 in file .\objects\wstring.s
Comment: L38.18 used once
_ZNK6String10startsWithERKS_ 00000000

Symbol: _ZNK6String10startsWithERKS_
   Definitions
      At line 1193 in file .\objects\wstring.s
   Uses
      At line 706 in file C:\\Keil_v5\\ARM\\PACK\\ARM\\CMSIS\\5.0.1\\CMSIS\\Inc
lude\\cmsis_armcc.h
Comment: _ZNK6String10startsWithERKS_ used once
|i._ZNK6String10startsWithERKS_| 00000000

Symbol: |i._ZNK6String10startsWithERKS_|
   Definitions
      At line 1191 in file .\objects\wstring.s
   Uses
      At line 2426 in file .\objects\wstring.s
Comment: |i._ZNK6String10startsWithERKS_| used once
4 symbols



ARM Macro Assembler    Page 1 Alphabetic symbol ordering
Relocatable symbols

L39.26 0000001A

Symbol: L39.26
   Definitions
      At line 1229 in file .\objects\wstring.s
   Uses
      At line 1224 in file .\objects\wstring.s
      At line 1226 in file .\objects\wstring.s

L39.28 0000001C

Symbol: L39.28
   Definitions
      At line 1231 in file .\objects\wstring.s
   Uses
      At line 1241 in file .\objects\wstring.s
      At line 1244 in file .\objects\wstring.s

L39.30 0000001E

Symbol: L39.30
   Definitions
      At line 1233 in file .\objects\wstring.s
   Uses
      At line 1228 in file .\objects\wstring.s
Comment: L39.30 used once
L39.48 00000030

Symbol: L39.48
   Definitions
      At line 1242 in file .\objects\wstring.s
   Uses
      At line 1239 in file .\objects\wstring.s
Comment: L39.48 used once
_ZNK6String10startsWithERKS_j 00000000

Symbol: _ZNK6String10startsWithERKS_j
   Definitions
      At line 1215 in file .\objects\wstring.s
   Uses
      At line 1208 in file .\objects\wstring.s
      At line 707 in file C:\\Keil_v5\\ARM\\PACK\\ARM\\CMSIS\\5.0.1\\CMSIS\\Inc
lude\\cmsis_armcc.h

|i._ZNK6String10startsWithERKS_j| 00000000

Symbol: |i._ZNK6String10startsWithERKS_j|
   Definitions
      At line 1213 in file .\objects\wstring.s
   Uses
      At line 2419 in file .\objects\wstring.s
Comment: |i._ZNK6String10startsWithERKS_j| used once
6 symbols



ARM Macro Assembler    Page 1 Alphabetic symbol ordering
Relocatable symbols

_ZNK6String11lastIndexOfERKS_ 00000000

Symbol: _ZNK6String11lastIndexOfERKS_
   Definitions
      At line 1250 in file .\objects\wstring.s
   Uses
      At line 708 in file C:\\Keil_v5\\ARM\\PACK\\ARM\\CMSIS\\5.0.1\\CMSIS\\Inc
lude\\cmsis_armcc.h
Comment: _ZNK6String11lastIndexOfERKS_ used once
|i._ZNK6String11lastIndexOfERKS_| 00000000

Symbol: |i._ZNK6String11lastIndexOfERKS_|
   Definitions
      At line 1248 in file .\objects\wstring.s
   Uses
      At line 2524 in file .\objects\wstring.s
Comment: |i._ZNK6String11lastIndexOfERKS_| used once
2 symbols



ARM Macro Assembler    Page 1 Alphabetic symbol ordering
Relocatable symbols

L41.26 0000001A

Symbol: L41.26
   Definitions
      At line 1279 in file .\objects\wstring.s
   Uses
      At line 1272 in file .\objects\wstring.s
      At line 1274 in file .\objects\wstring.s

L41.30 0000001E

Symbol: L41.30
   Definitions
      At line 1281 in file .\objects\wstring.s
   Uses
      At line 1316 in file .\objects\wstring.s
Comment: L41.30 used once
L41.34 00000022

Symbol: L41.34
   Definitions
      At line 1283 in file .\objects\wstring.s
   Uses
      At line 1278 in file .\objects\wstring.s
Comment: L41.34 used once
L41.44 0000002C

Symbol: L41.44
   Definitions
      At line 1289 in file .\objects\wstring.s
   Uses
      At line 1286 in file .\objects\wstring.s
Comment: L41.44 used once
L41.52 00000034

Symbol: L41.52
   Definitions
      At line 1293 in file .\objects\wstring.s
   Uses
      At line 1313 in file .\objects\wstring.s
Comment: L41.52 used once
L41.66 00000042

Symbol: L41.66
   Definitions
      At line 1300 in file .\objects\wstring.s
   Uses
      At line 1298 in file .\objects\wstring.s
Comment: L41.66 used once
L41.80 00000050

Symbol: L41.80
   Definitions
      At line 1307 in file .\objects\wstring.s
   Uses
      At line 1304 in file .\objects\wstring.s
Comment: L41.80 used once
L41.82 00000052




ARM Macro Assembler    Page 2 Alphabetic symbol ordering
Relocatable symbols

Symbol: L41.82
   Definitions
      At line 1309 in file .\objects\wstring.s
   Uses
      At line 1292 in file .\objects\wstring.s
Comment: L41.82 used once
L41.90 0000005A

Symbol: L41.90
   Definitions
      At line 1314 in file .\objects\wstring.s
   Uses
      At line 1299 in file .\objects\wstring.s
Comment: L41.90 used once
_ZNK6String11lastIndexOfERKS_j 00000000

Symbol: _ZNK6String11lastIndexOfERKS_j
   Definitions
      At line 1266 in file .\objects\wstring.s
   Uses
      At line 778 in file .\objects\wstring.s
      At line 1259 in file .\objects\wstring.s
      At line 709 in file C:\\Keil_v5\\ARM\\PACK\\ARM\\CMSIS\\5.0.1\\CMSIS\\Inc
lude\\cmsis_armcc.h

|i._ZNK6String11lastIndexOfERKS_j| 00000000

Symbol: |i._ZNK6String11lastIndexOfERKS_j|
   Definitions
      At line 1264 in file .\objects\wstring.s
   Uses
      At line 2517 in file .\objects\wstring.s
Comment: |i._ZNK6String11lastIndexOfERKS_j| used once
11 symbols



ARM Macro Assembler    Page 1 Alphabetic symbol ordering
Relocatable symbols

_ZNK6String11lastIndexOfEc 00000000

Symbol: _ZNK6String11lastIndexOfEc
   Definitions
      At line 1322 in file .\objects\wstring.s
   Uses
      At line 710 in file C:\\Keil_v5\\ARM\\PACK\\ARM\\CMSIS\\5.0.1\\CMSIS\\Inc
lude\\cmsis_armcc.h
Comment: _ZNK6String11lastIndexOfEc used once
|i._ZNK6String11lastIndexOfEc| 00000000

Symbol: |i._ZNK6String11lastIndexOfEc|
   Definitions
      At line 1320 in file .\objects\wstring.s
   Uses
      At line 2510 in file .\objects\wstring.s
Comment: |i._ZNK6String11lastIndexOfEc| used once
2 symbols



ARM Macro Assembler    Page 1 Alphabetic symbol ordering
Relocatable symbols

L43.20 00000014

Symbol: L43.20
   Definitions
      At line 1346 in file .\objects\wstring.s
   Uses
      At line 1366 in file .\objects\wstring.s
      At line 1370 in file .\objects\wstring.s

L43.24 00000018

Symbol: L43.24
   Definitions
      At line 1348 in file .\objects\wstring.s
   Uses
      At line 1344 in file .\objects\wstring.s
Comment: L43.24 used once
L43.70 00000046

Symbol: L43.70
   Definitions
      At line 1367 in file .\objects\wstring.s
   Uses
      At line 1364 in file .\objects\wstring.s
Comment: L43.70 used once
_ZNK6String11lastIndexOfEcj 00000000

Symbol: _ZNK6String11lastIndexOfEcj
   Definitions
      At line 1337 in file .\objects\wstring.s
   Uses
      At line 1330 in file .\objects\wstring.s
      At line 711 in file C:\\Keil_v5\\ARM\\PACK\\ARM\\CMSIS\\5.0.1\\CMSIS\\Inc
lude\\cmsis_armcc.h

|i._ZNK6String11lastIndexOfEcj| 00000000

Symbol: |i._ZNK6String11lastIndexOfEcj|
   Definitions
      At line 1335 in file .\objects\wstring.s
   Uses
      At line 2503 in file .\objects\wstring.s
Comment: |i._ZNK6String11lastIndexOfEcj| used once
5 symbols



ARM Macro Assembler    Page 1 Alphabetic symbol ordering
Relocatable symbols

L44.14 0000000E

Symbol: L44.14
   Definitions
      At line 1383 in file .\objects\wstring.s
   Uses
      At line 1391 in file .\objects\wstring.s
      At line 1396 in file .\objects\wstring.s
      At line 1410 in file .\objects\wstring.s
      At line 1416 in file .\objects\wstring.s

L44.18 00000012

Symbol: L44.18
   Definitions
      At line 1385 in file .\objects\wstring.s
   Uses
      At line 1381 in file .\objects\wstring.s
Comment: L44.18 used once
L44.30 0000001E

Symbol: L44.30
   Definitions
      At line 1392 in file .\objects\wstring.s
   Uses
      At line 1389 in file .\objects\wstring.s
Comment: L44.30 used once
L44.38 00000026

Symbol: L44.38
   Definitions
      At line 1397 in file .\objects\wstring.s
   Uses
      At line 1394 in file .\objects\wstring.s
Comment: L44.38 used once
L44.44 0000002C

Symbol: L44.44
   Definitions
      At line 1401 in file .\objects\wstring.s
   Uses
      At line 1414 in file .\objects\wstring.s
Comment: L44.44 used once
L44.70 00000046

Symbol: L44.70
   Definitions
      At line 1411 in file .\objects\wstring.s
   Uses
      At line 1400 in file .\objects\wstring.s
      At line 1408 in file .\objects\wstring.s

_ZNK6String16equalsIgnoreCaseERKS_ 00000000

Symbol: _ZNK6String16equalsIgnoreCaseERKS_
   Definitions
      At line 1376 in file .\objects\wstring.s
   Uses
      At line 712 in file C:\\Keil_v5\\ARM\\PACK\\ARM\\CMSIS\\5.0.1\\CMSIS\\Inc



ARM Macro Assembler    Page 2 Alphabetic symbol ordering
Relocatable symbols

lude\\cmsis_armcc.h
Comment: _ZNK6String16equalsIgnoreCaseERKS_ used once
|i._ZNK6String16equalsIgnoreCaseERKS_| 00000000

Symbol: |i._ZNK6String16equalsIgnoreCaseERKS_|
   Definitions
      At line 1374 in file .\objects\wstring.s
   Uses
      At line 2412 in file .\objects\wstring.s
Comment: |i._ZNK6String16equalsIgnoreCaseERKS_| used once
8 symbols



ARM Macro Assembler    Page 1 Alphabetic symbol ordering
Relocatable symbols

L45.14 0000000E

Symbol: L45.14
   Definitions
      At line 1429 in file .\objects\wstring.s
   Uses
      At line 1433 in file .\objects\wstring.s
Comment: L45.14 used once
L45.16 00000010

Symbol: L45.16
   Definitions
      At line 1431 in file .\objects\wstring.s
   Uses
      At line 1426 in file .\objects\wstring.s
Comment: L45.16 used once
_ZNK6String5toIntEv 00000000

Symbol: _ZNK6String5toIntEv
   Definitions
      At line 1422 in file .\objects\wstring.s
   Uses
      At line 713 in file C:\\Keil_v5\\ARM\\PACK\\ARM\\CMSIS\\5.0.1\\CMSIS\\Inc
lude\\cmsis_armcc.h
Comment: _ZNK6String5toIntEv used once
|i._ZNK6String5toIntEv| 00000000

Symbol: |i._ZNK6String5toIntEv|
   Definitions
      At line 1420 in file .\objects\wstring.s
   Uses
      At line 2587 in file .\objects\wstring.s
Comment: |i._ZNK6String5toIntEv| used once
4 symbols



ARM Macro Assembler    Page 1 Alphabetic symbol ordering
Relocatable symbols

_ZNK6String6charAtEj 00000000

Symbol: _ZNK6String6charAtEj
   Definitions
      At line 1439 in file .\objects\wstring.s
   Uses
      At line 714 in file C:\\Keil_v5\\ARM\\PACK\\ARM\\CMSIS\\5.0.1\\CMSIS\\Inc
lude\\cmsis_armcc.h
Comment: _ZNK6String6charAtEj used once
|i._ZNK6String6charAtEj| 00000000

Symbol: |i._ZNK6String6charAtEj|
   Definitions
      At line 1437 in file .\objects\wstring.s
   Uses
      At line 2447 in file .\objects\wstring.s
Comment: |i._ZNK6String6charAtEj| used once
2 symbols



ARM Macro Assembler    Page 1 Alphabetic symbol ordering
Relocatable symbols

L47.16 00000010

Symbol: L47.16
   Definitions
      At line 1461 in file .\objects\wstring.s
   Uses
      At line 1458 in file .\objects\wstring.s
Comment: L47.16 used once
L47.18 00000012

Symbol: L47.18
   Definitions
      At line 1463 in file .\objects\wstring.s
   Uses
      At line 1467 in file .\objects\wstring.s
      At line 1474 in file .\objects\wstring.s
      At line 1477 in file .\objects\wstring.s
      At line 1484 in file .\objects\wstring.s
      At line 1487 in file .\objects\wstring.s

L47.20 00000014

Symbol: L47.20
   Definitions
      At line 1465 in file .\objects\wstring.s
   Uses
      At line 1460 in file .\objects\wstring.s
Comment: L47.20 used once
L47.24 00000018

Symbol: L47.24
   Definitions
      At line 1468 in file .\objects\wstring.s
   Uses
      At line 1457 in file .\objects\wstring.s
Comment: L47.24 used once
L47.36 00000024

Symbol: L47.36
   Definitions
      At line 1475 in file .\objects\wstring.s
   Uses
      At line 1472 in file .\objects\wstring.s
Comment: L47.36 used once
L47.40 00000028

Symbol: L47.40
   Definitions
      At line 1478 in file .\objects\wstring.s
   Uses
      At line 1469 in file .\objects\wstring.s
Comment: L47.40 used once
L47.54 00000036

Symbol: L47.54
   Definitions
      At line 1485 in file .\objects\wstring.s
   Uses
      At line 1482 in file .\objects\wstring.s



ARM Macro Assembler    Page 2 Alphabetic symbol ordering
Relocatable symbols

Comment: L47.54 used once
_ZNK6String6equalsEPKc 00000000

Symbol: _ZNK6String6equalsEPKc
   Definitions
      At line 1452 in file .\objects\wstring.s
   Uses
      At line 715 in file C:\\Keil_v5\\ARM\\PACK\\ARM\\CMSIS\\5.0.1\\CMSIS\\Inc
lude\\cmsis_armcc.h
Comment: _ZNK6String6equalsEPKc used once
|i._ZNK6String6equalsEPKc| 00000000

Symbol: |i._ZNK6String6equalsEPKc|
   Definitions
      At line 1450 in file .\objects\wstring.s
   Uses
      At line 2377 in file .\objects\wstring.s
Comment: |i._ZNK6String6equalsEPKc| used once
9 symbols



ARM Macro Assembler    Page 1 Alphabetic symbol ordering
Relocatable symbols

L48.26 0000001A

Symbol: L48.26
   Definitions
      At line 1506 in file .\objects\wstring.s
   Uses
      At line 1510 in file .\objects\wstring.s
Comment: L48.26 used once
L48.28 0000001C

Symbol: L48.28
   Definitions
      At line 1508 in file .\objects\wstring.s
   Uses
      At line 1500 in file .\objects\wstring.s
      At line 1504 in file .\objects\wstring.s

_ZNK6String6equalsERKS_ 00000000

Symbol: _ZNK6String6equalsERKS_
   Definitions
      At line 1493 in file .\objects\wstring.s
   Uses
      At line 716 in file C:\\Keil_v5\\ARM\\PACK\\ARM\\CMSIS\\5.0.1\\CMSIS\\Inc
lude\\cmsis_armcc.h
Comment: _ZNK6String6equalsERKS_ used once
|i._ZNK6String6equalsERKS_| 00000000

Symbol: |i._ZNK6String6equalsERKS_|
   Definitions
      At line 1491 in file .\objects\wstring.s
   Uses
      At line 2370 in file .\objects\wstring.s
Comment: |i._ZNK6String6equalsERKS_| used once
4 symbols



ARM Macro Assembler    Page 1 Alphabetic symbol ordering
Relocatable symbols

_ZNK6String7indexOfERKS_ 00000000

Symbol: _ZNK6String7indexOfERKS_
   Definitions
      At line 1516 in file .\objects\wstring.s
   Uses
      At line 717 in file C:\\Keil_v5\\ARM\\PACK\\ARM\\CMSIS\\5.0.1\\CMSIS\\Inc
lude\\cmsis_armcc.h
Comment: _ZNK6String7indexOfERKS_ used once
|i._ZNK6String7indexOfERKS_| 00000000

Symbol: |i._ZNK6String7indexOfERKS_|
   Definitions
      At line 1514 in file .\objects\wstring.s
   Uses
      At line 2496 in file .\objects\wstring.s
Comment: |i._ZNK6String7indexOfERKS_| used once
2 symbols



ARM Macro Assembler    Page 1 Alphabetic symbol ordering
Relocatable symbols

L50.20 00000014

Symbol: L50.20
   Definitions
      At line 1539 in file .\objects\wstring.s
   Uses
      At line 1549 in file .\objects\wstring.s
      At line 1553 in file .\objects\wstring.s

L50.24 00000018

Symbol: L50.24
   Definitions
      At line 1541 in file .\objects\wstring.s
   Uses
      At line 1537 in file .\objects\wstring.s
Comment: L50.24 used once
L50.44 0000002C

Symbol: L50.44
   Definitions
      At line 1550 in file .\objects\wstring.s
   Uses
      At line 1547 in file .\objects\wstring.s
Comment: L50.44 used once
_ZNK6String7indexOfERKS_j 00000000

Symbol: _ZNK6String7indexOfERKS_j
   Definitions
      At line 1530 in file .\objects\wstring.s
   Uses
      At line 1523 in file .\objects\wstring.s
      At line 718 in file C:\\Keil_v5\\ARM\\PACK\\ARM\\CMSIS\\5.0.1\\CMSIS\\Inc
lude\\cmsis_armcc.h

|i._ZNK6String7indexOfERKS_j| 00000000

Symbol: |i._ZNK6String7indexOfERKS_j|
   Definitions
      At line 1528 in file .\objects\wstring.s
   Uses
      At line 2489 in file .\objects\wstring.s
Comment: |i._ZNK6String7indexOfERKS_j| used once
5 symbols



ARM Macro Assembler    Page 1 Alphabetic symbol ordering
Relocatable symbols

_ZNK6String7indexOfEc 00000000

Symbol: _ZNK6String7indexOfEc
   Definitions
      At line 1559 in file .\objects\wstring.s
   Uses
      At line 719 in file C:\\Keil_v5\\ARM\\PACK\\ARM\\CMSIS\\5.0.1\\CMSIS\\Inc
lude\\cmsis_armcc.h
Comment: _ZNK6String7indexOfEc used once
|i._ZNK6String7indexOfEc| 00000000

Symbol: |i._ZNK6String7indexOfEc|
   Definitions
      At line 1557 in file .\objects\wstring.s
   Uses
      At line 2482 in file .\objects\wstring.s
Comment: |i._ZNK6String7indexOfEc| used once
2 symbols



ARM Macro Assembler    Page 1 Alphabetic symbol ordering
Relocatable symbols

L52.20 00000014

Symbol: L52.20
   Definitions
      At line 1582 in file .\objects\wstring.s
   Uses
      At line 1594 in file .\objects\wstring.s
      At line 1598 in file .\objects\wstring.s

L52.24 00000018

Symbol: L52.24
   Definitions
      At line 1584 in file .\objects\wstring.s
   Uses
      At line 1580 in file .\objects\wstring.s
Comment: L52.24 used once
L52.50 00000032

Symbol: L52.50
   Definitions
      At line 1595 in file .\objects\wstring.s
   Uses
      At line 1592 in file .\objects\wstring.s
Comment: L52.50 used once
_ZNK6String7indexOfEcj 00000000

Symbol: _ZNK6String7indexOfEcj
   Definitions
      At line 1573 in file .\objects\wstring.s
   Uses
      At line 1566 in file .\objects\wstring.s
      At line 720 in file C:\\Keil_v5\\ARM\\PACK\\ARM\\CMSIS\\5.0.1\\CMSIS\\Inc
lude\\cmsis_armcc.h

|i._ZNK6String7indexOfEcj| 00000000

Symbol: |i._ZNK6String7indexOfEcj|
   Definitions
      At line 1571 in file .\objects\wstring.s
   Uses
      At line 2475 in file .\objects\wstring.s
Comment: |i._ZNK6String7indexOfEcj| used once
5 symbols



ARM Macro Assembler    Page 1 Alphabetic symbol ordering
Relocatable symbols

L53.38 00000026

Symbol: L53.38
   Definitions
      At line 1617 in file .\objects\wstring.s
   Uses
      At line 1622 in file .\objects\wstring.s
Comment: L53.38 used once
L53.44 0000002C

Symbol: L53.44
   Definitions
      At line 1620 in file .\objects\wstring.s
   Uses
      At line 1609 in file .\objects\wstring.s
Comment: L53.44 used once
L53.52 00000034

Symbol: L53.52
   Definitions
      At line 1626 in file .\objects\wstring.s
   Uses
      At line 1621 in file .\objects\wstring.s
Comment: L53.52 used once
_ZNK6String7toFloatEv 00000000

Symbol: _ZNK6String7toFloatEv
   Definitions
      At line 1604 in file .\objects\wstring.s
   Uses
      At line 721 in file C:\\Keil_v5\\ARM\\PACK\\ARM\\CMSIS\\5.0.1\\CMSIS\\Inc
lude\\cmsis_armcc.h
Comment: _ZNK6String7toFloatEv used once
|i._ZNK6String7toFloatEv| 00000000

Symbol: |i._ZNK6String7toFloatEv|
   Definitions
      At line 1602 in file .\objects\wstring.s
   Uses
      At line 2594 in file .\objects\wstring.s
Comment: |i._ZNK6String7toFloatEv| used once
5 symbols



ARM Macro Assembler    Page 1 Alphabetic symbol ordering
Relocatable symbols

L54.22 00000016

Symbol: L54.22
   Definitions
      At line 1643 in file .\objects\wstring.s
   Uses
      At line 1638 in file .\objects\wstring.s
      At line 1640 in file .\objects\wstring.s

L54.24 00000018

Symbol: L54.24
   Definitions
      At line 1645 in file .\objects\wstring.s
   Uses
      At line 1657 in file .\objects\wstring.s
      At line 1660 in file .\objects\wstring.s

L54.26 0000001A

Symbol: L54.26
   Definitions
      At line 1647 in file .\objects\wstring.s
   Uses
      At line 1642 in file .\objects\wstring.s
Comment: L54.26 used once
L54.48 00000030

Symbol: L54.48
   Definitions
      At line 1658 in file .\objects\wstring.s
   Uses
      At line 1655 in file .\objects\wstring.s
Comment: L54.48 used once
_ZNK6String8endsWithERKS_ 00000000

Symbol: _ZNK6String8endsWithERKS_
   Definitions
      At line 1631 in file .\objects\wstring.s
   Uses
      At line 722 in file C:\\Keil_v5\\ARM\\PACK\\ARM\\CMSIS\\5.0.1\\CMSIS\\Inc
lude\\cmsis_armcc.h
Comment: _ZNK6String8endsWithERKS_ used once
|i._ZNK6String8endsWithERKS_| 00000000

Symbol: |i._ZNK6String8endsWithERKS_|
   Definitions
      At line 1629 in file .\objects\wstring.s
   Uses
      At line 2433 in file .\objects\wstring.s
Comment: |i._ZNK6String8endsWithERKS_| used once
6 symbols



ARM Macro Assembler    Page 1 Alphabetic symbol ordering
Relocatable symbols

L55.20 00000014

Symbol: L55.20
   Definitions
      At line 1675 in file .\objects\wstring.s
   Uses
      At line 1673 in file .\objects\wstring.s
      At line 1683 in file .\objects\wstring.s
      At line 1701 in file .\objects\wstring.s

L55.24 00000018

Symbol: L55.24
   Definitions
      At line 1677 in file .\objects\wstring.s
   Uses
      At line 1674 in file .\objects\wstring.s
Comment: L55.24 used once
L55.36 00000024

Symbol: L55.36
   Definitions
      At line 1684 in file .\objects\wstring.s
   Uses
      At line 1680 in file .\objects\wstring.s
Comment: L55.36 used once
L55.52 00000034

Symbol: L55.52
   Definitions
      At line 1692 in file .\objects\wstring.s
   Uses
      At line 1689 in file .\objects\wstring.s
Comment: L55.52 used once
_ZNK6String8getBytesEPhjj 00000000

Symbol: _ZNK6String8getBytesEPhjj
   Definitions
      At line 1666 in file .\objects\wstring.s
   Uses
      At line 723 in file C:\\Keil_v5\\ARM\\PACK\\ARM\\CMSIS\\5.0.1\\CMSIS\\Inc
lude\\cmsis_armcc.h
Comment: _ZNK6String8getBytesEPhjj used once
|i._ZNK6String8getBytesEPhjj| 00000000

Symbol: |i._ZNK6String8getBytesEPhjj|
   Definitions
      At line 1664 in file .\objects\wstring.s
   Uses
      At line 2468 in file .\objects\wstring.s
Comment: |i._ZNK6String8getBytesEPhjj| used once
6 symbols



ARM Macro Assembler    Page 1 Alphabetic symbol ordering
Relocatable symbols

L56.14 0000000E

Symbol: L56.14
   Definitions
      At line 1715 in file .\objects\wstring.s
   Uses
      At line 1712 in file .\objects\wstring.s
Comment: L56.14 used once
L56.28 0000001C

Symbol: L56.28
   Definitions
      At line 1723 in file .\objects\wstring.s
   Uses
      At line 1732 in file .\objects\wstring.s
      At line 1735 in file .\objects\wstring.s
      At line 1740 in file .\objects\wstring.s

L56.30 0000001E

Symbol: L56.30
   Definitions
      At line 1725 in file .\objects\wstring.s
   Uses
      At line 1717 in file .\objects\wstring.s
      At line 1719 in file .\objects\wstring.s

L56.44 0000002C

Symbol: L56.44
   Definitions
      At line 1733 in file .\objects\wstring.s
   Uses
      At line 1727 in file .\objects\wstring.s
      At line 1729 in file .\objects\wstring.s

L56.48 00000030

Symbol: L56.48
   Definitions
      At line 1736 in file .\objects\wstring.s
   Uses
      At line 1714 in file .\objects\wstring.s
Comment: L56.48 used once
_ZNK6String9compareToERKS_ 00000000

Symbol: _ZNK6String9compareToERKS_
   Definitions
      At line 1707 in file .\objects\wstring.s
   Uses
      At line 1503 in file .\objects\wstring.s
      At line 1803 in file .\objects\wstring.s
      At line 1818 in file .\objects\wstring.s
      At line 1858 in file .\objects\wstring.s
      At line 1878 in file .\objects\wstring.s
      At line 724 in file C:\\Keil_v5\\ARM\\PACK\\ARM\\CMSIS\\5.0.1\\CMSIS\\Inc
lude\\cmsis_armcc.h

|i._ZNK6String9compareToERKS_| 00000000



ARM Macro Assembler    Page 2 Alphabetic symbol ordering
Relocatable symbols


Symbol: |i._ZNK6String9compareToERKS_|
   Definitions
      At line 1705 in file .\objects\wstring.s
   Uses
      At line 2363 in file .\objects\wstring.s
Comment: |i._ZNK6String9compareToERKS_| used once
7 symbols



ARM Macro Assembler    Page 1 Alphabetic symbol ordering
Relocatable symbols

L57.24 00000018

Symbol: L57.24
   Definitions
      At line 1758 in file .\objects\wstring.s
   Uses
      At line 1753 in file .\objects\wstring.s
Comment: L57.24 used once
L57.40 00000028

Symbol: L57.40
   Definitions
      At line 1766 in file .\objects\wstring.s
   Uses
      At line 1786 in file .\objects\wstring.s
Comment: L57.40 used once
L57.44 0000002C

Symbol: L57.44
   Definitions
      At line 1768 in file .\objects\wstring.s
   Uses
      At line 1765 in file .\objects\wstring.s
Comment: L57.44 used once
L57.52 00000034

Symbol: L57.52
   Definitions
      At line 1773 in file .\objects\wstring.s
   Uses
      At line 1771 in file .\objects\wstring.s
Comment: L57.52 used once
L57.80 00000050

Symbol: L57.80
   Definitions
      At line 1789 in file .\objects\wstring.s
   Uses
      At line 1759 in file .\objects\wstring.s
Comment: L57.80 used once
_ZNK6String9substringEjj 00000000

Symbol: _ZNK6String9substringEjj
   Definitions
      At line 1746 in file .\objects\wstring.s
   Uses
      At line 725 in file C:\\Keil_v5\\ARM\\PACK\\ARM\\CMSIS\\5.0.1\\CMSIS\\Inc
lude\\cmsis_armcc.h
Comment: _ZNK6String9substringEjj used once
|i._ZNK6String9substringEjj| 00000000

Symbol: |i._ZNK6String9substringEjj|
   Definitions
      At line 1744 in file .\objects\wstring.s
   Uses
      At line 2531 in file .\objects\wstring.s
Comment: |i._ZNK6String9substringEjj| used once
7 symbols



ARM Macro Assembler    Page 1 Alphabetic symbol ordering
Relocatable symbols

_ZNK6StringgeERKS_ 00000000

Symbol: _ZNK6StringgeERKS_
   Definitions
      At line 1797 in file .\objects\wstring.s
   Uses
      At line 726 in file C:\\Keil_v5\\ARM\\PACK\\ARM\\CMSIS\\5.0.1\\CMSIS\\Inc
lude\\cmsis_armcc.h
Comment: _ZNK6StringgeERKS_ used once
|i._ZNK6StringgeERKS_| 00000000

Symbol: |i._ZNK6StringgeERKS_|
   Definitions
      At line 1795 in file .\objects\wstring.s
   Uses
      At line 2405 in file .\objects\wstring.s
Comment: |i._ZNK6StringgeERKS_| used once
2 symbols



ARM Macro Assembler    Page 1 Alphabetic symbol ordering
Relocatable symbols

L59.20 00000014

Symbol: L59.20
   Definitions
      At line 1822 in file .\objects\wstring.s
   Uses
      At line 1826 in file .\objects\wstring.s
Comment: L59.20 used once
L59.22 00000016

Symbol: L59.22
   Definitions
      At line 1824 in file .\objects\wstring.s
   Uses
      At line 1820 in file .\objects\wstring.s
Comment: L59.22 used once
_ZNK6StringgtERKS_ 00000000

Symbol: _ZNK6StringgtERKS_
   Definitions
      At line 1812 in file .\objects\wstring.s
   Uses
      At line 727 in file C:\\Keil_v5\\ARM\\PACK\\ARM\\CMSIS\\5.0.1\\CMSIS\\Inc
lude\\cmsis_armcc.h
Comment: _ZNK6StringgtERKS_ used once
|i._ZNK6StringgtERKS_| 00000000

Symbol: |i._ZNK6StringgtERKS_|
   Definitions
      At line 1810 in file .\objects\wstring.s
   Uses
      At line 2391 in file .\objects\wstring.s
Comment: |i._ZNK6StringgtERKS_| used once
4 symbols



ARM Macro Assembler    Page 1 Alphabetic symbol ordering
Relocatable symbols

L60.12 0000000C

Symbol: L60.12
   Definitions
      At line 1839 in file .\objects\wstring.s
   Uses
      At line 1836 in file .\objects\wstring.s
Comment: L60.12 used once
L60.14 0000000E

Symbol: L60.14
   Definitions
      At line 1841 in file .\objects\wstring.s
   Uses
      At line 1846 in file .\objects\wstring.s
Comment: L60.14 used once
L60.16 00000010

Symbol: L60.16
   Definitions
      At line 1843 in file .\objects\wstring.s
   Uses
      At line 1838 in file .\objects\wstring.s
Comment: L60.16 used once
_ZNK6StringixEj 00000000

Symbol: _ZNK6StringixEj
   Definitions
      At line 1832 in file .\objects\wstring.s
   Uses
      At line 1445 in file .\objects\wstring.s
      At line 728 in file C:\\Keil_v5\\ARM\\PACK\\ARM\\CMSIS\\5.0.1\\CMSIS\\Inc
lude\\cmsis_armcc.h

|i._ZNK6StringixEj| 00000000

Symbol: |i._ZNK6StringixEj|
   Definitions
      At line 1830 in file .\objects\wstring.s
   Uses
      At line 2440 in file .\objects\wstring.s
Comment: |i._ZNK6StringixEj| used once
5 symbols



ARM Macro Assembler    Page 1 Alphabetic symbol ordering
Relocatable symbols

L61.20 00000014

Symbol: L61.20
   Definitions
      At line 1862 in file .\objects\wstring.s
   Uses
      At line 1866 in file .\objects\wstring.s
Comment: L61.20 used once
L61.22 00000016

Symbol: L61.22
   Definitions
      At line 1864 in file .\objects\wstring.s
   Uses
      At line 1860 in file .\objects\wstring.s
Comment: L61.22 used once
_ZNK6StringleERKS_ 00000000

Symbol: _ZNK6StringleERKS_
   Definitions
      At line 1852 in file .\objects\wstring.s
   Uses
      At line 729 in file C:\\Keil_v5\\ARM\\PACK\\ARM\\CMSIS\\5.0.1\\CMSIS\\Inc
lude\\cmsis_armcc.h
Comment: _ZNK6StringleERKS_ used once
|i._ZNK6StringleERKS_| 00000000

Symbol: |i._ZNK6StringleERKS_|
   Definitions
      At line 1850 in file .\objects\wstring.s
   Uses
      At line 2398 in file .\objects\wstring.s
Comment: |i._ZNK6StringleERKS_| used once
4 symbols



ARM Macro Assembler    Page 1 Alphabetic symbol ordering
Relocatable symbols

_ZNK6StringltERKS_ 00000000

Symbol: _ZNK6StringltERKS_
   Definitions
      At line 1872 in file .\objects\wstring.s
   Uses
      At line 730 in file C:\\Keil_v5\\ARM\\PACK\\ARM\\CMSIS\\5.0.1\\CMSIS\\Inc
lude\\cmsis_armcc.h
Comment: _ZNK6StringltERKS_ used once
|i._ZNK6StringltERKS_| 00000000

Symbol: |i._ZNK6StringltERKS_|
   Definitions
      At line 1870 in file .\objects\wstring.s
   Uses
      At line 2384 in file .\objects\wstring.s
Comment: |i._ZNK6StringltERKS_| used once
2 symbols



ARM Macro Assembler    Page 1 Alphabetic symbol ordering
Relocatable symbols

L63.32 00000020

Symbol: L63.32
   Definitions
      At line 1900 in file .\objects\wstring.s
   Uses
      At line 1891 in file .\objects\wstring.s
Comment: L63.32 used once
L63.38 00000026

Symbol: L63.38
   Definitions
      At line 1903 in file .\objects\wstring.s
   Uses
      At line 1899 in file .\objects\wstring.s
Comment: L63.38 used once
_ZplRK15StringSumHelperPKc 00000000

Symbol: _ZplRK15StringSumHelperPKc
   Definitions
      At line 1886 in file .\objects\wstring.s
   Uses
      At line 731 in file C:\\Keil_v5\\ARM\\PACK\\ARM\\CMSIS\\5.0.1\\CMSIS\\Inc
lude\\cmsis_armcc.h
Comment: _ZplRK15StringSumHelperPKc used once
|i._ZplRK15StringSumHelperPKc| 00000000

Symbol: |i._ZplRK15StringSumHelperPKc|
   Definitions
      At line 1884 in file .\objects\wstring.s
   Uses
      At line 2132 in file .\objects\wstring.s
Comment: |i._ZplRK15StringSumHelperPKc| used once
4 symbols



ARM Macro Assembler    Page 1 Alphabetic symbol ordering
Relocatable symbols

L64.26 0000001A

Symbol: L64.26
   Definitions
      At line 1923 in file .\objects\wstring.s
   Uses
      At line 1920 in file .\objects\wstring.s
Comment: L64.26 used once
_ZplRK15StringSumHelperRK6String 00000000

Symbol: _ZplRK15StringSumHelperRK6String
   Definitions
      At line 1911 in file .\objects\wstring.s
   Uses
      At line 732 in file C:\\Keil_v5\\ARM\\PACK\\ARM\\CMSIS\\5.0.1\\CMSIS\\Inc
lude\\cmsis_armcc.h
Comment: _ZplRK15StringSumHelperRK6String used once
|i._ZplRK15StringSumHelperRK6String| 00000000

Symbol: |i._ZplRK15StringSumHelperRK6String|
   Definitions
      At line 1909 in file .\objects\wstring.s
   Uses
      At line 2125 in file .\objects\wstring.s
Comment: |i._ZplRK15StringSumHelperRK6String| used once
3 symbols



ARM Macro Assembler    Page 1 Alphabetic symbol ordering
Relocatable symbols

L65.24 00000018

Symbol: L65.24
   Definitions
      At line 1942 in file .\objects\wstring.s
   Uses
      At line 1939 in file .\objects\wstring.s
Comment: L65.24 used once
_ZplRK15StringSumHelperc 00000000

Symbol: _ZplRK15StringSumHelperc
   Definitions
      At line 1931 in file .\objects\wstring.s
   Uses
      At line 733 in file C:\\Keil_v5\\ARM\\PACK\\ARM\\CMSIS\\5.0.1\\CMSIS\\Inc
lude\\cmsis_armcc.h
Comment: _ZplRK15StringSumHelperc used once
|i._ZplRK15StringSumHelperc| 00000000

Symbol: |i._ZplRK15StringSumHelperc|
   Definitions
      At line 1929 in file .\objects\wstring.s
   Uses
      At line 2146 in file .\objects\wstring.s
Comment: |i._ZplRK15StringSumHelperc| used once
3 symbols



ARM Macro Assembler    Page 1 Alphabetic symbol ordering
Relocatable symbols

L66.40 00000028

Symbol: L66.40
   Definitions
      At line 1964 in file .\objects\wstring.s
   Uses
      At line 1961 in file .\objects\wstring.s
Comment: L66.40 used once
_ZplRK15StringSumHelperd 00000000

Symbol: _ZplRK15StringSumHelperd
   Definitions
      At line 1950 in file .\objects\wstring.s
   Uses
      At line 734 in file C:\\Keil_v5\\ARM\\PACK\\ARM\\CMSIS\\5.0.1\\CMSIS\\Inc
lude\\cmsis_armcc.h
Comment: _ZplRK15StringSumHelperd used once
|i._ZplRK15StringSumHelperd| 00000000

Symbol: |i._ZplRK15StringSumHelperd|
   Definitions
      At line 1948 in file .\objects\wstring.s
   Uses
      At line 2244 in file .\objects\wstring.s
Comment: |i._ZplRK15StringSumHelperd| used once
3 symbols



ARM Macro Assembler    Page 1 Alphabetic symbol ordering
Relocatable symbols

L67.32 00000020

Symbol: L67.32
   Definitions
      At line 1985 in file .\objects\wstring.s
   Uses
      At line 1982 in file .\objects\wstring.s
Comment: L67.32 used once
_ZplRK15StringSumHelperf 00000000

Symbol: _ZplRK15StringSumHelperf
   Definitions
      At line 1973 in file .\objects\wstring.s
   Uses
      At line 735 in file C:\\Keil_v5\\ARM\\PACK\\ARM\\CMSIS\\5.0.1\\CMSIS\\Inc
lude\\cmsis_armcc.h
Comment: _ZplRK15StringSumHelperf used once
|i._ZplRK15StringSumHelperf| 00000000

Symbol: |i._ZplRK15StringSumHelperf|
   Definitions
      At line 1971 in file .\objects\wstring.s
   Uses
      At line 2230 in file .\objects\wstring.s
Comment: |i._ZplRK15StringSumHelperf| used once
3 symbols



ARM Macro Assembler    Page 1 Alphabetic symbol ordering
Relocatable symbols

L68.24 00000018

Symbol: L68.24
   Definitions
      At line 2005 in file .\objects\wstring.s
   Uses
      At line 2002 in file .\objects\wstring.s
Comment: L68.24 used once
_ZplRK15StringSumHelperh 00000000

Symbol: _ZplRK15StringSumHelperh
   Definitions
      At line 1994 in file .\objects\wstring.s
   Uses
      At line 736 in file C:\\Keil_v5\\ARM\\PACK\\ARM\\CMSIS\\5.0.1\\CMSIS\\Inc
lude\\cmsis_armcc.h
Comment: _ZplRK15StringSumHelperh used once
|i._ZplRK15StringSumHelperh| 00000000

Symbol: |i._ZplRK15StringSumHelperh|
   Definitions
      At line 1992 in file .\objects\wstring.s
   Uses
      At line 2160 in file .\objects\wstring.s
Comment: |i._ZplRK15StringSumHelperh| used once
3 symbols



ARM Macro Assembler    Page 1 Alphabetic symbol ordering
Relocatable symbols

L69.24 00000018

Symbol: L69.24
   Definitions
      At line 2024 in file .\objects\wstring.s
   Uses
      At line 2021 in file .\objects\wstring.s
Comment: L69.24 used once
_ZplRK15StringSumHelperi 00000000

Symbol: _ZplRK15StringSumHelperi
   Definitions
      At line 2013 in file .\objects\wstring.s
   Uses
      At line 737 in file C:\\Keil_v5\\ARM\\PACK\\ARM\\CMSIS\\5.0.1\\CMSIS\\Inc
lude\\cmsis_armcc.h
Comment: _ZplRK15StringSumHelperi used once
|i._ZplRK15StringSumHelperi| 00000000

Symbol: |i._ZplRK15StringSumHelperi|
   Definitions
      At line 2011 in file .\objects\wstring.s
   Uses
      At line 2174 in file .\objects\wstring.s
Comment: |i._ZplRK15StringSumHelperi| used once
3 symbols



ARM Macro Assembler    Page 1 Alphabetic symbol ordering
Relocatable symbols

L70.24 00000018

Symbol: L70.24
   Definitions
      At line 2043 in file .\objects\wstring.s
   Uses
      At line 2040 in file .\objects\wstring.s
Comment: L70.24 used once
_ZplRK15StringSumHelperj 00000000

Symbol: _ZplRK15StringSumHelperj
   Definitions
      At line 2032 in file .\objects\wstring.s
   Uses
      At line 738 in file C:\\Keil_v5\\ARM\\PACK\\ARM\\CMSIS\\5.0.1\\CMSIS\\Inc
lude\\cmsis_armcc.h
Comment: _ZplRK15StringSumHelperj used once
|i._ZplRK15StringSumHelperj| 00000000

Symbol: |i._ZplRK15StringSumHelperj|
   Definitions
      At line 2030 in file .\objects\wstring.s
   Uses
      At line 2188 in file .\objects\wstring.s
Comment: |i._ZplRK15StringSumHelperj| used once
3 symbols



ARM Macro Assembler    Page 1 Alphabetic symbol ordering
Relocatable symbols

L71.24 00000018

Symbol: L71.24
   Definitions
      At line 2062 in file .\objects\wstring.s
   Uses
      At line 2059 in file .\objects\wstring.s
Comment: L71.24 used once
_ZplRK15StringSumHelperl 00000000

Symbol: _ZplRK15StringSumHelperl
   Definitions
      At line 2051 in file .\objects\wstring.s
   Uses
      At line 739 in file C:\\Keil_v5\\ARM\\PACK\\ARM\\CMSIS\\5.0.1\\CMSIS\\Inc
lude\\cmsis_armcc.h
Comment: _ZplRK15StringSumHelperl used once
|i._ZplRK15StringSumHelperl| 00000000

Symbol: |i._ZplRK15StringSumHelperl|
   Definitions
      At line 2049 in file .\objects\wstring.s
   Uses
      At line 2202 in file .\objects\wstring.s
Comment: |i._ZplRK15StringSumHelperl| used once
3 symbols



ARM Macro Assembler    Page 1 Alphabetic symbol ordering
Relocatable symbols

L72.24 00000018

Symbol: L72.24
   Definitions
      At line 2081 in file .\objects\wstring.s
   Uses
      At line 2078 in file .\objects\wstring.s
Comment: L72.24 used once
_ZplRK15StringSumHelperm 00000000

Symbol: _ZplRK15StringSumHelperm
   Definitions
      At line 2070 in file .\objects\wstring.s
   Uses
      At line 740 in file C:\\Keil_v5\\ARM\\PACK\\ARM\\CMSIS\\5.0.1\\CMSIS\\Inc
lude\\cmsis_armcc.h
Comment: _ZplRK15StringSumHelperm used once
|i._ZplRK15StringSumHelperm| 00000000

Symbol: |i._ZplRK15StringSumHelperm|
   Definitions
      At line 2068 in file .\objects\wstring.s
   Uses
      At line 2216 in file .\objects\wstring.s
Comment: |i._ZplRK15StringSumHelperm| used once
3 symbols



ARM Macro Assembler    Page 1 Alphabetic symbol ordering
Relocatable symbols

|.ARM.exidx| 00000000

Symbol: |.ARM.exidx|
   Definitions
      At line 2087 in file .\objects\wstring.s
   Uses
      None
Comment: |.ARM.exidx| unused
1 symbol



ARM Macro Assembler    Page 1 Alphabetic symbol ordering
Relocatable symbols

|area_number.74| 00000000

Symbol: |area_number.74|
   Definitions
      At line 2093 in file .\objects\wstring.s
   Uses
      None
Comment: |area_number.74| unused
1 symbol



ARM Macro Assembler    Page 1 Alphabetic symbol ordering
Relocatable symbols

|area_number.75| 00000000

Symbol: |area_number.75|
   Definitions
      At line 2100 in file .\objects\wstring.s
   Uses
      None
Comment: |area_number.75| unused
1 symbol



ARM Macro Assembler    Page 1 Alphabetic symbol ordering
Relocatable symbols

|area_number.76| 00000000

Symbol: |area_number.76|
   Definitions
      At line 2107 in file .\objects\wstring.s
   Uses
      None
Comment: |area_number.76| unused
1 symbol



ARM Macro Assembler    Page 1 Alphabetic symbol ordering
Relocatable symbols

|area_number.77| 00000000

Symbol: |area_number.77|
   Definitions
      At line 2114 in file .\objects\wstring.s
   Uses
      None
Comment: |area_number.77| unused
1 symbol



ARM Macro Assembler    Page 1 Alphabetic symbol ordering
Relocatable symbols

|area_number.78| 00000000

Symbol: |area_number.78|
   Definitions
      At line 2121 in file .\objects\wstring.s
   Uses
      None
Comment: |area_number.78| unused
1 symbol



ARM Macro Assembler    Page 1 Alphabetic symbol ordering
Relocatable symbols

|area_number.79| 00000000

Symbol: |area_number.79|
   Definitions
      At line 2128 in file .\objects\wstring.s
   Uses
      None
Comment: |area_number.79| unused
1 symbol



ARM Macro Assembler    Page 1 Alphabetic symbol ordering
Relocatable symbols

|area_number.80| 00000000

Symbol: |area_number.80|
   Definitions
      At line 2135 in file .\objects\wstring.s
   Uses
      None
Comment: |area_number.80| unused
1 symbol



ARM Macro Assembler    Page 1 Alphabetic symbol ordering
Relocatable symbols

|area_number.81| 00000000

Symbol: |area_number.81|
   Definitions
      At line 2142 in file .\objects\wstring.s
   Uses
      None
Comment: |area_number.81| unused
1 symbol



ARM Macro Assembler    Page 1 Alphabetic symbol ordering
Relocatable symbols

|area_number.82| 00000000

Symbol: |area_number.82|
   Definitions
      At line 2149 in file .\objects\wstring.s
   Uses
      None
Comment: |area_number.82| unused
1 symbol



ARM Macro Assembler    Page 1 Alphabetic symbol ordering
Relocatable symbols

|area_number.83| 00000000

Symbol: |area_number.83|
   Definitions
      At line 2156 in file .\objects\wstring.s
   Uses
      None
Comment: |area_number.83| unused
1 symbol



ARM Macro Assembler    Page 1 Alphabetic symbol ordering
Relocatable symbols

|area_number.84| 00000000

Symbol: |area_number.84|
   Definitions
      At line 2163 in file .\objects\wstring.s
   Uses
      None
Comment: |area_number.84| unused
1 symbol



ARM Macro Assembler    Page 1 Alphabetic symbol ordering
Relocatable symbols

|area_number.85| 00000000

Symbol: |area_number.85|
   Definitions
      At line 2170 in file .\objects\wstring.s
   Uses
      None
Comment: |area_number.85| unused
1 symbol



ARM Macro Assembler    Page 1 Alphabetic symbol ordering
Relocatable symbols

|area_number.86| 00000000

Symbol: |area_number.86|
   Definitions
      At line 2177 in file .\objects\wstring.s
   Uses
      None
Comment: |area_number.86| unused
1 symbol



ARM Macro Assembler    Page 1 Alphabetic symbol ordering
Relocatable symbols

|area_number.87| 00000000

Symbol: |area_number.87|
   Definitions
      At line 2184 in file .\objects\wstring.s
   Uses
      None
Comment: |area_number.87| unused
1 symbol



ARM Macro Assembler    Page 1 Alphabetic symbol ordering
Relocatable symbols

|area_number.88| 00000000

Symbol: |area_number.88|
   Definitions
      At line 2191 in file .\objects\wstring.s
   Uses
      None
Comment: |area_number.88| unused
1 symbol



ARM Macro Assembler    Page 1 Alphabetic symbol ordering
Relocatable symbols

|area_number.89| 00000000

Symbol: |area_number.89|
   Definitions
      At line 2198 in file .\objects\wstring.s
   Uses
      None
Comment: |area_number.89| unused
1 symbol



ARM Macro Assembler    Page 1 Alphabetic symbol ordering
Relocatable symbols

|area_number.90| 00000000

Symbol: |area_number.90|
   Definitions
      At line 2205 in file .\objects\wstring.s
   Uses
      None
Comment: |area_number.90| unused
1 symbol



ARM Macro Assembler    Page 1 Alphabetic symbol ordering
Relocatable symbols

|area_number.91| 00000000

Symbol: |area_number.91|
   Definitions
      At line 2212 in file .\objects\wstring.s
   Uses
      None
Comment: |area_number.91| unused
1 symbol



ARM Macro Assembler    Page 1 Alphabetic symbol ordering
Relocatable symbols

|area_number.92| 00000000

Symbol: |area_number.92|
   Definitions
      At line 2219 in file .\objects\wstring.s
   Uses
      None
Comment: |area_number.92| unused
1 symbol



ARM Macro Assembler    Page 1 Alphabetic symbol ordering
Relocatable symbols

|area_number.93| 00000000

Symbol: |area_number.93|
   Definitions
      At line 2226 in file .\objects\wstring.s
   Uses
      None
Comment: |area_number.93| unused
1 symbol



ARM Macro Assembler    Page 1 Alphabetic symbol ordering
Relocatable symbols

|area_number.94| 00000000

Symbol: |area_number.94|
   Definitions
      At line 2233 in file .\objects\wstring.s
   Uses
      None
Comment: |area_number.94| unused
1 symbol



ARM Macro Assembler    Page 1 Alphabetic symbol ordering
Relocatable symbols

|area_number.95| 00000000

Symbol: |area_number.95|
   Definitions
      At line 2240 in file .\objects\wstring.s
   Uses
      None
Comment: |area_number.95| unused
1 symbol



ARM Macro Assembler    Page 1 Alphabetic symbol ordering
Relocatable symbols

|area_number.96| 00000000

Symbol: |area_number.96|
   Definitions
      At line 2247 in file .\objects\wstring.s
   Uses
      None
Comment: |area_number.96| unused
1 symbol



ARM Macro Assembler    Page 1 Alphabetic symbol ordering
Relocatable symbols

|area_number.97| 00000000

Symbol: |area_number.97|
   Definitions
      At line 2254 in file .\objects\wstring.s
   Uses
      None
Comment: |area_number.97| unused
1 symbol



ARM Macro Assembler    Page 1 Alphabetic symbol ordering
Relocatable symbols

|area_number.98| 00000000

Symbol: |area_number.98|
   Definitions
      At line 2261 in file .\objects\wstring.s
   Uses
      None
Comment: |area_number.98| unused
1 symbol



ARM Macro Assembler    Page 1 Alphabetic symbol ordering
Relocatable symbols

|area_number.99| 00000000

Symbol: |area_number.99|
   Definitions
      At line 2268 in file .\objects\wstring.s
   Uses
      None
Comment: |area_number.99| unused
1 symbol



ARM Macro Assembler    Page 1 Alphabetic symbol ordering
Relocatable symbols

|area_number.100| 00000000

Symbol: |area_number.100|
   Definitions
      At line 2275 in file .\objects\wstring.s
   Uses
      None
Comment: |area_number.100| unused
1 symbol



ARM Macro Assembler    Page 1 Alphabetic symbol ordering
Relocatable symbols

|area_number.101| 00000000

Symbol: |area_number.101|
   Definitions
      At line 2282 in file .\objects\wstring.s
   Uses
      None
Comment: |area_number.101| unused
1 symbol



ARM Macro Assembler    Page 1 Alphabetic symbol ordering
Relocatable symbols

|area_number.102| 00000000

Symbol: |area_number.102|
   Definitions
      At line 2289 in file .\objects\wstring.s
   Uses
      None
Comment: |area_number.102| unused
1 symbol



ARM Macro Assembler    Page 1 Alphabetic symbol ordering
Relocatable symbols

|area_number.103| 00000000

Symbol: |area_number.103|
   Definitions
      At line 2296 in file .\objects\wstring.s
   Uses
      None
Comment: |area_number.103| unused
1 symbol



ARM Macro Assembler    Page 1 Alphabetic symbol ordering
Relocatable symbols

|area_number.104| 00000000

Symbol: |area_number.104|
   Definitions
      At line 2303 in file .\objects\wstring.s
   Uses
      None
Comment: |area_number.104| unused
1 symbol



ARM Macro Assembler    Page 1 Alphabetic symbol ordering
Relocatable symbols

|area_number.105| 00000000

Symbol: |area_number.105|
   Definitions
      At line 2310 in file .\objects\wstring.s
   Uses
      None
Comment: |area_number.105| unused
1 symbol



ARM Macro Assembler    Page 1 Alphabetic symbol ordering
Relocatable symbols

|area_number.106| 00000000

Symbol: |area_number.106|
   Definitions
      At line 2317 in file .\objects\wstring.s
   Uses
      None
Comment: |area_number.106| unused
1 symbol



ARM Macro Assembler    Page 1 Alphabetic symbol ordering
Relocatable symbols

|area_number.107| 00000000

Symbol: |area_number.107|
   Definitions
      At line 2324 in file .\objects\wstring.s
   Uses
      None
Comment: |area_number.107| unused
1 symbol



ARM Macro Assembler    Page 1 Alphabetic symbol ordering
Relocatable symbols

|area_number.108| 00000000

Symbol: |area_number.108|
   Definitions
      At line 2331 in file .\objects\wstring.s
   Uses
      None
Comment: |area_number.108| unused
1 symbol



ARM Macro Assembler    Page 1 Alphabetic symbol ordering
Relocatable symbols

|area_number.109| 00000000

Symbol: |area_number.109|
   Definitions
      At line 2338 in file .\objects\wstring.s
   Uses
      None
Comment: |area_number.109| unused
1 symbol



ARM Macro Assembler    Page 1 Alphabetic symbol ordering
Relocatable symbols

|area_number.110| 00000000

Symbol: |area_number.110|
   Definitions
      At line 2345 in file .\objects\wstring.s
   Uses
      None
Comment: |area_number.110| unused
1 symbol



ARM Macro Assembler    Page 1 Alphabetic symbol ordering
Relocatable symbols

|area_number.111| 00000000

Symbol: |area_number.111|
   Definitions
      At line 2352 in file .\objects\wstring.s
   Uses
      None
Comment: |area_number.111| unused
1 symbol



ARM Macro Assembler    Page 1 Alphabetic symbol ordering
Relocatable symbols

|area_number.112| 00000000

Symbol: |area_number.112|
   Definitions
      At line 2359 in file .\objects\wstring.s
   Uses
      None
Comment: |area_number.112| unused
1 symbol



ARM Macro Assembler    Page 1 Alphabetic symbol ordering
Relocatable symbols

|area_number.113| 00000000

Symbol: |area_number.113|
   Definitions
      At line 2366 in file .\objects\wstring.s
   Uses
      None
Comment: |area_number.113| unused
1 symbol



ARM Macro Assembler    Page 1 Alphabetic symbol ordering
Relocatable symbols

|area_number.114| 00000000

Symbol: |area_number.114|
   Definitions
      At line 2373 in file .\objects\wstring.s
   Uses
      None
Comment: |area_number.114| unused
1 symbol



ARM Macro Assembler    Page 1 Alphabetic symbol ordering
Relocatable symbols

|area_number.115| 00000000

Symbol: |area_number.115|
   Definitions
      At line 2380 in file .\objects\wstring.s
   Uses
      None
Comment: |area_number.115| unused
1 symbol



ARM Macro Assembler    Page 1 Alphabetic symbol ordering
Relocatable symbols

|area_number.116| 00000000

Symbol: |area_number.116|
   Definitions
      At line 2387 in file .\objects\wstring.s
   Uses
      None
Comment: |area_number.116| unused
1 symbol



ARM Macro Assembler    Page 1 Alphabetic symbol ordering
Relocatable symbols

|area_number.117| 00000000

Symbol: |area_number.117|
   Definitions
      At line 2394 in file .\objects\wstring.s
   Uses
      None
Comment: |area_number.117| unused
1 symbol



ARM Macro Assembler    Page 1 Alphabetic symbol ordering
Relocatable symbols

|area_number.118| 00000000

Symbol: |area_number.118|
   Definitions
      At line 2401 in file .\objects\wstring.s
   Uses
      None
Comment: |area_number.118| unused
1 symbol



ARM Macro Assembler    Page 1 Alphabetic symbol ordering
Relocatable symbols

|area_number.119| 00000000

Symbol: |area_number.119|
   Definitions
      At line 2408 in file .\objects\wstring.s
   Uses
      None
Comment: |area_number.119| unused
1 symbol



ARM Macro Assembler    Page 1 Alphabetic symbol ordering
Relocatable symbols

|area_number.120| 00000000

Symbol: |area_number.120|
   Definitions
      At line 2415 in file .\objects\wstring.s
   Uses
      None
Comment: |area_number.120| unused
1 symbol



ARM Macro Assembler    Page 1 Alphabetic symbol ordering
Relocatable symbols

|area_number.121| 00000000

Symbol: |area_number.121|
   Definitions
      At line 2422 in file .\objects\wstring.s
   Uses
      None
Comment: |area_number.121| unused
1 symbol



ARM Macro Assembler    Page 1 Alphabetic symbol ordering
Relocatable symbols

|area_number.122| 00000000

Symbol: |area_number.122|
   Definitions
      At line 2429 in file .\objects\wstring.s
   Uses
      None
Comment: |area_number.122| unused
1 symbol



ARM Macro Assembler    Page 1 Alphabetic symbol ordering
Relocatable symbols

|area_number.123| 00000000

Symbol: |area_number.123|
   Definitions
      At line 2436 in file .\objects\wstring.s
   Uses
      None
Comment: |area_number.123| unused
1 symbol



ARM Macro Assembler    Page 1 Alphabetic symbol ordering
Relocatable symbols

|area_number.124| 00000000

Symbol: |area_number.124|
   Definitions
      At line 2443 in file .\objects\wstring.s
   Uses
      None
Comment: |area_number.124| unused
1 symbol



ARM Macro Assembler    Page 1 Alphabetic symbol ordering
Relocatable symbols

|area_number.125| 00000000

Symbol: |area_number.125|
   Definitions
      At line 2450 in file .\objects\wstring.s
   Uses
      None
Comment: |area_number.125| unused
1 symbol



ARM Macro Assembler    Page 1 Alphabetic symbol ordering
Relocatable symbols

|area_number.126| 00000000

Symbol: |area_number.126|
   Definitions
      At line 2457 in file .\objects\wstring.s
   Uses
      None
Comment: |area_number.126| unused
1 symbol



ARM Macro Assembler    Page 1 Alphabetic symbol ordering
Relocatable symbols

|area_number.127| 00000000

Symbol: |area_number.127|
   Definitions
      At line 2464 in file .\objects\wstring.s
   Uses
      None
Comment: |area_number.127| unused
1 symbol



ARM Macro Assembler    Page 1 Alphabetic symbol ordering
Relocatable symbols

|area_number.128| 00000000

Symbol: |area_number.128|
   Definitions
      At line 2471 in file .\objects\wstring.s
   Uses
      None
Comment: |area_number.128| unused
1 symbol



ARM Macro Assembler    Page 1 Alphabetic symbol ordering
Relocatable symbols

|area_number.129| 00000000

Symbol: |area_number.129|
   Definitions
      At line 2478 in file .\objects\wstring.s
   Uses
      None
Comment: |area_number.129| unused
1 symbol



ARM Macro Assembler    Page 1 Alphabetic symbol ordering
Relocatable symbols

|area_number.130| 00000000

Symbol: |area_number.130|
   Definitions
      At line 2485 in file .\objects\wstring.s
   Uses
      None
Comment: |area_number.130| unused
1 symbol



ARM Macro Assembler    Page 1 Alphabetic symbol ordering
Relocatable symbols

|area_number.131| 00000000

Symbol: |area_number.131|
   Definitions
      At line 2492 in file .\objects\wstring.s
   Uses
      None
Comment: |area_number.131| unused
1 symbol



ARM Macro Assembler    Page 1 Alphabetic symbol ordering
Relocatable symbols

|area_number.132| 00000000

Symbol: |area_number.132|
   Definitions
      At line 2499 in file .\objects\wstring.s
   Uses
      None
Comment: |area_number.132| unused
1 symbol



ARM Macro Assembler    Page 1 Alphabetic symbol ordering
Relocatable symbols

|area_number.133| 00000000

Symbol: |area_number.133|
   Definitions
      At line 2506 in file .\objects\wstring.s
   Uses
      None
Comment: |area_number.133| unused
1 symbol



ARM Macro Assembler    Page 1 Alphabetic symbol ordering
Relocatable symbols

|area_number.134| 00000000

Symbol: |area_number.134|
   Definitions
      At line 2513 in file .\objects\wstring.s
   Uses
      None
Comment: |area_number.134| unused
1 symbol



ARM Macro Assembler    Page 1 Alphabetic symbol ordering
Relocatable symbols

|area_number.135| 00000000

Symbol: |area_number.135|
   Definitions
      At line 2520 in file .\objects\wstring.s
   Uses
      None
Comment: |area_number.135| unused
1 symbol



ARM Macro Assembler    Page 1 Alphabetic symbol ordering
Relocatable symbols

|area_number.136| 00000000

Symbol: |area_number.136|
   Definitions
      At line 2527 in file .\objects\wstring.s
   Uses
      None
Comment: |area_number.136| unused
1 symbol



ARM Macro Assembler    Page 1 Alphabetic symbol ordering
Relocatable symbols

|area_number.137| 00000000

Symbol: |area_number.137|
   Definitions
      At line 2534 in file .\objects\wstring.s
   Uses
      None
Comment: |area_number.137| unused
1 symbol



ARM Macro Assembler    Page 1 Alphabetic symbol ordering
Relocatable symbols

|area_number.138| 00000000

Symbol: |area_number.138|
   Definitions
      At line 2541 in file .\objects\wstring.s
   Uses
      None
Comment: |area_number.138| unused
1 symbol



ARM Macro Assembler    Page 1 Alphabetic symbol ordering
Relocatable symbols

|area_number.139| 00000000

Symbol: |area_number.139|
   Definitions
      At line 2548 in file .\objects\wstring.s
   Uses
      None
Comment: |area_number.139| unused
1 symbol



ARM Macro Assembler    Page 1 Alphabetic symbol ordering
Relocatable symbols

|area_number.140| 00000000

Symbol: |area_number.140|
   Definitions
      At line 2555 in file .\objects\wstring.s
   Uses
      None
Comment: |area_number.140| unused
1 symbol



ARM Macro Assembler    Page 1 Alphabetic symbol ordering
Relocatable symbols

|area_number.141| 00000000

Symbol: |area_number.141|
   Definitions
      At line 2562 in file .\objects\wstring.s
   Uses
      None
Comment: |area_number.141| unused
1 symbol



ARM Macro Assembler    Page 1 Alphabetic symbol ordering
Relocatable symbols

|area_number.142| 00000000

Symbol: |area_number.142|
   Definitions
      At line 2569 in file .\objects\wstring.s
   Uses
      None
Comment: |area_number.142| unused
1 symbol



ARM Macro Assembler    Page 1 Alphabetic symbol ordering
Relocatable symbols

|area_number.143| 00000000

Symbol: |area_number.143|
   Definitions
      At line 2576 in file .\objects\wstring.s
   Uses
      None
Comment: |area_number.143| unused
1 symbol



ARM Macro Assembler    Page 1 Alphabetic symbol ordering
Relocatable symbols

|area_number.144| 00000000

Symbol: |area_number.144|
   Definitions
      At line 2583 in file .\objects\wstring.s
   Uses
      None
Comment: |area_number.144| unused
1 symbol



ARM Macro Assembler    Page 1 Alphabetic symbol ordering
Relocatable symbols

|area_number.145| 00000000

Symbol: |area_number.145|
   Definitions
      At line 2590 in file .\objects\wstring.s
   Uses
      None
Comment: |area_number.145| unused
1 symbol



ARM Macro Assembler    Page 1 Alphabetic symbol ordering
Relocatable symbols

|.arm_vfe_header| 00000000

Symbol: |.arm_vfe_header|
   Definitions
      At line 2597 in file .\objects\wstring.s
   Uses
      None
Comment: |.arm_vfe_header| unused
1 symbol



ARM Macro Assembler    Page 1 Alphabetic symbol ordering
Relocatable symbols

dummy_writable_char 00000000

Symbol: dummy_writable_char
   Definitions
      At line 2603 in file .\objects\wstring.s
   Uses
      At line 1189 in file .\objects\wstring.s
      At line 771 in file C:\\Keil_v5\\ARM\\PACK\\ARM\\CMSIS\\5.0.1\\CMSIS\\Inc
lude\\cmsis_armcc.h

|.data| 00000000

Symbol: |.data|
   Definitions
      At line 2601 in file .\objects\wstring.s
   Uses
      None
Comment: |.data| unused
2 symbols



ARM Macro Assembler    Page 1 Alphabetic symbol ordering
Relocatable symbols

isspace 00000000

Symbol: isspace
   Definitions
      At line 2608 in file .\objects\wstring.s
   Uses
      At line 292 in file .\objects\wstring.s
      At line 304 in file .\objects\wstring.s
      At line 741 in file C:\\Keil_v5\\ARM\\PACK\\ARM\\CMSIS\\5.0.1\\CMSIS\\Inc
lude\\cmsis_armcc.h

|i.isspace| 00000000

Symbol: |i.isspace|
   Definitions
      At line 2606 in file .\objects\wstring.s
   Uses
      At line 2623 in file .\objects\wstring.s
Comment: |i.isspace| used once
2 symbols



ARM Macro Assembler    Page 1 Alphabetic symbol ordering
Relocatable symbols

|area_number.456| 00000000

Symbol: |area_number.456|
   Definitions
      At line 2619 in file .\objects\wstring.s
   Uses
      None
Comment: |area_number.456| unused
1 symbol



ARM Macro Assembler    Page 1 Alphabetic symbol ordering
Relocatable symbols

_ZN6String4initEv 00000000

Symbol: _ZN6String4initEv
   Definitions
      At line 2628 in file .\objects\wstring.s
   Uses
      At line 871 in file .\objects\wstring.s
      At line 894 in file .\objects\wstring.s
      At line 911 in file .\objects\wstring.s
      At line 935 in file .\objects\wstring.s
      At line 966 in file .\objects\wstring.s
      At line 992 in file .\objects\wstring.s
      At line 1015 in file .\objects\wstring.s
      At line 1039 in file .\objects\wstring.s
      At line 1063 in file .\objects\wstring.s
      At line 1087 in file .\objects\wstring.s
      At line 742 in file C:\\Keil_v5\\ARM\\PACK\\ARM\\CMSIS\\5.0.1\\CMSIS\\Inc
lude\\cmsis_armcc.h

|i._ZN6String4initEv| 00000000

Symbol: |i._ZN6String4initEv|
   Definitions
      At line 2626 in file .\objects\wstring.s
   Uses
      At line 2641 in file .\objects\wstring.s
Comment: |i._ZN6String4initEv| used once
2 symbols



ARM Macro Assembler    Page 1 Alphabetic symbol ordering
Relocatable symbols

|area_number.462| 00000000

Symbol: |area_number.462|
   Definitions
      At line 2637 in file .\objects\wstring.s
   Uses
      None
Comment: |area_number.462| unused
1 symbol



ARM Macro Assembler    Page 1 Alphabetic symbol ordering
Relocatable symbols

_ZSt6strstrPcPKc 00000000

Symbol: _ZSt6strstrPcPKc
   Definitions
      At line 2646 in file .\objects\wstring.s
   Uses
      At line 679 in file .\objects\wstring.s
      At line 710 in file .\objects\wstring.s
      At line 727 in file .\objects\wstring.s
      At line 1296 in file .\objects\wstring.s
      At line 1545 in file .\objects\wstring.s
      At line 743 in file C:\\Keil_v5\\ARM\\PACK\\ARM\\CMSIS\\5.0.1\\CMSIS\\Inc
lude\\cmsis_armcc.h

|i._ZSt6strstrPcPKc| 00000000

Symbol: |i._ZSt6strstrPcPKc|
   Definitions
      At line 2644 in file .\objects\wstring.s
   Uses
      At line 2661 in file .\objects\wstring.s
Comment: |i._ZSt6strstrPcPKc| used once
2 symbols



ARM Macro Assembler    Page 1 Alphabetic symbol ordering
Relocatable symbols

|area_number.468| 00000000

Symbol: |area_number.468|
   Definitions
      At line 2657 in file .\objects\wstring.s
   Uses
      None
Comment: |area_number.468| unused
1 symbol



ARM Macro Assembler    Page 1 Alphabetic symbol ordering
Relocatable symbols

__asm___11_WString_cpp_dbd866df___Z7__REV16j 00000000

Symbol: __asm___11_WString_cpp_dbd866df___Z7__REV16j
   Definitions
      At line 447 in file C:\\Keil_v5\\ARM\\PACK\\ARM\\CMSIS\\5.0.1\\CMSIS\\Inc
lude\\cmsis_armcc.h
   Uses
      At line 3 in file cores\\WString.cpp
Comment: __asm___11_WString_cpp_dbd866df___Z7__REV16j used once
|.rev16_text| 00000000

Symbol: |.rev16_text|
   Definitions
      At line 1 in file cores\\WString.cpp
   Uses
      None
Comment: |.rev16_text| unused
2 symbols



ARM Macro Assembler    Page 1 Alphabetic symbol ordering
Relocatable symbols

__asm___11_WString_cpp_dbd866df___Z7__REVSHi 00000000

Symbol: __asm___11_WString_cpp_dbd866df___Z7__REVSHi
   Definitions
      At line 462 in file C:\\Keil_v5\\ARM\\PACK\\ARM\\CMSIS\\5.0.1\\CMSIS\\Inc
lude\\cmsis_armcc.h
   Uses
      At line 454 in file C:\\Keil_v5\\ARM\\PACK\\ARM\\CMSIS\\5.0.1\\CMSIS\\Inc
lude\\cmsis_armcc.h
Comment: __asm___11_WString_cpp_dbd866df___Z7__REVSHi used once
|.revsh_text| 00000000

Symbol: |.revsh_text|
   Definitions
      At line 452 in file C:\\Keil_v5\\ARM\\PACK\\ARM\\CMSIS\\5.0.1\\CMSIS\\Inc
lude\\cmsis_armcc.h
   Uses
      None
Comment: |.revsh_text| unused
2 symbols



ARM Macro Assembler    Page 1 Alphabetic symbol ordering
Relocatable symbols

__asm___11_WString_cpp_dbd866df___Z5__RRXj 00000000

Symbol: __asm___11_WString_cpp_dbd866df___Z5__RRXj
   Definitions
      At line 649 in file C:\\Keil_v5\\ARM\\PACK\\ARM\\CMSIS\\5.0.1\\CMSIS\\Inc
lude\\cmsis_armcc.h
   Uses
      At line 469 in file C:\\Keil_v5\\ARM\\PACK\\ARM\\CMSIS\\5.0.1\\CMSIS\\Inc
lude\\cmsis_armcc.h
Comment: __asm___11_WString_cpp_dbd866df___Z5__RRXj used once
|.rrx_text| 00000000

Symbol: |.rrx_text|
   Definitions
      At line 467 in file C:\\Keil_v5\\ARM\\PACK\\ARM\\CMSIS\\5.0.1\\CMSIS\\Inc
lude\\cmsis_armcc.h
   Uses
      None
Comment: |.rrx_text| unused
2 symbols



ARM Macro Assembler    Page 1 Alphabetic symbol ordering
External symbols

__aeabi_d2f 00000000

Symbol: __aeabi_d2f
   Definitions
      At line 756 in file C:\\Keil_v5\\ARM\\PACK\\ARM\\CMSIS\\5.0.1\\CMSIS\\Inc
lude\\cmsis_armcc.h
   Uses
      At line 428 in file .\objects\wstring.s
      At line 937 in file .\objects\wstring.s
      At line 1615 in file .\objects\wstring.s

__aeabi_memcpy 00000000

Symbol: __aeabi_memcpy
   Definitions
      At line 763 in file C:\\Keil_v5\\ARM\\PACK\\ARM\\CMSIS\\5.0.1\\CMSIS\\Inc
lude\\cmsis_armcc.h
   Uses
      At line 318 in file .\objects\wstring.s
      At line 673 in file .\objects\wstring.s
      At line 693 in file .\objects\wstring.s
      At line 698 in file .\objects\wstring.s
      At line 770 in file .\objects\wstring.s

__aeabi_memmove 00000000

Symbol: __aeabi_memmove
   Definitions
      At line 764 in file C:\\Keil_v5\\ARM\\PACK\\ARM\\CMSIS\\5.0.1\\CMSIS\\Inc
lude\\cmsis_armcc.h
   Uses
      At line 758 in file .\objects\wstring.s
Comment: __aeabi_memmove used once
__hardfp_atof 00000000

Symbol: __hardfp_atof
   Definitions
      At line 767 in file C:\\Keil_v5\\ARM\\PACK\\ARM\\CMSIS\\5.0.1\\CMSIS\\Inc
lude\\cmsis_armcc.h
   Uses
      At line 1611 in file .\objects\wstring.s
Comment: __hardfp_atof used once
__rt_ctype_table 00000000

Symbol: __rt_ctype_table
   Definitions
      At line 768 in file C:\\Keil_v5\\ARM\\PACK\\ARM\\CMSIS\\5.0.1\\CMSIS\\Inc
lude\\cmsis_armcc.h
   Uses
      At line 2611 in file .\objects\wstring.s
Comment: __rt_ctype_table used once
atol 00000000

Symbol: atol
   Definitions
      At line 766 in file C:\\Keil_v5\\ARM\\PACK\\ARM\\CMSIS\\5.0.1\\CMSIS\\Inc
lude\\cmsis_armcc.h
   Uses
      At line 1428 in file .\objects\wstring.s



ARM Macro Assembler    Page 2 Alphabetic symbol ordering
External symbols

Comment: atol used once
dtostrf 00000000

Symbol: dtostrf
   Definitions
      At line 755 in file C:\\Keil_v5\\ARM\\PACK\\ARM\\CMSIS\\5.0.1\\CMSIS\\Inc
lude\\cmsis_armcc.h
   Uses
      At line 434 in file .\objects\wstring.s
      At line 461 in file .\objects\wstring.s
      At line 943 in file .\objects\wstring.s
      At line 971 in file .\objects\wstring.s

free 00000000

Symbol: free
   Definitions
      At line 747 in file C:\\Keil_v5\\ARM\\PACK\\ARM\\CMSIS\\5.0.1\\CMSIS\\Inc
lude\\cmsis_armcc.h
   Uses
      At line 164 in file .\objects\wstring.s
      At line 1108 in file .\objects\wstring.s

itoa 00000000

Symbol: itoa
   Definitions
      At line 751 in file C:\\Keil_v5\\ARM\\PACK\\ARM\\CMSIS\\5.0.1\\CMSIS\\Inc
lude\\cmsis_armcc.h
   Uses
      At line 485 in file .\objects\wstring.s
      At line 506 in file .\objects\wstring.s
      At line 1019 in file .\objects\wstring.s

ltoa 00000000

Symbol: ltoa
   Definitions
      At line 753 in file C:\\Keil_v5\\ARM\\PACK\\ARM\\CMSIS\\5.0.1\\CMSIS\\Inc
lude\\cmsis_armcc.h
   Uses
      At line 548 in file .\objects\wstring.s
      At line 1067 in file .\objects\wstring.s

realloc 00000000

Symbol: realloc
   Definitions
      At line 748 in file C:\\Keil_v5\\ARM\\PACK\\ARM\\CMSIS\\5.0.1\\CMSIS\\Inc
lude\\cmsis_armcc.h
   Uses
      At line 234 in file .\objects\wstring.s
Comment: realloc used once
strchr 00000000

Symbol: strchr
   Definitions
      At line 761 in file C:\\Keil_v5\\ARM\\PACK\\ARM\\CMSIS\\5.0.1\\CMSIS\\Inc
lude\\cmsis_armcc.h



ARM Macro Assembler    Page 3 Alphabetic symbol ordering
External symbols

   Uses
      At line 1589 in file .\objects\wstring.s
Comment: strchr used once
strcmp 00000000

Symbol: strcmp
   Definitions
      At line 757 in file C:\\Keil_v5\\ARM\\PACK\\ARM\\CMSIS\\5.0.1\\CMSIS\\Inc
lude\\cmsis_armcc.h
   Uses
      At line 1481 in file .\objects\wstring.s
      At line 1654 in file .\objects\wstring.s
      At line 1739 in file .\objects\wstring.s

strcpy 00000000

Symbol: strcpy
   Definitions
      At line 749 in file C:\\Keil_v5\\ARM\\PACK\\ARM\\CMSIS\\5.0.1\\CMSIS\\Inc
lude\\cmsis_armcc.h
   Uses
      At line 268 in file .\objects\wstring.s
      At line 380 in file .\objects\wstring.s
      At line 715 in file .\objects\wstring.s

strlen 00000000

Symbol: strlen
   Definitions
      At line 750 in file C:\\Keil_v5\\ARM\\PACK\\ARM\\CMSIS\\5.0.1\\CMSIS\\Inc
lude\\cmsis_armcc.h
   Uses
      At line 341 in file .\objects\wstring.s
      At line 437 in file .\objects\wstring.s
      At line 464 in file .\objects\wstring.s
      At line 487 in file .\objects\wstring.s
      At line 508 in file .\objects\wstring.s
      At line 529 in file .\objects\wstring.s
      At line 550 in file .\objects\wstring.s
      At line 571 in file .\objects\wstring.s
      At line 874 in file .\objects\wstring.s
      At line 1122 in file .\objects\wstring.s
      At line 1893 in file .\objects\wstring.s

strncmp 00000000

Symbol: strncmp
   Definitions
      At line 759 in file C:\\Keil_v5\\ARM\\PACK\\ARM\\CMSIS\\5.0.1\\CMSIS\\Inc
lude\\cmsis_armcc.h
   Uses
      At line 1238 in file .\objects\wstring.s
Comment: strncmp used once
strncpy 00000000

Symbol: strncpy
   Definitions
      At line 760 in file C:\\Keil_v5\\ARM\\PACK\\ARM\\CMSIS\\5.0.1\\CMSIS\\Inc
lude\\cmsis_armcc.h



ARM Macro Assembler    Page 4 Alphabetic symbol ordering
External symbols

   Uses
      At line 638 in file .\objects\wstring.s
      At line 1697 in file .\objects\wstring.s

strrchr 00000000

Symbol: strrchr
   Definitions
      At line 762 in file C:\\Keil_v5\\ARM\\PACK\\ARM\\CMSIS\\5.0.1\\CMSIS\\Inc
lude\\cmsis_armcc.h
   Uses
      At line 1358 in file .\objects\wstring.s
Comment: strrchr used once
strstr 00000000

Symbol: strstr
   Definitions
      At line 769 in file C:\\Keil_v5\\ARM\\PACK\\ARM\\CMSIS\\5.0.1\\CMSIS\\Inc
lude\\cmsis_armcc.h
   Uses
      At line 2652 in file .\objects\wstring.s
Comment: strstr used once
tolower 00000000

Symbol: tolower
   Definitions
      At line 758 in file C:\\Keil_v5\\ARM\\PACK\\ARM\\CMSIS\\5.0.1\\CMSIS\\Inc
lude\\cmsis_armcc.h
   Uses
      At line 188 in file .\objects\wstring.s
      At line 1403 in file .\objects\wstring.s
      At line 1406 in file .\objects\wstring.s

toupper 00000000

Symbol: toupper
   Definitions
      At line 765 in file C:\\Keil_v5\\ARM\\PACK\\ARM\\CMSIS\\5.0.1\\CMSIS\\Inc
lude\\cmsis_armcc.h
   Uses
      At line 214 in file .\objects\wstring.s
Comment: toupper used once
ultoa 00000000

Symbol: ultoa
   Definitions
      At line 754 in file C:\\Keil_v5\\ARM\\PACK\\ARM\\CMSIS\\5.0.1\\CMSIS\\Inc
lude\\cmsis_armcc.h
   Uses
      At line 569 in file .\objects\wstring.s
      At line 1091 in file .\objects\wstring.s

utoa 00000000

Symbol: utoa
   Definitions
      At line 752 in file C:\\Keil_v5\\ARM\\PACK\\ARM\\CMSIS\\5.0.1\\CMSIS\\Inc
lude\\cmsis_armcc.h
   Uses



ARM Macro Assembler    Page 5 Alphabetic symbol ordering
External symbols

      At line 527 in file .\objects\wstring.s
      At line 996 in file .\objects\wstring.s
      At line 1043 in file .\objects\wstring.s

|Lib$$Request$$armlib| 00000000

Symbol: |Lib$$Request$$armlib|
   Definitions
      At line 745 in file C:\\Keil_v5\\ARM\\PACK\\ARM\\CMSIS\\5.0.1\\CMSIS\\Inc
lude\\cmsis_armcc.h
   Uses
      None
Comment: |Lib$$Request$$armlib| unused
|Lib$$Request$$cpplib| 00000000

Symbol: |Lib$$Request$$cpplib|
   Definitions
      At line 746 in file C:\\Keil_v5\\ARM\\PACK\\ARM\\CMSIS\\5.0.1\\CMSIS\\Inc
lude\\cmsis_armcc.h
   Uses
      None
Comment: |Lib$$Request$$cpplib| unused
25 symbols
757 symbols in table
