


ARM Macro Assembler    Page 1 


    1 00000000         ; generated by Component: ARM Compiler 5.06 update 5 (bu
                       ild 528) Tool: ArmCC [4d3621]
    2 00000000         ; commandline ArmCC [--c99 --split_sections --debug -c -
                       S -o.\wiring_time.s --depend=.\wiring_time.d --cpu=Corte
                       x-M4.fp --apcs=interwork -O0 --diag_suppress=9931 -I.\co
                       res -I.\libraries\Wire\src\utility -I.\libraries\SPI\src
                       \utility -I.\libraries\SPI\src -I.\libraries\Wire\src -I
                       .\cores\xmc_lib\LIBS -I..\test222 -I.\RTE\Device\XMC4700
                       -F144x2048 -I.\RTE\_Target_1 -IC:\Keil_v5\ARM\PACK\ARM\C
                       MSIS\5.0.1\CMSIS\Include -IC:\Keil_v5\ARM\PACK\Infineon\
                       XMC4000_DFP\2.9.1\Device\XMC4700_series\Include -IC:\Kei
                       l_v5\ARM\PACK\Infineon\XMC4000_DFP\2.9.1\Device\XMClib\i
                       nc -IC:\Keil_v5\ARM\PACK\Infineon\XMC4000_DFP\2.9.1\RTE_
                       Driver -D__MICROLIB -D__UVISION_VERSION=524 -D_RTE_ -DXM
                       C4700_F144x2048 --omf_browse=.\wiring_time.crf cores\wir
                       ing_time.c]
    3 00000000                 THUMB
    4 00000000                 REQUIRE8
    5 00000000                 PRESERVE8
    6 00000000         
    7 00000000                 AREA             ||i.NOPS_FOR_USEC||, CODE, READ
ONLY, ALIGN=1
    8 00000000         
    9 00000000         NOPS_FOR_USEC
                               PROC
   10 00000000 BF00            NOP
   11 00000002 BF00            NOP
   12 00000004 BF00            NOP
   13 00000006 BF00            NOP
   14 00000008 BF00            NOP
   15 0000000A BF00            NOP
   16 0000000C BF00            NOP
   17 0000000E BF00            NOP
   18 00000010 BF00            NOP
   19 00000012 BF00            NOP
   20 00000014 BF00            NOP
   21 00000016 BF00            NOP
   22 00000018 BF00            NOP
   23 0000001A BF00            NOP
   24 0000001C BF00            NOP
   25 0000001E BF00            NOP
   26 00000020 BF00            NOP
   27 00000022 BF00            NOP
   28 00000024 BF00            NOP
   29 00000026 BF00            NOP
   30 00000028 BF00            NOP
   31 0000002A BF00            NOP
   32 0000002C BF00            NOP
   33 0000002E BF00            NOP
   34 00000030 BF00            NOP
   35 00000032 BF00            NOP
   36 00000034 BF00            NOP
   37 00000036 BF00            NOP
   38 00000038 BF00            NOP
   39 0000003A BF00            NOP
   40 0000003C BF00            NOP
   41 0000003E BF00            NOP
   42 00000040 BF00            NOP
   43 00000042 BF00            NOP



ARM Macro Assembler    Page 2 


   44 00000044 BF00            NOP
   45 00000046 BF00            NOP
   46 00000048 BF00            NOP
   47 0000004A BF00            NOP
   48 0000004C BF00            NOP
   49 0000004E BF00            NOP
   50 00000050 BF00            NOP
   51 00000052 BF00            NOP
   52 00000054 BF00            NOP
   53 00000056 BF00            NOP
   54 00000058 BF00            NOP
   55 0000005A BF00            NOP
   56 0000005C BF00            NOP
   57 0000005E BF00            NOP
   58 00000060 BF00            NOP
   59 00000062 BF00            NOP
   60 00000064 BF00            NOP
   61 00000066 BF00            NOP
   62 00000068 BF00            NOP
   63 0000006A BF00            NOP
   64 0000006C BF00            NOP
   65 0000006E BF00            NOP
   66 00000070 BF00            NOP
   67 00000072 BF00            NOP
   68 00000074 BF00            NOP
   69 00000076 BF00            NOP
   70 00000078 BF00            NOP
   71 0000007A BF00            NOP
   72 0000007C BF00            NOP
   73 0000007E BF00            NOP
   74 00000080 BF00            NOP
   75 00000082 BF00            NOP
   76 00000084 BF00            NOP
   77 00000086 BF00            NOP
   78 00000088 BF00            NOP
   79 0000008A BF00            NOP
   80 0000008C BF00            NOP
   81 0000008E BF00            NOP
   82 00000090 BF00            NOP
   83 00000092 BF00            NOP
   84 00000094 BF00            NOP
   85 00000096 BF00            NOP
   86 00000098 BF00            NOP
   87 0000009A BF00            NOP
   88 0000009C BF00            NOP
   89 0000009E BF00            NOP
   90 000000A0 BF00            NOP
   91 000000A2 BF00            NOP
   92 000000A4 BF00            NOP
   93 000000A6 BF00            NOP
   94 000000A8 BF00            NOP
   95 000000AA BF00            NOP
   96 000000AC BF00            NOP
   97 000000AE BF00            NOP
   98 000000B0 BF00            NOP
   99 000000B2 BF00            NOP
  100 000000B4 BF00            NOP
  101 000000B6 BF00            NOP
  102 000000B8 BF00            NOP



ARM Macro Assembler    Page 3 


  103 000000BA BF00            NOP
  104 000000BC BF00            NOP
  105 000000BE BF00            NOP
  106 000000C0 BF00            NOP
  107 000000C2 BF00            NOP
  108 000000C4 BF00            NOP
  109 000000C6 BF00            NOP
  110 000000C8 BF00            NOP
  111 000000CA BF00            NOP
  112 000000CC BF00            NOP
  113 000000CE BF00            NOP
  114 000000D0 BF00            NOP
  115 000000D2 BF00            NOP
  116 000000D4 BF00            NOP
  117 000000D6 BF00            NOP
  118 000000D8 BF00            NOP
  119 000000DA BF00            NOP
  120 000000DC BF00            NOP
  121 000000DE BF00            NOP
  122 000000E0 BF00            NOP
  123 000000E2 BF00            NOP
  124 000000E4 BF00            NOP
  125 000000E6 BF00            NOP
  126 000000E8 BF00            NOP
  127 000000EA BF00            NOP
  128 000000EC BF00            NOP
  129 000000EE BF00            NOP
  130 000000F0 BF00            NOP
  131 000000F2 BF00            NOP
  132 000000F4 BF00            NOP
  133 000000F6 BF00            NOP
  134 000000F8 BF00            NOP
  135 000000FA BF00            NOP
  136 000000FC BF00            NOP
  137 000000FE BF00            NOP
  138 00000100 BF00            NOP
  139 00000102 BF00            NOP
  140 00000104 BF00            NOP
  141 00000106 BF00            NOP
  142 00000108 BF00            NOP
  143 0000010A BF00            NOP
  144 0000010C BF00            NOP
  145 0000010E BF00            NOP
  146 00000110 BF00            NOP
  147 00000112 BF00            NOP
  148 00000114 BF00            NOP
  149 00000116 BF00            NOP
  150 00000118 BF00            NOP
  151 0000011A BF00            NOP
  152 0000011C 4770            BX               lr
  153 0000011E                 ENDP
  154 0000011E         
  155 0000011E         
  156 0000011E                 AREA             ||i.SysTick_Handler||, CODE, RE
ADONLY, ALIGN=2
  157 00000000         
  158 00000000         SysTick_Handler
                               PROC
  159 00000000 B510            PUSH             {r4,lr}



ARM Macro Assembler    Page 4 


  160 00000002 480E            LDR              r0,|L1.60|
  161 00000004 6804            LDR              r4,[r0,#0]  ; g_timer_list
  162 00000006 480E            LDR              r0,|L1.64|
  163 00000008 6800            LDR              r0,[r0,#0]  ; g_systick_count
  164 0000000A 1C40            ADDS             r0,r0,#1
  165 0000000C 490C            LDR              r1,|L1.64|
  166 0000000E 6008            STR              r0,[r1,#0]  ; g_systick_count
  167 00000010 B194            CBZ              r4,|L1.56|
  168 00000012 69A0            LDR              r0,[r4,#0x18]
  169 00000014 2801            CMP              r0,#1
  170 00000016 D903            BLS              |L1.32|
  171 00000018 69A0            LDR              r0,[r4,#0x18]
  172 0000001A 1E40            SUBS             r0,r0,#1
  173 0000001C 61A0            STR              r0,[r4,#0x18]
  174 0000001E E00B            B                |L1.56|
  175 00000020         |L1.32|
  176 00000020 2000            MOVS             r0,#0
  177 00000022 61A0            STR              r0,[r4,#0x18]
  178 00000024 4807            LDR              r0,|L1.68|
  179 00000026 8800            LDRH             r0,[r0,#0]  ; g_timer_entered_h
                                                            andler
  180 00000028 B930            CBNZ             r0,|L1.56|
  181 0000002A F7FF FFFE       BL               XMC_SYSTIMER_lTimerHandler
  182 0000002E 4805            LDR              r0,|L1.68|
  183 00000030 8800            LDRH             r0,[r0,#0]  ; g_timer_entered_h
                                                            andler
  184 00000032 1E40            SUBS             r0,r0,#1
  185 00000034 4903            LDR              r1,|L1.68|
  186 00000036 8008            STRH             r0,[r1,#0]
  187 00000038         |L1.56|
  188 00000038 BD10            POP              {r4,pc}
  189 0000003A                 ENDP
  190 0000003A         
  191 0000003A 00 00           DCW              0x0000
  192 0000003C         |L1.60|
  193 0000003C 00000000        DCD              g_timer_list
  194 00000040         |L1.64|
  195 00000040 00000000        DCD              g_systick_count
  196 00000044         |L1.68|
  197 00000044 00000000        DCD              g_timer_entered_handler
  198 00000048         
  199 00000048                 AREA             ||i.XMC_SYSTIMER_CreateTimer||,
 CODE, READONLY, ALIGN=2
  200 00000000         
  201 00000000         XMC_SYSTIMER_CreateTimer
                               PROC
  202 00000000 E92D 41F0       PUSH             {r4-r8,lr}
  203 00000004 4604            MOV              r4,r0
  204 00000006 460D            MOV              r5,r1
  205 00000008 2000            MOVS             r0,#0
  206 0000000A 2100            MOVS             r1,#0
  207 0000000C 2600            MOVS             r6,#0
  208 0000000E F5B4 7F7A       CMP              r4,#0x3e8
  209 00000012 D200            BCS              |L2.22|
  210 00000014 E059            B                |L2.202|
  211 00000016         |L2.22|
  212 00000016 2100            MOVS             r1,#0
  213 00000018 E054            B                |L2.196|
  214 0000001A         |L2.26|



ARM Macro Assembler    Page 5 


  215 0000001A 2701            MOVS             r7,#1
  216 0000001C 408F            LSLS             r7,r7,r1
  217 0000001E F8DF C0B0       LDR              r12,|L2.208|
  218 00000022 F8DC C000       LDR              r12,[r12,#0] ; g_timer_tracker
  219 00000026 EA07 070C       AND              r7,r7,r12
  220 0000002A BBEF            CBNZ             r7,|L2.168|
  221 0000002C 2701            MOVS             r7,#1
  222 0000002E 408F            LSLS             r7,r7,r1
  223 00000030 F8DF C09C       LDR              r12,|L2.208|
  224 00000034 F8DC C000       LDR              r12,[r12,#0] ; g_timer_tracker
  225 00000038 EA47 070C       ORR              r7,r7,r12
  226 0000003C F8DF C090       LDR              r12,|L2.208|
  227 00000040 F8CC 7000       STR              r7,[r12,#0] ; g_timer_tracker
  228 00000044 EB01 07C1       ADD              r7,r1,r1,LSL #3
  229 00000048 F8DF C088       LDR              r12,|L2.212|
  230 0000004C EB0C 0787       ADD              r7,r12,r7,LSL #2
  231 00000050 6179            STR              r1,[r7,#0x14]
  232 00000052 EB01 07C1       ADD              r7,r1,r1,LSL #3
  233 00000056 EB0C 0787       ADD              r7,r12,r7,LSL #2
  234 0000005A 733D            STRB             r5,[r7,#0xc]
  235 0000005C 2702            MOVS             r7,#2
  236 0000005E EB01 0CC1       ADD              r12,r1,r1,LSL #3
  237 00000062 F8DF 8070       LDR              r8,|L2.212|
  238 00000066 EB08 0C8C       ADD              r12,r8,r12,LSL #2
  239 0000006A F88C 700D       STRB             r7,[r12,#0xd]
  240 0000006E F44F 777A       MOV              r7,#0x3e8
  241 00000072 FBB4 F6F7       UDIV             r6,r4,r7
  242 00000076 1C77            ADDS             r7,r6,#1
  243 00000078 EB01 0CC1       ADD              r12,r1,r1,LSL #3
  244 0000007C EB08 0C8C       ADD              r12,r8,r12,LSL #2
  245 00000080 F8CC 7018       STR              r7,[r12,#0x18]
  246 00000084 EB01 07C1       ADD              r7,r1,r1,LSL #3
  247 00000088 46C4            MOV              r12,r8
  248 0000008A EB0C 0787       ADD              r7,r12,r7,LSL #2
  249 0000008E 61FE            STR              r6,[r7,#0x1c]
  250 00000090 EB01 07C1       ADD              r7,r1,r1,LSL #3
  251 00000094 EB0C 0787       ADD              r7,r12,r7,LSL #2
  252 00000098 60BA            STR              r2,[r7,#8]
  253 0000009A EB01 07C1       ADD              r7,r1,r1,LSL #3
  254 0000009E EB0C 0787       ADD              r7,r12,r7,LSL #2
  255 000000A2 613B            STR              r3,[r7,#0x10]
  256 000000A4 2700            MOVS             r7,#0
  257 000000A6 E000            B                |L2.170|
  258 000000A8         |L2.168|
  259 000000A8 E00B            B                |L2.194|
  260 000000AA         |L2.170|
  261 000000AA EB01 0CC1       ADD              r12,r1,r1,LSL #3
  262 000000AE EB08 0C8C       ADD              r12,r8,r12,LSL #2
  263 000000B2 F8CC 7004       STR              r7,[r12,#4]
  264 000000B6 EB01 0CC1       ADD              r12,r1,r1,LSL #3
  265 000000BA F848 702C       STR              r7,[r8,r12,LSL #2]
  266 000000BE 1C48            ADDS             r0,r1,#1
  267 000000C0 E002            B                |L2.200|
  268 000000C2         |L2.194|
  269 000000C2 1C49            ADDS             r1,r1,#1
  270 000000C4         |L2.196|
  271 000000C4 2908            CMP              r1,#8
  272 000000C6 D3A8            BCC              |L2.26|
  273 000000C8         |L2.200|



ARM Macro Assembler    Page 6 


  274 000000C8 BF00            NOP
  275 000000CA         |L2.202|
  276 000000CA E8BD 81F0       POP              {r4-r8,pc}
  277 000000CE                 ENDP
  278 000000CE         
  279 000000CE 00 00           DCW              0x0000
  280 000000D0         |L2.208|
  281 000000D0 00000000        DCD              g_timer_tracker
  282 000000D4         |L2.212|
  283 000000D4 00000000        DCD              g_timer_tbl
  284 000000D8         
  285 000000D8                 AREA             ||i.XMC_SYSTIMER_DeleteTimer||,
 CODE, READONLY, ALIGN=2
  286 00000000         
  287 00000000         XMC_SYSTIMER_DeleteTimer
                               PROC
  288 00000000 B510            PUSH             {r4,lr}
  289 00000002 4601            MOV              r1,r0
  290 00000004 2000            MOVS             r0,#0
  291 00000006 1E4A            SUBS             r2,r1,#1
  292 00000008 EB02 02C2       ADD              r2,r2,r2,LSL #3
  293 0000000C 4B15            LDR              r3,|L3.100|
  294 0000000E EB03 0282       ADD              r2,r3,r2,LSL #2
  295 00000012 7B52            LDRB             r2,[r2,#0xd]
  296 00000014 B90A            CBNZ             r2,|L3.26|
  297 00000016 2001            MOVS             r0,#1
  298 00000018 E022            B                |L3.96|
  299 0000001A         |L3.26|
  300 0000001A 1E4A            SUBS             r2,r1,#1
  301 0000001C EB02 02C2       ADD              r2,r2,r2,LSL #3
  302 00000020 4B10            LDR              r3,|L3.100|
  303 00000022 EB03 0282       ADD              r2,r3,r2,LSL #2
  304 00000026 7B52            LDRB             r2,[r2,#0xd]
  305 00000028 2A02            CMP              r2,#2
  306 0000002A D110            BNE              |L3.78|
  307 0000002C 2300            MOVS             r3,#0
  308 0000002E 1E4A            SUBS             r2,r1,#1
  309 00000030 EB02 02C2       ADD              r2,r2,r2,LSL #3
  310 00000034 4C0B            LDR              r4,|L3.100|
  311 00000036 EB04 0282       ADD              r2,r4,r2,LSL #2
  312 0000003A 7353            STRB             r3,[r2,#0xd]
  313 0000003C 1E4A            SUBS             r2,r1,#1
  314 0000003E 2301            MOVS             r3,#1
  315 00000040 4093            LSLS             r3,r3,r2
  316 00000042 4A09            LDR              r2,|L3.104|
  317 00000044 6812            LDR              r2,[r2,#0]  ; g_timer_tracker
  318 00000046 439A            BICS             r2,r2,r3
  319 00000048 4B07            LDR              r3,|L3.104|
  320 0000004A 601A            STR              r2,[r3,#0]  ; g_timer_tracker
  321 0000004C E008            B                |L3.96|
  322 0000004E         |L3.78|
  323 0000004E 2301            MOVS             r3,#1
  324 00000050 1E4A            SUBS             r2,r1,#1
  325 00000052 EB02 02C2       ADD              r2,r2,r2,LSL #3
  326 00000056 4C03            LDR              r4,|L3.100|
  327 00000058 EB04 0282       ADD              r2,r4,r2,LSL #2
  328 0000005C F882 3020       STRB             r3,[r2,#0x20]
  329 00000060         |L3.96|
  330 00000060 BD10            POP              {r4,pc}



ARM Macro Assembler    Page 7 


  331 00000062                 ENDP
  332 00000062         
  333 00000062 00 00           DCW              0x0000
  334 00000064         |L3.100|
  335 00000064 00000000        DCD              g_timer_tbl
  336 00000068         |L3.104|
  337 00000068 00000000        DCD              g_timer_tracker
  338 0000006C         
  339 0000006C                 AREA             ||i.XMC_SYSTIMER_GetTickCount||
, CODE, READONLY, ALIGN=2
  340 00000000         
  341 00000000         XMC_SYSTIMER_GetTickCount
                               PROC
  342 00000000 4801            LDR              r0,|L4.8|
  343 00000002 6800            LDR              r0,[r0,#0]  ; g_systick_count
  344 00000004 4770            BX               lr
  345 00000006                 ENDP
  346 00000006         
  347 00000006 00 00           DCW              0x0000
  348 00000008         |L4.8|
  349 00000008 00000000        DCD              g_systick_count
  350 0000000C         
  351 0000000C                 AREA             ||i.XMC_SYSTIMER_GetTime||, COD
E, READONLY, ALIGN=2
  352 00000000         
  353 00000000         XMC_SYSTIMER_GetTime
                               PROC
  354 00000000 4802            LDR              r0,|L5.12|
  355 00000002 6800            LDR              r0,[r0,#0]  ; g_systick_count
  356 00000004 F44F 717A       MOV              r1,#0x3e8
  357 00000008 4348            MULS             r0,r1,r0
  358 0000000A 4770            BX               lr
  359 0000000C                 ENDP
  360 0000000C         
  361 0000000C         |L5.12|
  362 0000000C 00000000        DCD              g_systick_count
  363 00000010         
  364 00000010                 AREA             ||i.XMC_SYSTIMER_GetTimerState|
|, CODE, READONLY, ALIGN=2
  365 00000000         
  366 00000000         XMC_SYSTIMER_GetTimerState
                               PROC
  367 00000000 4601            MOV              r1,r0
  368 00000002 1E48            SUBS             r0,r1,#1
  369 00000004 EB00 00C0       ADD              r0,r0,r0,LSL #3
  370 00000008 4A02            LDR              r2,|L6.20|
  371 0000000A EB02 0080       ADD              r0,r2,r0,LSL #2
  372 0000000E 7B40            LDRB             r0,[r0,#0xd]
  373 00000010 4770            BX               lr
  374 00000012                 ENDP
  375 00000012         
  376 00000012 00 00           DCW              0x0000
  377 00000014         |L6.20|
  378 00000014 00000000        DCD              g_timer_tbl
  379 00000018         
  380 00000018                 AREA             ||i.XMC_SYSTIMER_RestartTimer||
, CODE, READONLY, ALIGN=2
  381 00000000         
  382 00000000         XMC_SYSTIMER_RestartTimer



ARM Macro Assembler    Page 8 


                               PROC
  383 00000000 E92D 41F0       PUSH             {r4-r8,lr}
  384 00000004 4604            MOV              r4,r0
  385 00000006 460D            MOV              r5,r1
  386 00000008 2700            MOVS             r7,#0
  387 0000000A 2600            MOVS             r6,#0
  388 0000000C 1E60            SUBS             r0,r4,#1
  389 0000000E EB00 00C0       ADD              r0,r0,r0,LSL #3
  390 00000012 4913            LDR              r1,|L7.96|
  391 00000014 EB01 0080       ADD              r0,r1,r0,LSL #2
  392 00000018 7B40            LDRB             r0,[r0,#0xd]
  393 0000001A B908            CBNZ             r0,|L7.32|
  394 0000001C 2601            MOVS             r6,#1
  395 0000001E E01C            B                |L7.90|
  396 00000020         |L7.32|
  397 00000020 1E60            SUBS             r0,r4,#1
  398 00000022 EB00 00C0       ADD              r0,r0,r0,LSL #3
  399 00000026 490E            LDR              r1,|L7.96|
  400 00000028 EB01 0080       ADD              r0,r1,r0,LSL #2
  401 0000002C 7B40            LDRB             r0,[r0,#0xd]
  402 0000002E 2802            CMP              r0,#2
  403 00000030 D003            BEQ              |L7.58|
  404 00000032 4620            MOV              r0,r4
  405 00000034 F7FF FFFE       BL               XMC_SYSTIMER_StopTimer
  406 00000038 4606            MOV              r6,r0
  407 0000003A         |L7.58|
  408 0000003A B976            CBNZ             r6,|L7.90|
  409 0000003C F44F 707A       MOV              r0,#0x3e8
  410 00000040 FBB5 F7F0       UDIV             r7,r5,r0
  411 00000044 1E60            SUBS             r0,r4,#1
  412 00000046 EB00 00C0       ADD              r0,r0,r0,LSL #3
  413 0000004A 4905            LDR              r1,|L7.96|
  414 0000004C EB01 0080       ADD              r0,r1,r0,LSL #2
  415 00000050 61C7            STR              r7,[r0,#0x1c]
  416 00000052 4620            MOV              r0,r4
  417 00000054 F7FF FFFE       BL               XMC_SYSTIMER_StartTimer
  418 00000058 4606            MOV              r6,r0
  419 0000005A         |L7.90|
  420 0000005A 4630            MOV              r0,r6
  421 0000005C E8BD 81F0       POP              {r4-r8,pc}
  422 00000060                 ENDP
  423 00000060         
  424 00000060         |L7.96|
  425 00000060 00000000        DCD              g_timer_tbl
  426 00000064         
  427 00000064                 AREA             ||i.XMC_SYSTIMER_StartTimer||, 
CODE, READONLY, ALIGN=2
  428 00000000         
  429 00000000         XMC_SYSTIMER_StartTimer
                               PROC
  430 00000000 B570            PUSH             {r4-r6,lr}
  431 00000002 4604            MOV              r4,r0
  432 00000004 2501            MOVS             r5,#1
  433 00000006 1E60            SUBS             r0,r4,#1
  434 00000008 EB00 00C0       ADD              r0,r0,r0,LSL #3
  435 0000000C 4910            LDR              r1,|L8.80|
  436 0000000E EB01 0080       ADD              r0,r1,r0,LSL #2
  437 00000012 7B40            LDRB             r0,[r0,#0xd]
  438 00000014 2802            CMP              r0,#2



ARM Macro Assembler    Page 9 


  439 00000016 D118            BNE              |L8.74|
  440 00000018 1E60            SUBS             r0,r4,#1
  441 0000001A EB00 00C0       ADD              r0,r0,r0,LSL #3
  442 0000001E EB01 0080       ADD              r0,r1,r0,LSL #2
  443 00000022 69C0            LDR              r0,[r0,#0x1c]
  444 00000024 1C40            ADDS             r0,r0,#1
  445 00000026 1E61            SUBS             r1,r4,#1
  446 00000028 EB01 01C1       ADD              r1,r1,r1,LSL #3
  447 0000002C 4A08            LDR              r2,|L8.80|
  448 0000002E EB02 0181       ADD              r1,r2,r1,LSL #2
  449 00000032 6188            STR              r0,[r1,#0x18]
  450 00000034 2101            MOVS             r1,#1
  451 00000036 1E60            SUBS             r0,r4,#1
  452 00000038 EB00 00C0       ADD              r0,r0,r0,LSL #3
  453 0000003C EB02 0080       ADD              r0,r2,r0,LSL #2
  454 00000040 7341            STRB             r1,[r0,#0xd]
  455 00000042 1E60            SUBS             r0,r4,#1
  456 00000044 F7FF FFFE       BL               XMC_SYSTIMER_lInsertTimerList
  457 00000048 2500            MOVS             r5,#0
  458 0000004A         |L8.74|
  459 0000004A 4628            MOV              r0,r5
  460 0000004C BD70            POP              {r4-r6,pc}
  461 0000004E                 ENDP
  462 0000004E         
  463 0000004E 00 00           DCW              0x0000
  464 00000050         |L8.80|
  465 00000050 00000000        DCD              g_timer_tbl
  466 00000054         
  467 00000054                 AREA             ||i.XMC_SYSTIMER_StopTimer||, C
ODE, READONLY, ALIGN=2
  468 00000000         
  469 00000000         XMC_SYSTIMER_StopTimer
                               PROC
  470 00000000 B570            PUSH             {r4-r6,lr}
  471 00000002 4604            MOV              r4,r0
  472 00000004 2500            MOVS             r5,#0
  473 00000006 1E60            SUBS             r0,r4,#1
  474 00000008 EB00 00C0       ADD              r0,r0,r0,LSL #3
  475 0000000C 490E            LDR              r1,|L9.72|
  476 0000000E EB01 0080       ADD              r0,r1,r0,LSL #2
  477 00000012 7B40            LDRB             r0,[r0,#0xd]
  478 00000014 B908            CBNZ             r0,|L9.26|
  479 00000016 2501            MOVS             r5,#1
  480 00000018 E013            B                |L9.66|
  481 0000001A         |L9.26|
  482 0000001A 1E60            SUBS             r0,r4,#1
  483 0000001C EB00 00C0       ADD              r0,r0,r0,LSL #3
  484 00000020 4909            LDR              r1,|L9.72|
  485 00000022 EB01 0080       ADD              r0,r1,r0,LSL #2
  486 00000026 7B40            LDRB             r0,[r0,#0xd]
  487 00000028 2801            CMP              r0,#1
  488 0000002A D10A            BNE              |L9.66|
  489 0000002C 2102            MOVS             r1,#2
  490 0000002E 1E60            SUBS             r0,r4,#1
  491 00000030 EB00 00C0       ADD              r0,r0,r0,LSL #3
  492 00000034 4A04            LDR              r2,|L9.72|
  493 00000036 EB02 0080       ADD              r0,r2,r0,LSL #2
  494 0000003A 7341            STRB             r1,[r0,#0xd]
  495 0000003C 1E60            SUBS             r0,r4,#1



ARM Macro Assembler    Page 10 


  496 0000003E F7FF FFFE       BL               XMC_SYSTIMER_lRemoveTimerList
  497 00000042         |L9.66|
  498 00000042 4628            MOV              r0,r5
  499 00000044 BD70            POP              {r4-r6,pc}
  500 00000046                 ENDP
  501 00000046         
  502 00000046 00 00           DCW              0x0000
  503 00000048         |L9.72|
  504 00000048 00000000        DCD              g_timer_tbl
  505 0000004C         
  506 0000004C                 AREA             ||i.XMC_SYSTIMER_lInsertTimerLi
st||, CODE, READONLY, ALIGN=2
  507 00000000         
  508 00000000         XMC_SYSTIMER_lInsertTimerList
                               PROC
  509 00000000 B5F0            PUSH             {r4-r7,lr}
  510 00000002 2300            MOVS             r3,#0
  511 00000004 EB00 05C0       ADD              r5,r0,r0,LSL #3
  512 00000008 4E40            LDR              r6,|L10.268|
  513 0000000A EB06 0585       ADD              r5,r6,r5,LSL #2
  514 0000000E 69AC            LDR              r4,[r5,#0x18]
  515 00000010 4D3F            LDR              r5,|L10.272|
  516 00000012 682D            LDR              r5,[r5,#0]  ; g_timer_list
  517 00000014 B935            CBNZ             r5,|L10.36|
  518 00000016 EB00 05C0       ADD              r5,r0,r0,LSL #3
  519 0000001A EB06 0585       ADD              r5,r6,r5,LSL #2
  520 0000001E 4E3C            LDR              r6,|L10.272|
  521 00000020 6035            STR              r5,[r6,#0]  ; g_timer_list
  522 00000022 E071            B                |L10.264|
  523 00000024         |L10.36|
  524 00000024 4D3A            LDR              r5,|L10.272|
  525 00000026 6829            LDR              r1,[r5,#0]  ; g_timer_list
  526 00000028 4622            MOV              r2,r4
  527 0000002A E06A            B                |L10.258|
  528 0000002C         |L10.44|
  529 0000002C 698D            LDR              r5,[r1,#0x18]
  530 0000002E 1B52            SUBS             r2,r2,r5
  531 00000030 2A00            CMP              r2,#0
  532 00000032 DC50            BGT              |L10.214|
  533 00000034 684D            LDR              r5,[r1,#4]
  534 00000036 B1C5            CBZ              r5,|L10.106|
  535 00000038 EB00 05C0       ADD              r5,r0,r0,LSL #3
  536 0000003C 4E33            LDR              r6,|L10.268|
  537 0000003E EB06 0585       ADD              r5,r6,r5,LSL #2
  538 00000042 684E            LDR              r6,[r1,#4]
  539 00000044 6035            STR              r5,[r6,#0]
  540 00000046 EB00 06C0       ADD              r6,r0,r0,LSL #3
  541 0000004A 4F30            LDR              r7,|L10.268|
  542 0000004C EB07 0686       ADD              r6,r7,r6,LSL #2
  543 00000050 684D            LDR              r5,[r1,#4]
  544 00000052 6075            STR              r5,[r6,#4]
  545 00000054 EB00 05C0       ADD              r5,r0,r0,LSL #3
  546 00000058 463E            MOV              r6,r7
  547 0000005A F846 1025       STR              r1,[r6,r5,LSL #2]
  548 0000005E EB00 05C0       ADD              r5,r0,r0,LSL #3
  549 00000062 EB06 0585       ADD              r5,r6,r5,LSL #2
  550 00000066 604D            STR              r5,[r1,#4]
  551 00000068 E015            B                |L10.150|
  552 0000006A         |L10.106|



ARM Macro Assembler    Page 11 


  553 0000006A 4D29            LDR              r5,|L10.272|
  554 0000006C 682D            LDR              r5,[r5,#0]  ; g_timer_list
  555 0000006E EB00 06C0       ADD              r6,r0,r0,LSL #3
  556 00000072 4F26            LDR              r7,|L10.268|
  557 00000074 F847 5026       STR              r5,[r7,r6,LSL #2]
  558 00000078 EB00 05C0       ADD              r5,r0,r0,LSL #3
  559 0000007C 463E            MOV              r6,r7
  560 0000007E EB06 0585       ADD              r5,r6,r5,LSL #2
  561 00000082 4E23            LDR              r6,|L10.272|
  562 00000084 6836            LDR              r6,[r6,#0]  ; g_timer_list
  563 00000086 6075            STR              r5,[r6,#4]
  564 00000088 EB00 05C0       ADD              r5,r0,r0,LSL #3
  565 0000008C 463E            MOV              r6,r7
  566 0000008E EB06 0585       ADD              r5,r6,r5,LSL #2
  567 00000092 4E1F            LDR              r6,|L10.272|
  568 00000094 6035            STR              r5,[r6,#0]  ; g_timer_list
  569 00000096         |L10.150|
  570 00000096 EB00 05C0       ADD              r5,r0,r0,LSL #3
  571 0000009A 4E1C            LDR              r6,|L10.268|
  572 0000009C F856 5025       LDR              r5,[r6,r5,LSL #2]
  573 000000A0 69AD            LDR              r5,[r5,#0x18]
  574 000000A2 4415            ADD              r5,r5,r2
  575 000000A4 EB00 06C0       ADD              r6,r0,r0,LSL #3
  576 000000A8 4F18            LDR              r7,|L10.268|
  577 000000AA EB07 0686       ADD              r6,r7,r6,LSL #2
  578 000000AE 61B5            STR              r5,[r6,#0x18]
  579 000000B0 EB00 05C0       ADD              r5,r0,r0,LSL #3
  580 000000B4 463E            MOV              r6,r7
  581 000000B6 F856 5025       LDR              r5,[r6,r5,LSL #2]
  582 000000BA 69AD            LDR              r5,[r5,#0x18]
  583 000000BC EB00 06C0       ADD              r6,r0,r0,LSL #3
  584 000000C0 EB07 0686       ADD              r6,r7,r6,LSL #2
  585 000000C4 69B6            LDR              r6,[r6,#0x18]
  586 000000C6 1BAD            SUBS             r5,r5,r6
  587 000000C8 EB00 06C0       ADD              r6,r0,r0,LSL #3
  588 000000CC F857 6026       LDR              r6,[r7,r6,LSL #2]
  589 000000D0 61B5            STR              r5,[r6,#0x18]
  590 000000D2 2301            MOVS             r3,#1
  591 000000D4 E014            B                |L10.256|
  592 000000D6         |L10.214|
  593 000000D6 2A00            CMP              r2,#0
  594 000000D8 DD12            BLE              |L10.256|
  595 000000DA 680D            LDR              r5,[r1,#0]
  596 000000DC B985            CBNZ             r5,|L10.256|
  597 000000DE EB00 05C0       ADD              r5,r0,r0,LSL #3
  598 000000E2 4E0A            LDR              r6,|L10.268|
  599 000000E4 EB06 0585       ADD              r5,r6,r5,LSL #2
  600 000000E8 6069            STR              r1,[r5,#4]
  601 000000EA EB00 05C0       ADD              r5,r0,r0,LSL #3
  602 000000EE EB06 0585       ADD              r5,r6,r5,LSL #2
  603 000000F2 600D            STR              r5,[r1,#0]
  604 000000F4 EB00 05C0       ADD              r5,r0,r0,LSL #3
  605 000000F8 EB06 0585       ADD              r5,r6,r5,LSL #2
  606 000000FC 61AA            STR              r2,[r5,#0x18]
  607 000000FE 2301            MOVS             r3,#1
  608 00000100         |L10.256|
  609 00000100 6809            LDR              r1,[r1,#0]
  610 00000102         |L10.258|
  611 00000102 B109            CBZ              r1,|L10.264|



ARM Macro Assembler    Page 12 


  612 00000104 2B00            CMP              r3,#0
  613 00000106 D091            BEQ              |L10.44|
  614 00000108         |L10.264|
  615 00000108 BDF0            POP              {r4-r7,pc}
  616 0000010A                 ENDP
  617 0000010A         
  618 0000010A 00 00           DCW              0x0000
  619 0000010C         |L10.268|
  620 0000010C 00000000        DCD              g_timer_tbl
  621 00000110         |L10.272|
  622 00000110 00000000        DCD              g_timer_list
  623 00000114         
  624 00000114                 AREA             ||i.XMC_SYSTIMER_lRemoveTimerLi
st||, CODE, READONLY, ALIGN=2
  625 00000000         
  626 00000000         XMC_SYSTIMER_lRemoveTimerList
                               PROC
  627 00000000 4601            MOV              r1,r0
  628 00000002 EB01 02C1       ADD              r2,r1,r1,LSL #3
  629 00000006 4B1A            LDR              r3,|L11.112|
  630 00000008 EB03 0082       ADD              r0,r3,r2,LSL #2
  631 0000000C 6842            LDR              r2,[r0,#4]
  632 0000000E B92A            CBNZ             r2,|L11.28|
  633 00000010 6802            LDR              r2,[r0,#0]
  634 00000012 B91A            CBNZ             r2,|L11.28|
  635 00000014 2200            MOVS             r2,#0
  636 00000016 4B17            LDR              r3,|L11.116|
  637 00000018 601A            STR              r2,[r3,#0]  ; g_timer_list
  638 0000001A E028            B                |L11.110|
  639 0000001C         |L11.28|
  640 0000001C 6842            LDR              r2,[r0,#4]
  641 0000001E B982            CBNZ             r2,|L11.66|
  642 00000020 4B14            LDR              r3,|L11.116|
  643 00000022 6802            LDR              r2,[r0,#0]
  644 00000024 601A            STR              r2,[r3,#0]  ; g_timer_list
  645 00000026 2200            MOVS             r2,#0
  646 00000028 681B            LDR              r3,[r3,#0]  ; g_timer_list
  647 0000002A 605A            STR              r2,[r3,#4]
  648 0000002C 4A11            LDR              r2,|L11.116|
  649 0000002E 6812            LDR              r2,[r2,#0]  ; g_timer_list
  650 00000030 6992            LDR              r2,[r2,#0x18]
  651 00000032 6983            LDR              r3,[r0,#0x18]
  652 00000034 441A            ADD              r2,r2,r3
  653 00000036 4B0F            LDR              r3,|L11.116|
  654 00000038 681B            LDR              r3,[r3,#0]  ; g_timer_list
  655 0000003A 619A            STR              r2,[r3,#0x18]
  656 0000003C 2200            MOVS             r2,#0
  657 0000003E 6002            STR              r2,[r0,#0]
  658 00000040 E015            B                |L11.110|
  659 00000042         |L11.66|
  660 00000042 6802            LDR              r2,[r0,#0]
  661 00000044 B922            CBNZ             r2,|L11.80|
  662 00000046 2200            MOVS             r2,#0
  663 00000048 6843            LDR              r3,[r0,#4]
  664 0000004A 601A            STR              r2,[r3,#0]
  665 0000004C 6042            STR              r2,[r0,#4]
  666 0000004E E00E            B                |L11.110|
  667 00000050         |L11.80|
  668 00000050 E9D0 2300       LDRD             r2,r3,[r0,#0]



ARM Macro Assembler    Page 13 


  669 00000054 601A            STR              r2,[r3,#0]
  670 00000056 E9D0 3200       LDRD             r3,r2,[r0,#0]
  671 0000005A 605A            STR              r2,[r3,#4]
  672 0000005C 6802            LDR              r2,[r0,#0]
  673 0000005E 6992            LDR              r2,[r2,#0x18]
  674 00000060 6983            LDR              r3,[r0,#0x18]
  675 00000062 441A            ADD              r2,r2,r3
  676 00000064 6803            LDR              r3,[r0,#0]
  677 00000066 619A            STR              r2,[r3,#0x18]
  678 00000068 2200            MOVS             r2,#0
  679 0000006A 6002            STR              r2,[r0,#0]
  680 0000006C 6042            STR              r2,[r0,#4]
  681 0000006E         |L11.110|
  682 0000006E 4770            BX               lr
  683 00000070                 ENDP
  684 00000070         
  685 00000070         |L11.112|
  686 00000070 00000000        DCD              g_timer_tbl
  687 00000074         |L11.116|
  688 00000074 00000000        DCD              g_timer_list
  689 00000078         
  690 00000078                 AREA             ||i.XMC_SYSTIMER_lTimerHandler|
|, CODE, READONLY, ALIGN=2
  691 00000000         
  692 00000000         XMC_SYSTIMER_lTimerHandler
                               PROC
  693 00000000 B510            PUSH             {r4,lr}
  694 00000002 4821            LDR              r0,|L12.136|
  695 00000004 8800            LDRH             r0,[r0,#0]  ; g_timer_entered_h
                                                            andler
  696 00000006 1C40            ADDS             r0,r0,#1
  697 00000008 491F            LDR              r1,|L12.136|
  698 0000000A 8008            STRH             r0,[r1,#0]
  699 0000000C 481F            LDR              r0,|L12.140|
  700 0000000E 6804            LDR              r4,[r0,#0]  ; g_timer_list
  701 00000010 E034            B                |L12.124|
  702 00000012         |L12.18|
  703 00000012 F894 0020       LDRB             r0,[r4,#0x20]
  704 00000016 2801            CMP              r0,#1
  705 00000018 D10D            BNE              |L12.54|
  706 0000001A 6960            LDR              r0,[r4,#0x14]
  707 0000001C F7FF FFFE       BL               XMC_SYSTIMER_lRemoveTimerList
  708 00000020 2000            MOVS             r0,#0
  709 00000022 7360            STRB             r0,[r4,#0xd]
  710 00000024 7D21            LDRB             r1,[r4,#0x14]
  711 00000026 2001            MOVS             r0,#1
  712 00000028 4088            LSLS             r0,r0,r1
  713 0000002A 4919            LDR              r1,|L12.144|
  714 0000002C 6809            LDR              r1,[r1,#0]  ; g_timer_tracker
  715 0000002E 4381            BICS             r1,r1,r0
  716 00000030 4817            LDR              r0,|L12.144|
  717 00000032 6001            STR              r1,[r0,#0]  ; g_timer_tracker
  718 00000034 E020            B                |L12.120|
  719 00000036         |L12.54|
  720 00000036 7B20            LDRB             r0,[r4,#0xc]
  721 00000038 B958            CBNZ             r0,|L12.82|
  722 0000003A 7B60            LDRB             r0,[r4,#0xd]
  723 0000003C 2801            CMP              r0,#1
  724 0000003E D11B            BNE              |L12.120|



ARM Macro Assembler    Page 14 


  725 00000040 6960            LDR              r0,[r4,#0x14]
  726 00000042 F7FF FFFE       BL               XMC_SYSTIMER_lRemoveTimerList
  727 00000046 2002            MOVS             r0,#2
  728 00000048 7360            STRB             r0,[r4,#0xd]
  729 0000004A 68A1            LDR              r1,[r4,#8]
  730 0000004C 6920            LDR              r0,[r4,#0x10]
  731 0000004E 4788            BLX              r1
  732 00000050 E012            B                |L12.120|
  733 00000052         |L12.82|
  734 00000052 7B20            LDRB             r0,[r4,#0xc]
  735 00000054 2801            CMP              r0,#1
  736 00000056 D10E            BNE              |L12.118|
  737 00000058 7B60            LDRB             r0,[r4,#0xd]
  738 0000005A 2801            CMP              r0,#1
  739 0000005C D10C            BNE              |L12.120|
  740 0000005E 6960            LDR              r0,[r4,#0x14]
  741 00000060 F7FF FFFE       BL               XMC_SYSTIMER_lRemoveTimerList
  742 00000064 69E0            LDR              r0,[r4,#0x1c]
  743 00000066 61A0            STR              r0,[r4,#0x18]
  744 00000068 6960            LDR              r0,[r4,#0x14]
  745 0000006A F7FF FFFE       BL               XMC_SYSTIMER_lInsertTimerList
  746 0000006E 68A1            LDR              r1,[r4,#8]
  747 00000070 6920            LDR              r0,[r4,#0x10]
  748 00000072 4788            BLX              r1
  749 00000074 E000            B                |L12.120|
  750 00000076         |L12.118|
  751 00000076 E005            B                |L12.132|
  752 00000078         |L12.120|
  753 00000078 4804            LDR              r0,|L12.140|
  754 0000007A 6804            LDR              r4,[r0,#0]  ; g_timer_list
  755 0000007C         |L12.124|
  756 0000007C B114            CBZ              r4,|L12.132|
  757 0000007E 69A0            LDR              r0,[r4,#0x18]
  758 00000080 2800            CMP              r0,#0
  759 00000082 D0C6            BEQ              |L12.18|
  760 00000084         |L12.132|
  761 00000084 BF00            NOP
  762 00000086 BD10            POP              {r4,pc}
  763 00000088                 ENDP
  764 00000088         
  765 00000088         |L12.136|
  766 00000088 00000000        DCD              g_timer_entered_handler
  767 0000008C         |L12.140|
  768 0000008C 00000000        DCD              g_timer_list
  769 00000090         |L12.144|
  770 00000090 00000000        DCD              g_timer_tracker
  771 00000094         
  772 00000094                 AREA             ||i.__NVIC_SetPriority||, CODE,
 READONLY, ALIGN=2
  773 00000000         
  774 00000000         __NVIC_SetPriority
                               PROC
  775 00000000 B510            PUSH             {r4,lr}
  776 00000002 2800            CMP              r0,#0
  777 00000004 DB04            BLT              |L13.16|
  778 00000006 068A            LSLS             r2,r1,#26
  779 00000008 0E13            LSRS             r3,r2,#24
  780 0000000A 4A05            LDR              r2,|L13.32|
  781 0000000C 5413            STRB             r3,[r2,r0]



ARM Macro Assembler    Page 15 


  782 0000000E E006            B                |L13.30|
  783 00000010         |L13.16|
  784 00000010 068A            LSLS             r2,r1,#26
  785 00000012 0E14            LSRS             r4,r2,#24
  786 00000014 4A03            LDR              r2,|L13.36|
  787 00000016 F000 030F       AND              r3,r0,#0xf
  788 0000001A 1F1B            SUBS             r3,r3,#4
  789 0000001C 54D4            STRB             r4,[r2,r3]
  790 0000001E         |L13.30|
  791 0000001E BD10            POP              {r4,pc}
  792 00000020                 ENDP
  793 00000020         
  794 00000020         |L13.32|
  795 00000020 E000E400        DCD              0xe000e400
  796 00000024         |L13.36|
  797 00000024 E000ED18        DCD              0xe000ed18
  798 00000028         
  799 00000028                 AREA             ||i.delay||, CODE, READONLY, AL
IGN=2
  800 00000000         
  801 00000000         delay   PROC
  802 00000000 B570            PUSH             {r4-r6,lr}
  803 00000002 4604            MOV              r4,r0
  804 00000004 2000            MOVS             r0,#0
  805 00000006 490C            LDR              r1,|L14.56|
  806 00000008 7008            STRB             r0,[r1,#0]
  807 0000000A F44F 717A       MOV              r1,#0x3e8
  808 0000000E FB04 F001       MUL              r0,r4,r1
  809 00000012 2300            MOVS             r3,#0
  810 00000014 4A09            LDR              r2,|L14.60|
  811 00000016 4619            MOV              r1,r3
  812 00000018 F7FF FFFE       BL               XMC_SYSTIMER_CreateTimer
  813 0000001C 4605            MOV              r5,r0
  814 0000001E B155            CBZ              r5,|L14.54|
  815 00000020 4628            MOV              r0,r5
  816 00000022 F7FF FFFE       BL               XMC_SYSTIMER_StartTimer
  817 00000026 BF00            NOP
  818 00000028         |L14.40|
  819 00000028 4803            LDR              r0,|L14.56|
  820 0000002A 7800            LDRB             r0,[r0,#0]  ; delay_timer_expir
                                                            ed
  821 0000002C 2800            CMP              r0,#0
  822 0000002E D0FB            BEQ              |L14.40|
  823 00000030 4628            MOV              r0,r5
  824 00000032 F7FF FFFE       BL               XMC_SYSTIMER_DeleteTimer
  825 00000036         |L14.54|
  826 00000036 BD70            POP              {r4-r6,pc}
  827 00000038                 ENDP
  828 00000038         
  829 00000038         |L14.56|
  830 00000038 00000000        DCD              delay_timer_expired
  831 0000003C         |L14.60|
  832 0000003C 00000000        DCD              delay_cb
  833 00000040         
  834 00000040                 AREA             ||i.delay_cb||, CODE, READONLY,
 ALIGN=2
  835 00000000         
  836 00000000         delay_cb
                               PROC



ARM Macro Assembler    Page 16 


  837 00000000 2101            MOVS             r1,#1
  838 00000002 4A01            LDR              r2,|L15.8|
  839 00000004 7011            STRB             r1,[r2,#0]
  840 00000006 4770            BX               lr
  841 00000008                 ENDP
  842 00000008         
  843 00000008         |L15.8|
  844 00000008 00000000        DCD              delay_timer_expired
  845 0000000C         
  846 0000000C                 AREA             ||i.micros||, CODE, READONLY, A
LIGN=1
  847 00000000         
  848 00000000         micros  PROC
  849 00000000 B500            PUSH             {lr}
  850 00000002 F7FF FFFE       BL               XMC_SYSTIMER_GetTime
  851 00000006 BD00            POP              {pc}
  852 00000008                 ENDP
  853 00000008         
  854 00000008         
  855 00000008                 AREA             ||i.millis||, CODE, READONLY, A
LIGN=1
  856 00000000         
  857 00000000         millis  PROC
  858 00000000 B500            PUSH             {lr}
  859 00000002 F7FF FFFE       BL               XMC_SYSTIMER_GetTime
  860 00000006 F44F 717A       MOV              r1,#0x3e8
  861 0000000A FBB0 F0F1       UDIV             r0,r0,r1
  862 0000000E BD00            POP              {pc}
  863 00000010                 ENDP
  864 00000010         
  865 00000010         
  866 00000010                 AREA             ||i.wiring_time_init||, CODE, R
EADONLY, ALIGN=2
  867 00000000         
  868 00000000         wiring_time_init
                               PROC
  869 00000000 B510            PUSH             {r4,lr}
  870 00000002 2000            MOVS             r0,#0
  871 00000004 490F            LDR              r1,|L18.68|
  872 00000006 6008            STR              r0,[r1,#0]  ; g_timer_list
  873 00000008 4C0F            LDR              r4,|L18.72|
  874 0000000A 1E60            SUBS             r0,r4,#1
  875 0000000C F1B0 7F80       CMP              r0,#0x1000000
  876 00000010 D300            BCC              |L18.20|
  877 00000012 E00F            B                |L18.52|
  878 00000014         |L18.20|
  879 00000014 1E60            SUBS             r0,r4,#1
  880 00000016 F04F 21E0       MOV              r1,#0xe000e000
  881 0000001A 6148            STR              r0,[r1,#0x14]
  882 0000001C 213F            MOVS             r1,#0x3f
  883 0000001E F04F 30FF       MOV              r0,#0xffffffff
  884 00000022 F7FF FFFE       BL               __NVIC_SetPriority
  885 00000026 2000            MOVS             r0,#0
  886 00000028 F04F 21E0       MOV              r1,#0xe000e000
  887 0000002C 6188            STR              r0,[r1,#0x18]
  888 0000002E 2007            MOVS             r0,#7
  889 00000030 6108            STR              r0,[r1,#0x10]
  890 00000032 BF00            NOP
  891 00000034         |L18.52|



ARM Macro Assembler    Page 17 


  892 00000034 2104            MOVS             r1,#4
  893 00000036 1F48            SUBS             r0,r1,#5
  894 00000038 F7FF FFFE       BL               __NVIC_SetPriority
  895 0000003C 2000            MOVS             r0,#0
  896 0000003E 4903            LDR              r1,|L18.76|
  897 00000040 6008            STR              r0,[r1,#0]  ; g_timer_tracker
  898 00000042 BD10            POP              {r4,pc}
  899 00000044                 ENDP
  900 00000044         
  901 00000044         |L18.68|
  902 00000044 00000000        DCD              g_timer_list
  903 00000048         |L18.72|
  904 00000048 00023280        DCD              0x00023280
  905 0000004C         |L18.76|
  906 0000004C 00000000        DCD              g_timer_tracker
  907 00000050         
  908 00000050                 AREA             ||.arm_vfe_header||, DATA, READ
ONLY, NOALLOC, ALIGN=2
  909 00000000         
  910 00000000 00000000        DCD              0x00000000
  911 00000004         
  912 00000004                 AREA             ||.bss||, DATA, NOINIT, ALIGN=2
  913 00000000         
  914 00000000         g_timer_tbl
  915 00000000                 %                288
  916 00000120         
  917 00000120                 AREA             ||.data||, DATA, ALIGN=2
  918 00000000         
  919 00000000         g_timer_list
  920 00000000 00000000        DCD              0x00000000
  921 00000004         g_timer_tracker
  922 00000004 00000000        DCD              0x00000000
  923 00000008         g_timer_entered_handler
  924 00000008 00 00           DCW              0x0000
  925 0000000A 00 00           DCB              0x00,0x00
  926 0000000C         g_systick_count
  927 0000000C 00000000        DCD              0x00000000
  928 00000010         delay_timer_expired
  929 00000010 00              DCB              0x00
  930 00000011         
  931 00000011         ;*** Start embedded assembler ***
  932 00000011         
  933 00000011         #line   1                "cores\\wiring_time.c"
    1 00000011                 AREA             ||.rev16_text||, CODE
    2 00000000                 THUMB
    3 00000000                 EXPORT           |__asm___13_wiring_time_c_dbd86
6df____REV16|
    4 00000000         #line   447              "C:\\Keil_v5\\ARM\\PACK\\ARM\\C
MSIS\\5.0.1\\CMSIS\\Include\\cmsis_armcc.h"
  447 00000000         |__asm___13_wiring_time_c_dbd866df____REV16|
                               PROC
  448 00000000         #line   448
  448 00000000         
  449 00000000 BA40            rev16            r0, r0
  450 00000002 4770            bx               lr
  451 00000004                 ENDP
  452 00000004                 AREA             ||.revsh_text||, CODE
  453 00000000                 THUMB
  454 00000000                 EXPORT           |__asm___13_wiring_time_c_dbd86



ARM Macro Assembler    Page 18 


6df____REVSH|
  455 00000000         #line   462
  462 00000000         |__asm___13_wiring_time_c_dbd866df____REVSH|
                               PROC
  463 00000000         #line   463
  463 00000000         
  464 00000000 BAC0            revsh            r0, r0
  465 00000002 4770            bx               lr
  466 00000004                 ENDP
  467 00000004                 AREA             ||.rrx_text||, CODE
  468 00000000                 THUMB
  469 00000000                 EXPORT           |__asm___13_wiring_time_c_dbd86
6df____RRX|
  470 00000000         #line   649
  649 00000000         |__asm___13_wiring_time_c_dbd866df____RRX|
                               PROC
  650 00000000         #line   650
  650 00000000         
  651 00000000 EA4F 0030       rrx              r0, r0
  652 00000004 4770            bx               lr
  653 00000006                 ENDP
  654 00000006         
  655 00000006         ;*** End   embedded assembler ***
  656 00000006         
  657 00000006                 EXPORT           NOPS_FOR_USEC [CODE]
  658 00000006                 EXPORT           SysTick_Handler [CODE]
  659 00000006                 EXPORT           XMC_SYSTIMER_CreateTimer [CODE]
  660 00000006                 EXPORT           XMC_SYSTIMER_DeleteTimer [CODE]
  661 00000006                 EXPORT           XMC_SYSTIMER_GetTickCount [CODE
]
  662 00000006                 EXPORT           XMC_SYSTIMER_GetTime [CODE]
  663 00000006                 EXPORT           XMC_SYSTIMER_GetTimerState [COD
E]
  664 00000006                 EXPORT           XMC_SYSTIMER_RestartTimer [CODE
]
  665 00000006                 EXPORT           XMC_SYSTIMER_StartTimer [CODE]
  666 00000006                 EXPORT           XMC_SYSTIMER_StopTimer [CODE]
  667 00000006                 EXPORT           delay [CODE]
  668 00000006                 EXPORT           delay_cb [CODE]
  669 00000006                 EXPORT           micros [CODE]
  670 00000006                 EXPORT           millis [CODE]
  671 00000006                 EXPORT           wiring_time_init [CODE]
  672 00000006                 EXPORT           g_timer_tbl [DATA,SIZE=288]
  673 00000006                 EXPORT           g_timer_list [DATA,SIZE=4]
  674 00000006                 EXPORT           g_timer_tracker [DATA,SIZE=4]
  675 00000006                 EXPORT           g_timer_entered_handler [DATA,S
IZE=2]
  676 00000006                 EXPORT           g_systick_count [DATA,SIZE=4]
  677 00000006                 EXPORT           delay_timer_expired [DATA,SIZE=
1]
  678 00000006         
  679 00000006                 IMPORT           ||Lib$$Request$$armlib|| [CODE,
WEAK]
  680 00000006         
  681 00000006                 KEEP             XMC_SYSTIMER_lInsertTimerList
  682 00000006                 KEEP             XMC_SYSTIMER_lRemoveTimerList
  683 00000006                 KEEP             XMC_SYSTIMER_lTimerHandler
  684 00000006                 KEEP             __NVIC_SetPriority
  685 00000006         



ARM Macro Assembler    Page 19 


  686 00000006                 ATTR             FILESCOPE
  687 00000006                 ATTR             SETVALUE Tag_ABI_PCS_wchar_t,2
  688 00000006                 ATTR             SETVALUE Tag_ABI_enum_size,1
  689 00000006                 ATTR             SETVALUE Tag_ABI_optimization_g
oals,6
  690 00000006                 ATTR             SETSTRING Tag_conformance,"2.09
"
  691 00000006                 ATTR             SETVALUE AV,18,1
  692 00000006         
  693 00000006                 ASSERT           {ENDIAN} = "little"
  694 00000006                 ASSERT           {INTER} = {TRUE}
  695 00000006                 ASSERT           {ROPI} = {FALSE}
  696 00000006                 ASSERT           {RWPI} = {FALSE}
  697 00000006                 ASSERT           {IEEE_FULL} = {FALSE}
  698 00000006                 ASSERT           {IEEE_PART} = {FALSE}
  699 00000006                 ASSERT           {IEEE_JAVA} = {FALSE}
  700 00000006                 END
Command Line: --debug --xref --diag_suppress=9931 --cpu=Cortex-M4.fp --apcs=int
erwork -o.\wiring_time.o -I.\RTE\Device\XMC4700-F144x2048 -I.\RTE\_Target_1 -IC
:\Keil_v5\ARM\PACK\ARM\CMSIS\5.0.1\CMSIS\Include -IC:\Keil_v5\ARM\PACK\Infineon
\XMC4000_DFP\2.9.1\Device\XMC4700_series\Include -IC:\Keil_v5\ARM\PACK\Infineon
\XMC4000_DFP\2.9.1\Device\XMClib\inc -IC:\Keil_v5\ARM\PACK\Infineon\XMC4000_DFP
\2.9.1\RTE_Driver --predefine="__MICROLIB SETA 1" --predefine="__UVISION_VERSIO
N SETA 524" --predefine="_RTE_ SETA 1" --predefine="XMC4700_F144x2048 SETA 1" -
-list=.\wiring_time.lst .\wiring_time.s



ARM Macro Assembler    Page 1 Alphabetic symbol ordering
Relocatable symbols

NOPS_FOR_USEC 00000000

Symbol: NOPS_FOR_USEC
   Definitions
      At line 9 in file .\wiring_time.s
   Uses
      At line 657 in file C:\\Keil_v5\\ARM\\PACK\\ARM\\CMSIS\\5.0.1\\CMSIS\\Inc
lude\\cmsis_armcc.h
Comment: NOPS_FOR_USEC used once
|i.NOPS_FOR_USEC| 00000000

Symbol: |i.NOPS_FOR_USEC|
   Definitions
      At line 7 in file .\wiring_time.s
   Uses
      None
Comment: |i.NOPS_FOR_USEC| unused
2 symbols



ARM Macro Assembler    Page 1 Alphabetic symbol ordering
Relocatable symbols

L1.32 00000020

Symbol: L1.32
   Definitions
      At line 175 in file .\wiring_time.s
   Uses
      At line 170 in file .\wiring_time.s
Comment: L1.32 used once
L1.56 00000038

Symbol: L1.56
   Definitions
      At line 187 in file .\wiring_time.s
   Uses
      At line 167 in file .\wiring_time.s
      At line 174 in file .\wiring_time.s
      At line 180 in file .\wiring_time.s

L1.60 0000003C

Symbol: L1.60
   Definitions
      At line 192 in file .\wiring_time.s
   Uses
      At line 160 in file .\wiring_time.s
Comment: L1.60 used once
L1.64 00000040

Symbol: L1.64
   Definitions
      At line 194 in file .\wiring_time.s
   Uses
      At line 162 in file .\wiring_time.s
      At line 165 in file .\wiring_time.s

L1.68 00000044

Symbol: L1.68
   Definitions
      At line 196 in file .\wiring_time.s
   Uses
      At line 178 in file .\wiring_time.s
      At line 182 in file .\wiring_time.s
      At line 185 in file .\wiring_time.s

SysTick_Handler 00000000

Symbol: SysTick_Handler
   Definitions
      At line 158 in file .\wiring_time.s
   Uses
      At line 658 in file C:\\Keil_v5\\ARM\\PACK\\ARM\\CMSIS\\5.0.1\\CMSIS\\Inc
lude\\cmsis_armcc.h
Comment: SysTick_Handler used once
|i.SysTick_Handler| 00000000

Symbol: |i.SysTick_Handler|
   Definitions
      At line 156 in file .\wiring_time.s



ARM Macro Assembler    Page 2 Alphabetic symbol ordering
Relocatable symbols

   Uses
      None
Comment: |i.SysTick_Handler| unused
7 symbols



ARM Macro Assembler    Page 1 Alphabetic symbol ordering
Relocatable symbols

L2.168 000000A8

Symbol: L2.168
   Definitions
      At line 258 in file .\wiring_time.s
   Uses
      At line 220 in file .\wiring_time.s
Comment: L2.168 used once
L2.170 000000AA

Symbol: L2.170
   Definitions
      At line 260 in file .\wiring_time.s
   Uses
      At line 257 in file .\wiring_time.s
Comment: L2.170 used once
L2.194 000000C2

Symbol: L2.194
   Definitions
      At line 268 in file .\wiring_time.s
   Uses
      At line 259 in file .\wiring_time.s
Comment: L2.194 used once
L2.196 000000C4

Symbol: L2.196
   Definitions
      At line 270 in file .\wiring_time.s
   Uses
      At line 213 in file .\wiring_time.s
Comment: L2.196 used once
L2.200 000000C8

Symbol: L2.200
   Definitions
      At line 273 in file .\wiring_time.s
   Uses
      At line 267 in file .\wiring_time.s
Comment: L2.200 used once
L2.202 000000CA

Symbol: L2.202
   Definitions
      At line 275 in file .\wiring_time.s
   Uses
      At line 210 in file .\wiring_time.s
Comment: L2.202 used once
L2.208 000000D0

Symbol: L2.208
   Definitions
      At line 280 in file .\wiring_time.s
   Uses
      At line 217 in file .\wiring_time.s
      At line 223 in file .\wiring_time.s
      At line 226 in file .\wiring_time.s

L2.212 000000D4



ARM Macro Assembler    Page 2 Alphabetic symbol ordering
Relocatable symbols


Symbol: L2.212
   Definitions
      At line 282 in file .\wiring_time.s
   Uses
      At line 229 in file .\wiring_time.s
      At line 237 in file .\wiring_time.s

L2.22 00000016

Symbol: L2.22
   Definitions
      At line 211 in file .\wiring_time.s
   Uses
      At line 209 in file .\wiring_time.s
Comment: L2.22 used once
L2.26 0000001A

Symbol: L2.26
   Definitions
      At line 214 in file .\wiring_time.s
   Uses
      At line 272 in file .\wiring_time.s
Comment: L2.26 used once
XMC_SYSTIMER_CreateTimer 00000000

Symbol: XMC_SYSTIMER_CreateTimer
   Definitions
      At line 201 in file .\wiring_time.s
   Uses
      At line 812 in file .\wiring_time.s
      At line 659 in file C:\\Keil_v5\\ARM\\PACK\\ARM\\CMSIS\\5.0.1\\CMSIS\\Inc
lude\\cmsis_armcc.h

|i.XMC_SYSTIMER_CreateTimer| 00000000

Symbol: |i.XMC_SYSTIMER_CreateTimer|
   Definitions
      At line 199 in file .\wiring_time.s
   Uses
      None
Comment: |i.XMC_SYSTIMER_CreateTimer| unused
12 symbols



ARM Macro Assembler    Page 1 Alphabetic symbol ordering
Relocatable symbols

L3.100 00000064

Symbol: L3.100
   Definitions
      At line 334 in file .\wiring_time.s
   Uses
      At line 293 in file .\wiring_time.s
      At line 302 in file .\wiring_time.s
      At line 310 in file .\wiring_time.s
      At line 326 in file .\wiring_time.s

L3.104 00000068

Symbol: L3.104
   Definitions
      At line 336 in file .\wiring_time.s
   Uses
      At line 316 in file .\wiring_time.s
      At line 319 in file .\wiring_time.s

L3.26 0000001A

Symbol: L3.26
   Definitions
      At line 299 in file .\wiring_time.s
   Uses
      At line 296 in file .\wiring_time.s
Comment: L3.26 used once
L3.78 0000004E

Symbol: L3.78
   Definitions
      At line 322 in file .\wiring_time.s
   Uses
      At line 306 in file .\wiring_time.s
Comment: L3.78 used once
L3.96 00000060

Symbol: L3.96
   Definitions
      At line 329 in file .\wiring_time.s
   Uses
      At line 298 in file .\wiring_time.s
      At line 321 in file .\wiring_time.s

XMC_SYSTIMER_DeleteTimer 00000000

Symbol: XMC_SYSTIMER_DeleteTimer
   Definitions
      At line 287 in file .\wiring_time.s
   Uses
      At line 824 in file .\wiring_time.s
      At line 660 in file C:\\Keil_v5\\ARM\\PACK\\ARM\\CMSIS\\5.0.1\\CMSIS\\Inc
lude\\cmsis_armcc.h

|i.XMC_SYSTIMER_DeleteTimer| 00000000

Symbol: |i.XMC_SYSTIMER_DeleteTimer|
   Definitions



ARM Macro Assembler    Page 2 Alphabetic symbol ordering
Relocatable symbols

      At line 285 in file .\wiring_time.s
   Uses
      None
Comment: |i.XMC_SYSTIMER_DeleteTimer| unused
7 symbols



ARM Macro Assembler    Page 1 Alphabetic symbol ordering
Relocatable symbols

L4.8 00000008

Symbol: L4.8
   Definitions
      At line 348 in file .\wiring_time.s
   Uses
      At line 342 in file .\wiring_time.s
Comment: L4.8 used once
XMC_SYSTIMER_GetTickCount 00000000

Symbol: XMC_SYSTIMER_GetTickCount
   Definitions
      At line 341 in file .\wiring_time.s
   Uses
      At line 661 in file C:\\Keil_v5\\ARM\\PACK\\ARM\\CMSIS\\5.0.1\\CMSIS\\Inc
lude\\cmsis_armcc.h
Comment: XMC_SYSTIMER_GetTickCount used once
|i.XMC_SYSTIMER_GetTickCount| 00000000

Symbol: |i.XMC_SYSTIMER_GetTickCount|
   Definitions
      At line 339 in file .\wiring_time.s
   Uses
      None
Comment: |i.XMC_SYSTIMER_GetTickCount| unused
3 symbols



ARM Macro Assembler    Page 1 Alphabetic symbol ordering
Relocatable symbols

L5.12 0000000C

Symbol: L5.12
   Definitions
      At line 361 in file .\wiring_time.s
   Uses
      At line 354 in file .\wiring_time.s
Comment: L5.12 used once
XMC_SYSTIMER_GetTime 00000000

Symbol: XMC_SYSTIMER_GetTime
   Definitions
      At line 353 in file .\wiring_time.s
   Uses
      At line 850 in file .\wiring_time.s
      At line 859 in file .\wiring_time.s
      At line 662 in file C:\\Keil_v5\\ARM\\PACK\\ARM\\CMSIS\\5.0.1\\CMSIS\\Inc
lude\\cmsis_armcc.h

|i.XMC_SYSTIMER_GetTime| 00000000

Symbol: |i.XMC_SYSTIMER_GetTime|
   Definitions
      At line 351 in file .\wiring_time.s
   Uses
      None
Comment: |i.XMC_SYSTIMER_GetTime| unused
3 symbols



ARM Macro Assembler    Page 1 Alphabetic symbol ordering
Relocatable symbols

L6.20 00000014

Symbol: L6.20
   Definitions
      At line 377 in file .\wiring_time.s
   Uses
      At line 370 in file .\wiring_time.s
Comment: L6.20 used once
XMC_SYSTIMER_GetTimerState 00000000

Symbol: XMC_SYSTIMER_GetTimerState
   Definitions
      At line 366 in file .\wiring_time.s
   Uses
      At line 663 in file C:\\Keil_v5\\ARM\\PACK\\ARM\\CMSIS\\5.0.1\\CMSIS\\Inc
lude\\cmsis_armcc.h
Comment: XMC_SYSTIMER_GetTimerState used once
|i.XMC_SYSTIMER_GetTimerState| 00000000

Symbol: |i.XMC_SYSTIMER_GetTimerState|
   Definitions
      At line 364 in file .\wiring_time.s
   Uses
      None
Comment: |i.XMC_SYSTIMER_GetTimerState| unused
3 symbols



ARM Macro Assembler    Page 1 Alphabetic symbol ordering
Relocatable symbols

L7.32 00000020

Symbol: L7.32
   Definitions
      At line 396 in file .\wiring_time.s
   Uses
      At line 393 in file .\wiring_time.s
Comment: L7.32 used once
L7.58 0000003A

Symbol: L7.58
   Definitions
      At line 407 in file .\wiring_time.s
   Uses
      At line 403 in file .\wiring_time.s
Comment: L7.58 used once
L7.90 0000005A

Symbol: L7.90
   Definitions
      At line 419 in file .\wiring_time.s
   Uses
      At line 395 in file .\wiring_time.s
      At line 408 in file .\wiring_time.s

L7.96 00000060

Symbol: L7.96
   Definitions
      At line 424 in file .\wiring_time.s
   Uses
      At line 390 in file .\wiring_time.s
      At line 399 in file .\wiring_time.s
      At line 413 in file .\wiring_time.s

XMC_SYSTIMER_RestartTimer 00000000

Symbol: XMC_SYSTIMER_RestartTimer
   Definitions
      At line 382 in file .\wiring_time.s
   Uses
      At line 664 in file C:\\Keil_v5\\ARM\\PACK\\ARM\\CMSIS\\5.0.1\\CMSIS\\Inc
lude\\cmsis_armcc.h
Comment: XMC_SYSTIMER_RestartTimer used once
|i.XMC_SYSTIMER_RestartTimer| 00000000

Symbol: |i.XMC_SYSTIMER_RestartTimer|
   Definitions
      At line 380 in file .\wiring_time.s
   Uses
      None
Comment: |i.XMC_SYSTIMER_RestartTimer| unused
6 symbols



ARM Macro Assembler    Page 1 Alphabetic symbol ordering
Relocatable symbols

L8.74 0000004A

Symbol: L8.74
   Definitions
      At line 458 in file .\wiring_time.s
   Uses
      At line 439 in file .\wiring_time.s
Comment: L8.74 used once
L8.80 00000050

Symbol: L8.80
   Definitions
      At line 464 in file .\wiring_time.s
   Uses
      At line 435 in file .\wiring_time.s
      At line 447 in file .\wiring_time.s

XMC_SYSTIMER_StartTimer 00000000

Symbol: XMC_SYSTIMER_StartTimer
   Definitions
      At line 429 in file .\wiring_time.s
   Uses
      At line 417 in file .\wiring_time.s
      At line 816 in file .\wiring_time.s
      At line 665 in file C:\\Keil_v5\\ARM\\PACK\\ARM\\CMSIS\\5.0.1\\CMSIS\\Inc
lude\\cmsis_armcc.h

|i.XMC_SYSTIMER_StartTimer| 00000000

Symbol: |i.XMC_SYSTIMER_StartTimer|
   Definitions
      At line 427 in file .\wiring_time.s
   Uses
      None
Comment: |i.XMC_SYSTIMER_StartTimer| unused
4 symbols



ARM Macro Assembler    Page 1 Alphabetic symbol ordering
Relocatable symbols

L9.26 0000001A

Symbol: L9.26
   Definitions
      At line 481 in file .\wiring_time.s
   Uses
      At line 478 in file .\wiring_time.s
Comment: L9.26 used once
L9.66 00000042

Symbol: L9.66
   Definitions
      At line 497 in file .\wiring_time.s
   Uses
      At line 480 in file .\wiring_time.s
      At line 488 in file .\wiring_time.s

L9.72 00000048

Symbol: L9.72
   Definitions
      At line 503 in file .\wiring_time.s
   Uses
      At line 475 in file .\wiring_time.s
      At line 484 in file .\wiring_time.s
      At line 492 in file .\wiring_time.s

XMC_SYSTIMER_StopTimer 00000000

Symbol: XMC_SYSTIMER_StopTimer
   Definitions
      At line 469 in file .\wiring_time.s
   Uses
      At line 405 in file .\wiring_time.s
      At line 666 in file C:\\Keil_v5\\ARM\\PACK\\ARM\\CMSIS\\5.0.1\\CMSIS\\Inc
lude\\cmsis_armcc.h

|i.XMC_SYSTIMER_StopTimer| 00000000

Symbol: |i.XMC_SYSTIMER_StopTimer|
   Definitions
      At line 467 in file .\wiring_time.s
   Uses
      None
Comment: |i.XMC_SYSTIMER_StopTimer| unused
5 symbols



ARM Macro Assembler    Page 1 Alphabetic symbol ordering
Relocatable symbols

L10.106 0000006A

Symbol: L10.106
   Definitions
      At line 552 in file .\wiring_time.s
   Uses
      At line 534 in file .\wiring_time.s
Comment: L10.106 used once
L10.150 00000096

Symbol: L10.150
   Definitions
      At line 569 in file .\wiring_time.s
   Uses
      At line 551 in file .\wiring_time.s
Comment: L10.150 used once
L10.214 000000D6

Symbol: L10.214
   Definitions
      At line 592 in file .\wiring_time.s
   Uses
      At line 532 in file .\wiring_time.s
Comment: L10.214 used once
L10.256 00000100

Symbol: L10.256
   Definitions
      At line 608 in file .\wiring_time.s
   Uses
      At line 591 in file .\wiring_time.s
      At line 594 in file .\wiring_time.s
      At line 596 in file .\wiring_time.s

L10.258 00000102

Symbol: L10.258
   Definitions
      At line 610 in file .\wiring_time.s
   Uses
      At line 527 in file .\wiring_time.s
Comment: L10.258 used once
L10.264 00000108

Symbol: L10.264
   Definitions
      At line 614 in file .\wiring_time.s
   Uses
      At line 522 in file .\wiring_time.s
      At line 611 in file .\wiring_time.s

L10.268 0000010C

Symbol: L10.268
   Definitions
      At line 619 in file .\wiring_time.s
   Uses
      At line 512 in file .\wiring_time.s
      At line 536 in file .\wiring_time.s



ARM Macro Assembler    Page 2 Alphabetic symbol ordering
Relocatable symbols

      At line 541 in file .\wiring_time.s
      At line 556 in file .\wiring_time.s
      At line 571 in file .\wiring_time.s
      At line 576 in file .\wiring_time.s
      At line 598 in file .\wiring_time.s

L10.272 00000110

Symbol: L10.272
   Definitions
      At line 621 in file .\wiring_time.s
   Uses
      At line 515 in file .\wiring_time.s
      At line 520 in file .\wiring_time.s
      At line 524 in file .\wiring_time.s
      At line 553 in file .\wiring_time.s
      At line 561 in file .\wiring_time.s
      At line 567 in file .\wiring_time.s

L10.36 00000024

Symbol: L10.36
   Definitions
      At line 523 in file .\wiring_time.s
   Uses
      At line 517 in file .\wiring_time.s
Comment: L10.36 used once
L10.44 0000002C

Symbol: L10.44
   Definitions
      At line 528 in file .\wiring_time.s
   Uses
      At line 613 in file .\wiring_time.s
Comment: L10.44 used once
XMC_SYSTIMER_lInsertTimerList 00000000

Symbol: XMC_SYSTIMER_lInsertTimerList
   Definitions
      At line 508 in file .\wiring_time.s
   Uses
      At line 456 in file .\wiring_time.s
      At line 745 in file .\wiring_time.s
      At line 681 in file C:\\Keil_v5\\ARM\\PACK\\ARM\\CMSIS\\5.0.1\\CMSIS\\Inc
lude\\cmsis_armcc.h

|i.XMC_SYSTIMER_lInsertTimerList| 00000000

Symbol: |i.XMC_SYSTIMER_lInsertTimerList|
   Definitions
      At line 506 in file .\wiring_time.s
   Uses
      None
Comment: |i.XMC_SYSTIMER_lInsertTimerList| unused
12 symbols



ARM Macro Assembler    Page 1 Alphabetic symbol ordering
Relocatable symbols

L11.110 0000006E

Symbol: L11.110
   Definitions
      At line 681 in file .\wiring_time.s
   Uses
      At line 638 in file .\wiring_time.s
      At line 658 in file .\wiring_time.s
      At line 666 in file .\wiring_time.s

L11.112 00000070

Symbol: L11.112
   Definitions
      At line 685 in file .\wiring_time.s
   Uses
      At line 629 in file .\wiring_time.s
Comment: L11.112 used once
L11.116 00000074

Symbol: L11.116
   Definitions
      At line 687 in file .\wiring_time.s
   Uses
      At line 636 in file .\wiring_time.s
      At line 642 in file .\wiring_time.s
      At line 648 in file .\wiring_time.s
      At line 653 in file .\wiring_time.s

L11.28 0000001C

Symbol: L11.28
   Definitions
      At line 639 in file .\wiring_time.s
   Uses
      At line 632 in file .\wiring_time.s
      At line 634 in file .\wiring_time.s

L11.66 00000042

Symbol: L11.66
   Definitions
      At line 659 in file .\wiring_time.s
   Uses
      At line 641 in file .\wiring_time.s
Comment: L11.66 used once
L11.80 00000050

Symbol: L11.80
   Definitions
      At line 667 in file .\wiring_time.s
   Uses
      At line 661 in file .\wiring_time.s
Comment: L11.80 used once
XMC_SYSTIMER_lRemoveTimerList 00000000

Symbol: XMC_SYSTIMER_lRemoveTimerList
   Definitions
      At line 626 in file .\wiring_time.s



ARM Macro Assembler    Page 2 Alphabetic symbol ordering
Relocatable symbols

   Uses
      At line 496 in file .\wiring_time.s
      At line 707 in file .\wiring_time.s
      At line 726 in file .\wiring_time.s
      At line 741 in file .\wiring_time.s
      At line 682 in file C:\\Keil_v5\\ARM\\PACK\\ARM\\CMSIS\\5.0.1\\CMSIS\\Inc
lude\\cmsis_armcc.h

|i.XMC_SYSTIMER_lRemoveTimerList| 00000000

Symbol: |i.XMC_SYSTIMER_lRemoveTimerList|
   Definitions
      At line 624 in file .\wiring_time.s
   Uses
      None
Comment: |i.XMC_SYSTIMER_lRemoveTimerList| unused
8 symbols



ARM Macro Assembler    Page 1 Alphabetic symbol ordering
Relocatable symbols

L12.118 00000076

Symbol: L12.118
   Definitions
      At line 750 in file .\wiring_time.s
   Uses
      At line 736 in file .\wiring_time.s
Comment: L12.118 used once
L12.120 00000078

Symbol: L12.120
   Definitions
      At line 752 in file .\wiring_time.s
   Uses
      At line 718 in file .\wiring_time.s
      At line 724 in file .\wiring_time.s
      At line 732 in file .\wiring_time.s
      At line 739 in file .\wiring_time.s
      At line 749 in file .\wiring_time.s

L12.124 0000007C

Symbol: L12.124
   Definitions
      At line 755 in file .\wiring_time.s
   Uses
      At line 701 in file .\wiring_time.s
Comment: L12.124 used once
L12.132 00000084

Symbol: L12.132
   Definitions
      At line 760 in file .\wiring_time.s
   Uses
      At line 751 in file .\wiring_time.s
      At line 756 in file .\wiring_time.s

L12.136 00000088

Symbol: L12.136
   Definitions
      At line 765 in file .\wiring_time.s
   Uses
      At line 694 in file .\wiring_time.s
      At line 697 in file .\wiring_time.s

L12.140 0000008C

Symbol: L12.140
   Definitions
      At line 767 in file .\wiring_time.s
   Uses
      At line 699 in file .\wiring_time.s
      At line 753 in file .\wiring_time.s

L12.144 00000090

Symbol: L12.144
   Definitions



ARM Macro Assembler    Page 2 Alphabetic symbol ordering
Relocatable symbols

      At line 769 in file .\wiring_time.s
   Uses
      At line 713 in file .\wiring_time.s
      At line 716 in file .\wiring_time.s

L12.18 00000012

Symbol: L12.18
   Definitions
      At line 702 in file .\wiring_time.s
   Uses
      At line 759 in file .\wiring_time.s
Comment: L12.18 used once
L12.54 00000036

Symbol: L12.54
   Definitions
      At line 719 in file .\wiring_time.s
   Uses
      At line 705 in file .\wiring_time.s
Comment: L12.54 used once
L12.82 00000052

Symbol: L12.82
   Definitions
      At line 733 in file .\wiring_time.s
   Uses
      At line 721 in file .\wiring_time.s
Comment: L12.82 used once
XMC_SYSTIMER_lTimerHandler 00000000

Symbol: XMC_SYSTIMER_lTimerHandler
   Definitions
      At line 692 in file .\wiring_time.s
   Uses
      At line 181 in file .\wiring_time.s
      At line 683 in file C:\\Keil_v5\\ARM\\PACK\\ARM\\CMSIS\\5.0.1\\CMSIS\\Inc
lude\\cmsis_armcc.h

|i.XMC_SYSTIMER_lTimerHandler| 00000000

Symbol: |i.XMC_SYSTIMER_lTimerHandler|
   Definitions
      At line 690 in file .\wiring_time.s
   Uses
      None
Comment: |i.XMC_SYSTIMER_lTimerHandler| unused
12 symbols



ARM Macro Assembler    Page 1 Alphabetic symbol ordering
Relocatable symbols

L13.16 00000010

Symbol: L13.16
   Definitions
      At line 783 in file .\wiring_time.s
   Uses
      At line 777 in file .\wiring_time.s
Comment: L13.16 used once
L13.30 0000001E

Symbol: L13.30
   Definitions
      At line 790 in file .\wiring_time.s
   Uses
      At line 782 in file .\wiring_time.s
Comment: L13.30 used once
L13.32 00000020

Symbol: L13.32
   Definitions
      At line 794 in file .\wiring_time.s
   Uses
      At line 780 in file .\wiring_time.s
Comment: L13.32 used once
L13.36 00000024

Symbol: L13.36
   Definitions
      At line 796 in file .\wiring_time.s
   Uses
      At line 786 in file .\wiring_time.s
Comment: L13.36 used once
__NVIC_SetPriority 00000000

Symbol: __NVIC_SetPriority
   Definitions
      At line 774 in file .\wiring_time.s
   Uses
      At line 884 in file .\wiring_time.s
      At line 894 in file .\wiring_time.s
      At line 684 in file C:\\Keil_v5\\ARM\\PACK\\ARM\\CMSIS\\5.0.1\\CMSIS\\Inc
lude\\cmsis_armcc.h

|i.__NVIC_SetPriority| 00000000

Symbol: |i.__NVIC_SetPriority|
   Definitions
      At line 772 in file .\wiring_time.s
   Uses
      None
Comment: |i.__NVIC_SetPriority| unused
6 symbols



ARM Macro Assembler    Page 1 Alphabetic symbol ordering
Relocatable symbols

L14.40 00000028

Symbol: L14.40
   Definitions
      At line 818 in file .\wiring_time.s
   Uses
      At line 822 in file .\wiring_time.s
Comment: L14.40 used once
L14.54 00000036

Symbol: L14.54
   Definitions
      At line 825 in file .\wiring_time.s
   Uses
      At line 814 in file .\wiring_time.s
Comment: L14.54 used once
L14.56 00000038

Symbol: L14.56
   Definitions
      At line 829 in file .\wiring_time.s
   Uses
      At line 805 in file .\wiring_time.s
      At line 819 in file .\wiring_time.s

L14.60 0000003C

Symbol: L14.60
   Definitions
      At line 831 in file .\wiring_time.s
   Uses
      At line 810 in file .\wiring_time.s
Comment: L14.60 used once
delay 00000000

Symbol: delay
   Definitions
      At line 801 in file .\wiring_time.s
   Uses
      At line 667 in file C:\\Keil_v5\\ARM\\PACK\\ARM\\CMSIS\\5.0.1\\CMSIS\\Inc
lude\\cmsis_armcc.h
Comment: delay used once
|i.delay| 00000000

Symbol: |i.delay|
   Definitions
      At line 799 in file .\wiring_time.s
   Uses
      None
Comment: |i.delay| unused
6 symbols



ARM Macro Assembler    Page 1 Alphabetic symbol ordering
Relocatable symbols

L15.8 00000008

Symbol: L15.8
   Definitions
      At line 843 in file .\wiring_time.s
   Uses
      At line 838 in file .\wiring_time.s
Comment: L15.8 used once
delay_cb 00000000

Symbol: delay_cb
   Definitions
      At line 836 in file .\wiring_time.s
   Uses
      At line 832 in file .\wiring_time.s
      At line 668 in file C:\\Keil_v5\\ARM\\PACK\\ARM\\CMSIS\\5.0.1\\CMSIS\\Inc
lude\\cmsis_armcc.h

|i.delay_cb| 00000000

Symbol: |i.delay_cb|
   Definitions
      At line 834 in file .\wiring_time.s
   Uses
      None
Comment: |i.delay_cb| unused
3 symbols



ARM Macro Assembler    Page 1 Alphabetic symbol ordering
Relocatable symbols

micros 00000000

Symbol: micros
   Definitions
      At line 848 in file .\wiring_time.s
   Uses
      At line 669 in file C:\\Keil_v5\\ARM\\PACK\\ARM\\CMSIS\\5.0.1\\CMSIS\\Inc
lude\\cmsis_armcc.h
Comment: micros used once
|i.micros| 00000000

Symbol: |i.micros|
   Definitions
      At line 846 in file .\wiring_time.s
   Uses
      None
Comment: |i.micros| unused
2 symbols



ARM Macro Assembler    Page 1 Alphabetic symbol ordering
Relocatable symbols

millis 00000000

Symbol: millis
   Definitions
      At line 857 in file .\wiring_time.s
   Uses
      At line 670 in file C:\\Keil_v5\\ARM\\PACK\\ARM\\CMSIS\\5.0.1\\CMSIS\\Inc
lude\\cmsis_armcc.h
Comment: millis used once
|i.millis| 00000000

Symbol: |i.millis|
   Definitions
      At line 855 in file .\wiring_time.s
   Uses
      None
Comment: |i.millis| unused
2 symbols



ARM Macro Assembler    Page 1 Alphabetic symbol ordering
Relocatable symbols

L18.20 00000014

Symbol: L18.20
   Definitions
      At line 878 in file .\wiring_time.s
   Uses
      At line 876 in file .\wiring_time.s
Comment: L18.20 used once
L18.52 00000034

Symbol: L18.52
   Definitions
      At line 891 in file .\wiring_time.s
   Uses
      At line 877 in file .\wiring_time.s
Comment: L18.52 used once
L18.68 00000044

Symbol: L18.68
   Definitions
      At line 901 in file .\wiring_time.s
   Uses
      At line 871 in file .\wiring_time.s
Comment: L18.68 used once
L18.72 00000048

Symbol: L18.72
   Definitions
      At line 903 in file .\wiring_time.s
   Uses
      At line 873 in file .\wiring_time.s
Comment: L18.72 used once
L18.76 0000004C

Symbol: L18.76
   Definitions
      At line 905 in file .\wiring_time.s
   Uses
      At line 896 in file .\wiring_time.s
Comment: L18.76 used once
wiring_time_init 00000000

Symbol: wiring_time_init
   Definitions
      At line 868 in file .\wiring_time.s
   Uses
      At line 671 in file C:\\Keil_v5\\ARM\\PACK\\ARM\\CMSIS\\5.0.1\\CMSIS\\Inc
lude\\cmsis_armcc.h
Comment: wiring_time_init used once
|i.wiring_time_init| 00000000

Symbol: |i.wiring_time_init|
   Definitions
      At line 866 in file .\wiring_time.s
   Uses
      None
Comment: |i.wiring_time_init| unused
7 symbols



ARM Macro Assembler    Page 1 Alphabetic symbol ordering
Relocatable symbols

|.arm_vfe_header| 00000000

Symbol: |.arm_vfe_header|
   Definitions
      At line 908 in file .\wiring_time.s
   Uses
      None
Comment: |.arm_vfe_header| unused
1 symbol



ARM Macro Assembler    Page 1 Alphabetic symbol ordering
Relocatable symbols

g_timer_tbl 00000000

Symbol: g_timer_tbl
   Definitions
      At line 914 in file .\wiring_time.s
   Uses
      At line 283 in file .\wiring_time.s
      At line 335 in file .\wiring_time.s
      At line 378 in file .\wiring_time.s
      At line 425 in file .\wiring_time.s
      At line 465 in file .\wiring_time.s
      At line 504 in file .\wiring_time.s
      At line 620 in file .\wiring_time.s
      At line 686 in file .\wiring_time.s
      At line 672 in file C:\\Keil_v5\\ARM\\PACK\\ARM\\CMSIS\\5.0.1\\CMSIS\\Inc
lude\\cmsis_armcc.h

|.bss| 00000000

Symbol: |.bss|
   Definitions
      At line 912 in file .\wiring_time.s
   Uses
      None
Comment: |.bss| unused
2 symbols



ARM Macro Assembler    Page 1 Alphabetic symbol ordering
Relocatable symbols

delay_timer_expired 00000010

Symbol: delay_timer_expired
   Definitions
      At line 928 in file .\wiring_time.s
   Uses
      At line 830 in file .\wiring_time.s
      At line 844 in file .\wiring_time.s
      At line 677 in file C:\\Keil_v5\\ARM\\PACK\\ARM\\CMSIS\\5.0.1\\CMSIS\\Inc
lude\\cmsis_armcc.h

g_systick_count 0000000C

Symbol: g_systick_count
   Definitions
      At line 926 in file .\wiring_time.s
   Uses
      At line 195 in file .\wiring_time.s
      At line 349 in file .\wiring_time.s
      At line 362 in file .\wiring_time.s
      At line 676 in file C:\\Keil_v5\\ARM\\PACK\\ARM\\CMSIS\\5.0.1\\CMSIS\\Inc
lude\\cmsis_armcc.h

g_timer_entered_handler 00000008

Symbol: g_timer_entered_handler
   Definitions
      At line 923 in file .\wiring_time.s
   Uses
      At line 197 in file .\wiring_time.s
      At line 766 in file .\wiring_time.s
      At line 675 in file C:\\Keil_v5\\ARM\\PACK\\ARM\\CMSIS\\5.0.1\\CMSIS\\Inc
lude\\cmsis_armcc.h

g_timer_list 00000000

Symbol: g_timer_list
   Definitions
      At line 919 in file .\wiring_time.s
   Uses
      At line 193 in file .\wiring_time.s
      At line 622 in file .\wiring_time.s
      At line 688 in file .\wiring_time.s
      At line 768 in file .\wiring_time.s
      At line 902 in file .\wiring_time.s
      At line 673 in file C:\\Keil_v5\\ARM\\PACK\\ARM\\CMSIS\\5.0.1\\CMSIS\\Inc
lude\\cmsis_armcc.h

g_timer_tracker 00000004

Symbol: g_timer_tracker
   Definitions
      At line 921 in file .\wiring_time.s
   Uses
      At line 281 in file .\wiring_time.s
      At line 337 in file .\wiring_time.s
      At line 770 in file .\wiring_time.s
      At line 906 in file .\wiring_time.s
      At line 674 in file C:\\Keil_v5\\ARM\\PACK\\ARM\\CMSIS\\5.0.1\\CMSIS\\Inc



ARM Macro Assembler    Page 2 Alphabetic symbol ordering
Relocatable symbols

lude\\cmsis_armcc.h

|.data| 00000000

Symbol: |.data|
   Definitions
      At line 917 in file .\wiring_time.s
   Uses
      None
Comment: |.data| unused
6 symbols



ARM Macro Assembler    Page 1 Alphabetic symbol ordering
Relocatable symbols

__asm___13_wiring_time_c_dbd866df____REV16 00000000

Symbol: __asm___13_wiring_time_c_dbd866df____REV16
   Definitions
      At line 447 in file C:\\Keil_v5\\ARM\\PACK\\ARM\\CMSIS\\5.0.1\\CMSIS\\Inc
lude\\cmsis_armcc.h
   Uses
      At line 3 in file cores\\wiring_time.c
Comment: __asm___13_wiring_time_c_dbd866df____REV16 used once
|.rev16_text| 00000000

Symbol: |.rev16_text|
   Definitions
      At line 1 in file cores\\wiring_time.c
   Uses
      None
Comment: |.rev16_text| unused
2 symbols



ARM Macro Assembler    Page 1 Alphabetic symbol ordering
Relocatable symbols

__asm___13_wiring_time_c_dbd866df____REVSH 00000000

Symbol: __asm___13_wiring_time_c_dbd866df____REVSH
   Definitions
      At line 462 in file C:\\Keil_v5\\ARM\\PACK\\ARM\\CMSIS\\5.0.1\\CMSIS\\Inc
lude\\cmsis_armcc.h
   Uses
      At line 454 in file C:\\Keil_v5\\ARM\\PACK\\ARM\\CMSIS\\5.0.1\\CMSIS\\Inc
lude\\cmsis_armcc.h
Comment: __asm___13_wiring_time_c_dbd866df____REVSH used once
|.revsh_text| 00000000

Symbol: |.revsh_text|
   Definitions
      At line 452 in file C:\\Keil_v5\\ARM\\PACK\\ARM\\CMSIS\\5.0.1\\CMSIS\\Inc
lude\\cmsis_armcc.h
   Uses
      None
Comment: |.revsh_text| unused
2 symbols



ARM Macro Assembler    Page 1 Alphabetic symbol ordering
Relocatable symbols

__asm___13_wiring_time_c_dbd866df____RRX 00000000

Symbol: __asm___13_wiring_time_c_dbd866df____RRX
   Definitions
      At line 649 in file C:\\Keil_v5\\ARM\\PACK\\ARM\\CMSIS\\5.0.1\\CMSIS\\Inc
lude\\cmsis_armcc.h
   Uses
      At line 469 in file C:\\Keil_v5\\ARM\\PACK\\ARM\\CMSIS\\5.0.1\\CMSIS\\Inc
lude\\cmsis_armcc.h
Comment: __asm___13_wiring_time_c_dbd866df____RRX used once
|.rrx_text| 00000000

Symbol: |.rrx_text|
   Definitions
      At line 467 in file C:\\Keil_v5\\ARM\\PACK\\ARM\\CMSIS\\5.0.1\\CMSIS\\Inc
lude\\cmsis_armcc.h
   Uses
      None
Comment: |.rrx_text| unused
2 symbols



ARM Macro Assembler    Page 1 Alphabetic symbol ordering
External symbols

|Lib$$Request$$armlib| 00000000

Symbol: |Lib$$Request$$armlib|
   Definitions
      At line 679 in file C:\\Keil_v5\\ARM\\PACK\\ARM\\CMSIS\\5.0.1\\CMSIS\\Inc
lude\\cmsis_armcc.h
   Uses
      None
Comment: |Lib$$Request$$armlib| unused
1 symbol
461 symbols in table
